# The sections that should be matched are
# 1800233ad - 1800233bb


moonbounce.bin:     file format pei-x86-64


Disassembly of section .text:

00000001800002c0 <.text>:
   18001d4c1:	49 85 c7             	test   %rax,%r15
   18001d4c4:	0f 85 bb 01 00 00    	jne    0x18001d685
   18001d4ca:	8d 43 04             	lea    0x4(%rbx),%eax
   18001d4cd:	48 8d 15 bc fa 02 00 	lea    0x2fabc(%rip),%rdx        # 0x18004cf90
   18001d4d4:	48 8d 4c 24 34       	lea    0x34(%rsp),%rcx
   18001d4d9:	66 89 44 24 30       	mov    %ax,0x30(%rsp)
   18001d4de:	8d 43 fc             	lea    -0x4(%rbx),%eax
   18001d4e1:	4c 8b c3             	mov    %rbx,%r8
   18001d4e4:	66 89 44 24 32       	mov    %ax,0x32(%rsp)
   18001d4e9:	e8 3a 21 00 00       	call   0x18001f628
   18001d4ee:	80 3d 65 37 03 00 00 	cmpb   $0x0,0x33765(%rip)        # 0x180050c5a
   18001d4f5:	74 0f                	je     0x18001d506
   18001d4f7:	48 b8 14 00 00 00 00 	movabs $0x8000000000000014,%rax
   18001d4fe:	00 00 80
   18001d501:	e9 7f 01 00 00       	jmp    0x18001d685
   18001d506:	c6 05 4d 37 03 00 01 	movb   $0x1,0x3374d(%rip)        # 0x180050c5a
   18001d50d:	48 bd 0e 00 00 00 00 	movabs $0x800000000000000e,%rbp
   18001d514:	00 00 80
   18001d517:	4c 8d 35 e2 fb 02 00 	lea    0x2fbe2(%rip),%r14        # 0x18004d100
   18001d51e:	eb 7a                	jmp    0x18001d59a
   18001d520:	48 8b 1d e9 fb 02 00 	mov    0x2fbe9(%rip),%rbx        # 0x18004d110
   18001d527:	48 8d 43 68          	lea    0x68(%rbx),%rax
   18001d52b:	48 83 38 00          	cmpq   $0x0,(%rax)
   18001d52f:	0f 85 88 00 00 00    	jne    0x18001d5bd
   18001d535:	4c 8b 43 28          	mov    0x28(%rbx),%r8
   18001d539:	48 8b 15 90 65 13 00 	mov    0x136590(%rip),%rdx        # 0x180153ad0
   18001d540:	48 89 44 24 28       	mov    %rax,0x28(%rsp)
   18001d545:	48 83 64 24 20 00    	andq   $0x0,0x20(%rsp)
   18001d54b:	45 33 c9             	xor    %r9d,%r9d
   18001d54e:	33 c9                	xor    %ecx,%ecx
   18001d550:	e8 97 51 00 00       	call   0x1800226ec
   18001d555:	48 8b f8             	mov    %rax,%rdi
   18001d558:	49 85 c7             	test   %rax,%r15
   18001d55b:	74 60                	je     0x18001d5bd
   18001d55d:	48 8d 0d cc fb 02 00 	lea    0x2fbcc(%rip),%rcx        # 0x18004d130
   18001d564:	e8 ab 75 00 00       	call   0x180024b14
   18001d569:	49 bb 1a 00 00 00 00 	movabs $0x800000000000001a,%r11
   18001d570:	00 00 80
   18001d573:	49 3b fb             	cmp    %r11,%rdi
   18001d576:	75 06                	jne    0x18001d57e
   18001d578:	c6 43 5f 01          	movb   $0x1,0x5f(%rbx)
   18001d57c:	eb 04                	jmp    0x18001d582
   18001d57e:	c6 43 60 01          	movb   $0x1,0x60(%rbx)
   18001d582:	48 8b cb             	mov    %rbx,%rcx
   18001d585:	c6 43 5e 00          	movb   $0x0,0x5e(%rbx)
   18001d589:	e8 d2 55 02 00       	call   0x180042b60
   18001d58e:	48 8d 0d 9b fb 02 00 	lea    0x2fb9b(%rip),%rcx        # 0x18004d130
   18001d595:	e8 82 75 00 00       	call   0x180024b1c
   18001d59a:	48 8d 0d 6f fb 02 00 	lea    0x2fb6f(%rip),%rcx        # 0x18004d110
   18001d5a1:	e8 b2 55 02 00       	call   0x180042b58
   18001d5a6:	84 c0                	test   %al,%al
   18001d5a8:	0f 84 72 ff ff ff    	je     0x18001d520
   18001d5ae:	48 8b 3d 4b fb 02 00 	mov    0x2fb4b(%rip),%rdi        # 0x18004d100
   18001d5b5:	40 32 f6             	xor    %sil,%sil
   18001d5b8:	e9 9e 00 00 00       	jmp    0x18001d65b
   18001d5bd:	48 8d 0d 6c fb 02 00 	lea    0x2fb6c(%rip),%rcx        # 0x18004d130
   18001d5c4:	e8 4b 75 00 00       	call   0x180024b14
   18001d5c9:	48 8b cb             	mov    %rbx,%rcx
   18001d5cc:	c6 43 5e 00          	movb   $0x0,0x5e(%rbx)
   18001d5d0:	c6 43 60 01          	movb   $0x1,0x60(%rbx)
   18001d5d4:	e8 87 55 02 00       	call   0x180042b60
   18001d5d9:	48 8d 0d 50 fb 02 00 	lea    0x2fb50(%rip),%rcx        # 0x18004d130
   18001d5e0:	e8 37 75 00 00       	call   0x180024b1c
   18001d5e5:	48 8d 53 68          	lea    0x68(%rbx),%rdx
   18001d5e9:	48 8d 4c 24 48       	lea    0x48(%rsp),%rcx
   18001d5ee:	41 b8 08 00 00 00    	mov    $0x8,%r8d
   18001d5f4:	e8 2f 20 00 00       	call   0x18001f628
   18001d5f9:	48 8b 53 68          	mov    0x68(%rbx),%rdx
   18001d5fd:	b9 02 00 04 03       	mov    $0x3040002,%ecx
   18001d602:	e8 1d 73 00 00       	call   0x180024924
   18001d607:	48 8b 4b 68          	mov    0x68(%rbx),%rcx
   18001d60b:	45 33 c0             	xor    %r8d,%r8d
   18001d60e:	33 d2                	xor    %edx,%edx
   18001d610:	e8 e7 51 00 00       	call   0x1800227fc
   18001d615:	48 8b 53 68          	mov    0x68(%rbx),%rdx
   18001d619:	b9 03 00 04 03       	mov    $0x3040003,%ecx
   18001d61e:	e8 01 73 00 00       	call   0x180024924
   18001d623:	33 ed                	xor    %ebp,%ebp
   18001d625:	e9 70 ff ff ff       	jmp    0x18001d59a
   18001d62a:	80 7f 71 00          	cmpb   $0x0,0x71(%rdi)
   18001d62e:	74 09                	je     0x18001d639
   18001d630:	48 8d 4f f8          	lea    -0x8(%rdi),%rcx
   18001d634:	e8 8b f5 ff ff       	call   0x18001cbc4
   18001d639:	80 7f 6c 00          	cmpb   $0x0,0x6c(%rdi)
   18001d63d:	74 19                	je     0x18001d658
   18001d63f:	48 8d 4f f8          	lea    -0x8(%rdi),%rcx
   18001d643:	e8 0c a4 01 00       	call   0x180037a54
   18001d648:	84 c0                	test   %al,%al
   18001d64a:	74 0c                	je     0x18001d658
   18001d64c:	48 8d 4f f8          	lea    -0x8(%rdi),%rcx
   18001d650:	e8 37 f7 ff ff       	call   0x18001cd8c
   18001d655:	40 b6 01             	mov    $0x1,%sil
   18001d658:	48 8b 3f             	mov    (%rdi),%rdi
   18001d65b:	49 3b fe             	cmp    %r14,%rdi
   18001d65e:	75 ca                	jne    0x18001d62a
   18001d660:	49 85 ef             	test   %rbp,%r15
   18001d663:	75 0d                	jne    0x18001d672
   18001d665:	48 8b 8c 24 20 01 00 	mov    0x120(%rsp),%rcx
   18001d66c:	00
   18001d66d:	e8 f2 1c 00 00       	call   0x18001f364
   18001d672:	40 84 f6             	test   %sil,%sil
   18001d675:	0f 85 1f ff ff ff    	jne    0x18001d59a
   18001d67b:	40 88 35 d8 35 03 00 	mov    %sil,0x335d8(%rip)        # 0x180050c5a
   18001d682:	48 8b c5             	mov    %rbp,%rax
   18001d685:	4c 8d 9c 24 00 01 00 	lea    0x100(%rsp),%r11
   18001d68c:	00
   18001d68d:	49 8b 5b 28          	mov    0x28(%r11),%rbx
   18001d691:	49 8b 6b 30          	mov    0x30(%r11),%rbp
   18001d695:	49 8b 73 38          	mov    0x38(%r11),%rsi
   18001d699:	49 8b e3             	mov    %r11,%rsp
   18001d69c:	41 5f                	pop    %r15
   18001d69e:	41 5e                	pop    %r14
   18001d6a0:	5f                   	pop    %rdi
   18001d6a1:	c3                   	ret
   18001d6a2:	cc                   	int3
   18001d6a3:	cc                   	int3
   18001d6a4:	48 8d 0d a5 fa 02 00 	lea    0x2faa5(%rip),%rcx        # 0x18004d150
   18001d6ab:	e9 64 74 00 00       	jmp    0x180024b14
   18001d6b0:	48 8d 0d 99 fa 02 00 	lea    0x2fa99(%rip),%rcx        # 0x18004d150
   18001d6b7:	e9 60 74 00 00       	jmp    0x180024b1c
   18001d6bc:	48 89 5c 24 08       	mov    %rbx,0x8(%rsp)
   18001d6c1:	57                   	push   %rdi
   18001d6c2:	48 83 ec 20          	sub    $0x20,%rsp
   18001d6c6:	48 8b f9             	mov    %rcx,%rdi
   18001d6c9:	b9 01 00 00 00       	mov    $0x1,%ecx
   18001d6ce:	41 8a d8             	mov    %r8b,%bl
   18001d6d1:	e8 7a 1f 00 00       	call   0x18001f650
   18001d6d6:	48 ff c8             	dec    %rax
   18001d6d9:	84 db                	test   %bl,%bl
   18001d6db:	74 03                	je     0x18001d6e0
   18001d6dd:	48 03 f8             	add    %rax,%rdi
   18001d6e0:	48 8b 5c 24 30       	mov    0x30(%rsp),%rbx
   18001d6e5:	48 f7 d0             	not    %rax
   18001d6e8:	48 23 c7             	and    %rdi,%rax
   18001d6eb:	48 83 c4 20          	add    $0x20,%rsp
   18001d6ef:	5f                   	pop    %rdi
   18001d6f0:	c3                   	ret
   18001d6f1:	cc                   	int3
   18001d6f2:	cc                   	int3
   18001d6f3:	cc                   	int3
   18001d6f4:	40 53                	rex push %rbx
   18001d6f6:	48 83 ec 20          	sub    $0x20,%rsp
   18001d6fa:	ba 0c 00 00 00       	mov    $0xc,%edx
   18001d6ff:	48 8b d9             	mov    %rcx,%rbx
   18001d702:	8d 4a f5             	lea    -0xb(%rdx),%ecx
   18001d705:	e8 46 1f 00 00       	call   0x18001f650
   18001d70a:	48 ff c8             	dec    %rax
   18001d70d:	48 f7 d0             	not    %rax
   18001d710:	48 23 c3             	and    %rbx,%rax
   18001d713:	48 83 c4 20          	add    $0x20,%rsp
   18001d717:	5b                   	pop    %rbx
   18001d718:	c3                   	ret
   18001d719:	cc                   	int3
   18001d71a:	cc                   	int3
   18001d71b:	cc                   	int3
   18001d71c:	48 89 5c 24 08       	mov    %rbx,0x8(%rsp)
   18001d721:	57                   	push   %rdi
   18001d722:	48 83 ec 20          	sub    $0x20,%rsp
   18001d726:	48 8b d9             	mov    %rcx,%rbx
   18001d729:	b9 50 00 00 00       	mov    $0x50,%ecx
   18001d72e:	48 8b fa             	mov    %rdx,%rdi
   18001d731:	e8 8e 72 00 00       	call   0x1800249c4
   18001d736:	48 89 03             	mov    %rax,(%rbx)
   18001d739:	48 85 c0             	test   %rax,%rax
   18001d73c:	75 0c                	jne    0x18001d74a
   18001d73e:	48 b8 09 00 00 00 00 	movabs $0x8000000000000009,%rax
   18001d745:	00 00 80
   18001d748:	eb 1e                	jmp    0x18001d768
   18001d74a:	b9 50 00 00 00       	mov    $0x50,%ecx
   18001d74f:	e8 70 72 00 00       	call   0x1800249c4
   18001d754:	48 89 07             	mov    %rax,(%rdi)
   18001d757:	48 85 c0             	test   %rax,%rax
   18001d75a:	75 0a                	jne    0x18001d766
   18001d75c:	48 8b 0b             	mov    (%rbx),%rcx
   18001d75f:	e8 68 5e 00 00       	call   0x1800235cc
   18001d764:	eb d8                	jmp    0x18001d73e
   18001d766:	33 c0                	xor    %eax,%eax
   18001d768:	48 8b 5c 24 30       	mov    0x30(%rsp),%rbx
   18001d76d:	48 83 c4 20          	add    $0x20,%rsp
   18001d771:	5f                   	pop    %rdi
   18001d772:	c3                   	ret
   18001d773:	cc                   	int3
   18001d774:	48 8b c4             	mov    %rsp,%rax
   18001d777:	48 89 58 08          	mov    %rbx,0x8(%rax)
   18001d77b:	48 89 68 10          	mov    %rbp,0x10(%rax)
   18001d77f:	48 89 70 18          	mov    %rsi,0x18(%rax)
   18001d783:	48 89 78 20          	mov    %rdi,0x20(%rax)
   18001d787:	41 54                	push   %r12
   18001d789:	48 83 ec 20          	sub    $0x20,%rsp
   18001d78d:	49 8b e9             	mov    %r9,%rbp
   18001d790:	49 8b f0             	mov    %r8,%rsi
   18001d793:	48 8b fa             	mov    %rdx,%rdi
   18001d796:	4c 8b e1             	mov    %rcx,%r12
   18001d799:	4c 3b 42 18          	cmp    0x18(%rdx),%r8
   18001d79d:	76 2b                	jbe    0x18001d7ca
   18001d79f:	48 8b 5c 24 58       	mov    0x58(%rsp),%rbx
   18001d7a4:	41 b8 50 00 00 00    	mov    $0x50,%r8d
   18001d7aa:	48 8b cb             	mov    %rbx,%rcx
   18001d7ad:	e8 76 1e 00 00       	call   0x18001f628
   18001d7b2:	48 8d 46 ff          	lea    -0x1(%rsi),%rax
   18001d7b6:	48 89 77 18          	mov    %rsi,0x18(%rdi)
   18001d7ba:	48 8d 53 08          	lea    0x8(%rbx),%rdx
   18001d7be:	49 8b cc             	mov    %r12,%rcx
   18001d7c1:	48 89 43 20          	mov    %rax,0x20(%rbx)
   18001d7c5:	e8 a6 53 02 00       	call   0x180042b70
   18001d7ca:	48 03 f5             	add    %rbp,%rsi
   18001d7cd:	48 8d 6e ff          	lea    -0x1(%rsi),%rbp
   18001d7d1:	48 3b 6f 20          	cmp    0x20(%rdi),%rbp
   18001d7d5:	73 2a                	jae    0x18001d801
   18001d7d7:	48 8b 5c 24 50       	mov    0x50(%rsp),%rbx
   18001d7dc:	41 b8 50 00 00 00    	mov    $0x50,%r8d
   18001d7e2:	48 8b d7             	mov    %rdi,%rdx
   18001d7e5:	48 8b cb             	mov    %rbx,%rcx
   18001d7e8:	e8 3b 1e 00 00       	call   0x18001f628
   18001d7ed:	48 89 73 18          	mov    %rsi,0x18(%rbx)
   18001d7f1:	48 8d 53 08          	lea    0x8(%rbx),%rdx
   18001d7f5:	49 8b cc             	mov    %r12,%rcx
   18001d7f8:	48 89 6f 20          	mov    %rbp,0x20(%rdi)
   18001d7fc:	e8 83 53 02 00       	call   0x180042b84
   18001d801:	48 8b 5c 24 30       	mov    0x30(%rsp),%rbx
   18001d806:	48 8b 6c 24 38       	mov    0x38(%rsp),%rbp
   18001d80b:	48 8b 74 24 40       	mov    0x40(%rsp),%rsi
   18001d810:	48 8b 7c 24 48       	mov    0x48(%rsp),%rdi
   18001d815:	33 c0                	xor    %eax,%eax
   18001d817:	48 83 c4 20          	add    $0x20,%rsp
   18001d81b:	41 5c                	pop    %r12
   18001d81d:	c3                   	ret
   18001d81e:	cc                   	int3
   18001d81f:	cc                   	int3
   18001d820:	40 53                	rex push %rbx
   18001d822:	48 83 ec 20          	sub    $0x20,%rsp
   18001d826:	84 d2                	test   %dl,%dl
   18001d828:	74 05                	je     0x18001d82f
   18001d82a:	4c 8b 09             	mov    (%rcx),%r9
   18001d82d:	eb 04                	jmp    0x18001d833
   18001d82f:	4c 8b 49 08          	mov    0x8(%rcx),%r9
   18001d833:	4d 3b c8             	cmp    %r8,%r9
   18001d836:	74 6e                	je     0x18001d8a6
   18001d838:	49 8d 59 f8          	lea    -0x8(%r9),%rbx
   18001d83c:	48 8b 43 28          	mov    0x28(%rbx),%rax
   18001d840:	48 39 41 20          	cmp    %rax,0x20(%rcx)
   18001d844:	74 0c                	je     0x18001d852
   18001d846:	48 b8 03 00 00 00 00 	movabs $0x8000000000000003,%rax
   18001d84d:	00 00 80
   18001d850:	eb 56                	jmp    0x18001d8a8
   18001d852:	48 8b 43 30          	mov    0x30(%rbx),%rax
   18001d856:	48 39 41 28          	cmp    %rax,0x28(%rcx)
   18001d85a:	75 ea                	jne    0x18001d846
   18001d85c:	8b 43 38             	mov    0x38(%rbx),%eax
   18001d85f:	39 41 30             	cmp    %eax,0x30(%rcx)
   18001d862:	75 e2                	jne    0x18001d846
   18001d864:	8b 43 3c             	mov    0x3c(%rbx),%eax
   18001d867:	39 41 34             	cmp    %eax,0x34(%rcx)
   18001d86a:	75 da                	jne    0x18001d846
   18001d86c:	48 8b 43 40          	mov    0x40(%rbx),%rax
   18001d870:	48 39 41 38          	cmp    %rax,0x38(%rcx)
   18001d874:	75 d0                	jne    0x18001d846
   18001d876:	48 8b 43 48          	mov    0x48(%rbx),%rax
   18001d87a:	48 39 41 40          	cmp    %rax,0x40(%rcx)
   18001d87e:	75 c6                	jne    0x18001d846
   18001d880:	84 d2                	test   %dl,%dl
   18001d882:	74 0a                	je     0x18001d88e
   18001d884:	48 8b 43 20          	mov    0x20(%rbx),%rax
   18001d888:	48 89 41 18          	mov    %rax,0x18(%rcx)
   18001d88c:	eb 08                	jmp    0x18001d896
   18001d88e:	48 8b 43 18          	mov    0x18(%rbx),%rax
   18001d892:	48 89 41 10          	mov    %rax,0x10(%rcx)
   18001d896:	49 8b c9             	mov    %r9,%rcx
   18001d899:	e8 c2 52 02 00       	call   0x180042b60
   18001d89e:	48 8b cb             	mov    %rbx,%rcx
   18001d8a1:	e8 26 5d 00 00       	call   0x1800235cc
   18001d8a6:	33 c0                	xor    %eax,%eax
   18001d8a8:	48 83 c4 20          	add    $0x20,%rsp
   18001d8ac:	5b                   	pop    %rbx
   18001d8ad:	c3                   	ret
   18001d8ae:	cc                   	int3
   18001d8af:	cc                   	int3
   18001d8b0:	48 89 5c 24 08       	mov    %rbx,0x8(%rsp)
   18001d8b5:	48 89 74 24 10       	mov    %rsi,0x10(%rsp)
   18001d8ba:	57                   	push   %rdi
   18001d8bb:	48 83 ec 20          	sub    $0x20,%rsp
   18001d8bf:	48 83 39 00          	cmpq   $0x0,(%rcx)
   18001d8c3:	49 8b f9             	mov    %r9,%rdi
   18001d8c6:	49 8b d8             	mov    %r8,%rbx
   18001d8c9:	48 8b f2             	mov    %rdx,%rsi
   18001d8cc:	75 05                	jne    0x18001d8d3
   18001d8ce:	e8 f9 5c 00 00       	call   0x1800235cc
   18001d8d3:	48 83 3e 00          	cmpq   $0x0,(%rsi)
   18001d8d7:	75 17                	jne    0x18001d8f0
   18001d8d9:	48 8b ce             	mov    %rsi,%rcx
   18001d8dc:	e8 eb 5c 00 00       	call   0x1800235cc
   18001d8e1:	eb 0d                	jmp    0x18001d8f0
   18001d8e3:	33 d2                	xor    %edx,%edx
   18001d8e5:	48 8b cb             	mov    %rbx,%rcx
   18001d8e8:	e8 33 ff ff ff       	call   0x18001d820
   18001d8ed:	48 8b 1b             	mov    (%rbx),%rbx
   18001d8f0:	4c 8b 44 24 50       	mov    0x50(%rsp),%r8
   18001d8f5:	48 3b 1f             	cmp    (%rdi),%rbx
   18001d8f8:	75 e9                	jne    0x18001d8e3
   18001d8fa:	b2 01                	mov    $0x1,%dl
   18001d8fc:	48 8b cf             	mov    %rdi,%rcx
   18001d8ff:	e8 1c ff ff ff       	call   0x18001d820
   18001d904:	48 8b 5c 24 30       	mov    0x30(%rsp),%rbx
   18001d909:	48 8b 74 24 38       	mov    0x38(%rsp),%rsi
   18001d90e:	33 c0                	xor    %eax,%eax
   18001d910:	48 83 c4 20          	add    $0x20,%rsp
   18001d914:	5f                   	pop    %rdi
   18001d915:	c3                   	ret
   18001d916:	cc                   	int3
   18001d917:	cc                   	int3
   18001d918:	49 83 20 00          	andq   $0x0,(%r8)
   18001d91c:	4c 8b 5c 24 28       	mov    0x28(%rsp),%r11
   18001d921:	49 83 21 00          	andq   $0x0,(%r9)
   18001d925:	49 8b 03             	mov    (%r11),%rax
   18001d928:	4c 8b d1             	mov    %rcx,%r10
   18001d92b:	49 3b c3             	cmp    %r11,%rax
   18001d92e:	74 31                	je     0x18001d961
   18001d930:	4c 3b 50 10          	cmp    0x10(%rax),%r10
   18001d934:	72 09                	jb     0x18001d93f
   18001d936:	4c 3b 50 18          	cmp    0x18(%rax),%r10
   18001d93a:	77 03                	ja     0x18001d93f
   18001d93c:	49 89 00             	mov    %rax,(%r8)
   18001d93f:	49 83 38 00          	cmpq   $0x0,(%r8)
   18001d943:	74 11                	je     0x18001d956
   18001d945:	49 8d 4c 12 ff       	lea    -0x1(%r10,%rdx,1),%rcx
   18001d94a:	48 3b 48 10          	cmp    0x10(%rax),%rcx
   18001d94e:	72 06                	jb     0x18001d956
   18001d950:	48 3b 48 18          	cmp    0x18(%rax),%rcx
   18001d954:	76 05                	jbe    0x18001d95b
   18001d956:	48 8b 00             	mov    (%rax),%rax
   18001d959:	eb d0                	jmp    0x18001d92b
   18001d95b:	49 89 01             	mov    %rax,(%r9)
   18001d95e:	33 c0                	xor    %eax,%eax
   18001d960:	c3                   	ret
   18001d961:	48 b8 0e 00 00 00 00 	movabs $0x800000000000000e,%rax
   18001d968:	00 00 80
   18001d96b:	c3                   	ret
   18001d96c:	b8 01 00 00 00       	mov    $0x1,%eax
   18001d971:	84 c8                	test   %cl,%al
   18001d973:	75 2e                	jne    0x18001d9a3
   18001d975:	b8 02 00 00 00       	mov    $0x2,%eax
   18001d97a:	84 c8                	test   %cl,%al
   18001d97c:	75 25                	jne    0x18001d9a3
   18001d97e:	b8 04 00 00 00       	mov    $0x4,%eax
   18001d983:	84 c8                	test   %cl,%al
   18001d985:	75 1c                	jne    0x18001d9a3
   18001d987:	b8 08 00 00 00       	mov    $0x8,%eax
   18001d98c:	84 c8                	test   %cl,%al
   18001d98e:	75 13                	jne    0x18001d9a3
   18001d990:	b8 ff ff ff ff       	mov    $0xffffffff,%eax
   18001d995:	ba 00 10 00 00       	mov    $0x1000,%edx
   18001d99a:	48 0f ba e1 0c       	bt     $0xc,%rcx
   18001d99f:	48 0f 42 c2          	cmovb  %rdx,%rax
   18001d9a3:	c3                   	ret
   18001d9a4:	4c 89 4c 24 20       	mov    %r9,0x20(%rsp)
   18001d9a9:	44 89 44 24 18       	mov    %r8d,0x18(%rsp)
   18001d9ae:	89 54 24 10          	mov    %edx,0x10(%rsp)
   18001d9b2:	53                   	push   %rbx
   18001d9b3:	55                   	push   %rbp
   18001d9b4:	56                   	push   %rsi
   18001d9b5:	57                   	push   %rdi
   18001d9b6:	41 54                	push   %r12
   18001d9b8:	41 55                	push   %r13
   18001d9ba:	41 57                	push   %r15
   18001d9bc:	48 83 ec 70          	sub    $0x70,%rsp
   18001d9c0:	33 ed                	xor    %ebp,%ebp
   18001d9c2:	49 8b f1             	mov    %r9,%rsi
   18001d9c5:	4c 8b e1             	mov    %rcx,%r12
   18001d9c8:	48 39 ac 24 d0 00 00 	cmp    %rbp,0xd0(%rsp)
   18001d9cf:	00
   18001d9d0:	75 0f                	jne    0x18001d9e1
   18001d9d2:	48 b8 02 00 00 00 00 	movabs $0x8000000000000002,%rax
   18001d9d9:	00 00 80
   18001d9dc:	e9 37 03 00 00       	jmp    0x18001dd18
   18001d9e1:	48 8b c1             	mov    %rcx,%rax
   18001d9e4:	4c 8b ed             	mov    %rbp,%r13
   18001d9e7:	48 89 6c 24 38       	mov    %rbp,0x38(%rsp)
   18001d9ec:	83 e0 20             	and    $0x20,%eax
   18001d9ef:	48 89 44 24 68       	mov    %rax,0x68(%rsp)
   18001d9f4:	74 18                	je     0x18001da0e
   18001d9f6:	48 8d 0d 53 f7 02 00 	lea    0x2f753(%rip),%rcx        # 0x18004d150
   18001d9fd:	e8 12 71 00 00       	call   0x180024b14
   18001da02:	4c 8d 2d 77 f7 02 00 	lea    0x2f777(%rip),%r13        # 0x18004d180
   18001da09:	4c 89 6c 24 38       	mov    %r13,0x38(%rsp)
   18001da0e:	49 8b fc             	mov    %r12,%rdi
   18001da11:	83 e7 40             	and    $0x40,%edi
   18001da14:	48 89 7c 24 60       	mov    %rdi,0x60(%rsp)
   18001da19:	74 18                	je     0x18001da33
   18001da1b:	48 8d 0d 46 f7 02 00 	lea    0x2f746(%rip),%rcx        # 0x18004d168
   18001da22:	e8 ed 70 00 00       	call   0x180024b14
   18001da27:	4c 8d 2d 62 f7 02 00 	lea    0x2f762(%rip),%r13        # 0x18004d190
   18001da2e:	4c 89 6c 24 38       	mov    %r13,0x38(%rsp)
   18001da33:	48 8b 94 24 d0 00 00 	mov    0xd0(%rsp),%rdx
   18001da3a:	00
   18001da3b:	4c 8d 4c 24 30       	lea    0x30(%rsp),%r9
   18001da40:	4c 8d 44 24 40       	lea    0x40(%rsp),%r8
   18001da45:	48 8b ce             	mov    %rsi,%rcx
   18001da48:	4c 89 6c 24 20       	mov    %r13,0x20(%rsp)
   18001da4d:	e8 c6 fe ff ff       	call   0x18001d918
   18001da52:	48 bb 00 00 00 00 00 	movabs $0x8000000000000000,%rbx
   18001da59:	00 00 80
   18001da5c:	48 85 c3             	test   %rax,%rbx
   18001da5f:	74 0f                	je     0x18001da70
   18001da61:	48 bb 03 00 00 00 00 	movabs $0x8000000000000003,%rbx
   18001da68:	00 00 80
   18001da6b:	e9 81 02 00 00       	jmp    0x18001dcf1
   18001da70:	4c 8b 7c 24 40       	mov    0x40(%rsp),%r15
   18001da75:	48 8b 54 24 30       	mov    0x30(%rsp),%rdx
   18001da7a:	49 8b cf             	mov    %r15,%rcx
   18001da7d:	4c 3b 3a             	cmp    (%rdx),%r15
   18001da80:	0f 84 9e 00 00 00    	je     0x18001db24
   18001da86:	41 b9 ff 0f 00 00    	mov    $0xfff,%r9d
   18001da8c:	49 8b c4             	mov    %r12,%rax
   18001da8f:	48 83 e8 20          	sub    $0x20,%rax
   18001da93:	74 78                	je     0x18001db0d
   18001da95:	48 83 e8 02          	sub    $0x2,%rax
   18001da99:	74 6a                	je     0x18001db05
   18001da9b:	48 83 e8 01          	sub    $0x1,%rax
   18001da9f:	74 5f                	je     0x18001db00
   18001daa1:	48 83 e8 01          	sub    $0x1,%rax
   18001daa5:	74 2b                	je     0x18001dad2
   18001daa7:	48 83 e8 1c          	sub    $0x1c,%rax
   18001daab:	74 20                	je     0x18001dacd
   18001daad:	48 83 e8 02          	sub    $0x2,%rax
   18001dab1:	74 52                	je     0x18001db05
   18001dab3:	48 83 f8 01          	cmp    $0x1,%rax
   18001dab7:	75 5f                	jne    0x18001db18
   18001dab9:	39 69 34             	cmp    %ebp,0x34(%rcx)
   18001dabc:	75 54                	jne    0x18001db12
   18001dabe:	48 bb 0e 00 00 00 00 	movabs $0x800000000000000e,%rbx
   18001dac5:	00 00 80
   18001dac8:	e9 24 02 00 00       	jmp    0x18001dcf1
   18001dacd:	39 69 34             	cmp    %ebp,0x34(%rcx)
   18001dad0:	eb 3e                	jmp    0x18001db10
   18001dad2:	4c 8b 84 24 e0 00 00 	mov    0xe0(%rsp),%r8
   18001dad9:	00
   18001dada:	4c 85 c3             	test   %r8,%rbx
   18001dadd:	74 0f                	je     0x18001daee
   18001dadf:	49 85 f1             	test   %rsi,%r9
   18001dae2:	75 63                	jne    0x18001db47
   18001dae4:	4c 85 8c 24 d0 00 00 	test   %r9,0xd0(%rsp)
   18001daeb:	00
   18001daec:	75 59                	jne    0x18001db47
   18001daee:	48 8b 41 20          	mov    0x20(%rcx),%rax
   18001daf2:	49 23 c0             	and    %r8,%rax
   18001daf5:	49 3b c0             	cmp    %r8,%rax
   18001daf8:	0f 85 63 ff ff ff    	jne    0x18001da61
   18001dafe:	eb 18                	jmp    0x18001db18
   18001db00:	39 69 30             	cmp    %ebp,0x30(%rcx)
   18001db03:	eb b7                	jmp    0x18001dabc
   18001db05:	48 39 69 38          	cmp    %rbp,0x38(%rcx)
   18001db09:	74 b3                	je     0x18001dabe
   18001db0b:	eb 0b                	jmp    0x18001db18
   18001db0d:	39 69 30             	cmp    %ebp,0x30(%rcx)
   18001db10:	75 44                	jne    0x18001db56
   18001db12:	48 39 69 38          	cmp    %rbp,0x38(%rcx)
   18001db16:	75 3e                	jne    0x18001db56
   18001db18:	48 8b 09             	mov    (%rcx),%rcx
   18001db1b:	48 3b 0a             	cmp    (%rdx),%rcx
   18001db1e:	0f 85 68 ff ff ff    	jne    0x18001da8c
   18001db24:	48 8d 54 24 50       	lea    0x50(%rsp),%rdx
   18001db29:	48 8d 4c 24 58       	lea    0x58(%rsp),%rcx
   18001db2e:	e8 e9 fb ff ff       	call   0x18001d71c
   18001db33:	48 85 c3             	test   %rax,%rbx
   18001db36:	74 2d                	je     0x18001db65
   18001db38:	48 bb 09 00 00 00 00 	movabs $0x8000000000000009,%rbx
   18001db3f:	00 00 80
   18001db42:	e9 aa 01 00 00       	jmp    0x18001dcf1
   18001db47:	48 bb 02 00 00 00 00 	movabs $0x8000000000000002,%rbx
   18001db4e:	00 00 80
   18001db51:	e9 9b 01 00 00       	jmp    0x18001dcf1
   18001db56:	48 bb 0f 00 00 00 00 	movabs $0x800000000000000f,%rbx
   18001db5d:	00 00 80
   18001db60:	e9 8c 01 00 00       	jmp    0x18001dcf1
   18001db65:	49 83 fc 24          	cmp    $0x24,%r12
   18001db69:	75 74                	jne    0x18001dbdf
   18001db6b:	48 8b 8c 24 e0 00 00 	mov    0xe0(%rsp),%rcx
   18001db72:	00
   18001db73:	e8 f4 fd ff ff       	call   0x18001d96c
   18001db78:	48 8b d8             	mov    %rax,%rbx
   18001db7b:	b8 ff ff ff ff       	mov    $0xffffffff,%eax
   18001db80:	48 3b d8             	cmp    %rax,%rbx
   18001db83:	74 5a                	je     0x18001dbdf
   18001db85:	4c 8b 0d cc e2 02 00 	mov    0x2e2cc(%rip),%r9        # 0x18004be58
   18001db8c:	4c 8d 44 24 48       	lea    0x48(%rsp),%r8
   18001db91:	48 8d 0d a8 25 03 00 	lea    0x325a8(%rip),%rcx        # 0x180050140
   18001db98:	33 d2                	xor    %edx,%edx
   18001db9a:	41 ff 91 40 01 00 00 	call   *0x140(%r9)
   18001dba1:	48 b9 00 00 00 00 00 	movabs $0x8000000000000000,%rcx
   18001dba8:	00 00 80
   18001dbab:	48 85 c1             	test   %rax,%rcx
   18001dbae:	75 a6                	jne    0x18001db56
   18001dbb0:	48 8b 44 24 48       	mov    0x48(%rsp),%rax
   18001dbb5:	4c 8b 84 24 d0 00 00 	mov    0xd0(%rsp),%r8
   18001dbbc:	00
   18001dbbd:	4c 8b cb             	mov    %rbx,%r9
   18001dbc0:	48 8b c8             	mov    %rax,%rcx
   18001dbc3:	48 8b d6             	mov    %rsi,%rdx
   18001dbc6:	ff 50 38             	call   *0x38(%rax)
   18001dbc9:	48 8b d8             	mov    %rax,%rbx
   18001dbcc:	48 b8 00 00 00 00 00 	movabs $0x8000000000000000,%rax
   18001dbd3:	00 00 80
   18001dbd6:	48 85 d8             	test   %rbx,%rax
   18001dbd9:	0f 85 12 01 00 00    	jne    0x18001dcf1
   18001dbdf:	4c 8b 4c 24 30       	mov    0x30(%rsp),%r9
   18001dbe4:	48 8b 74 24 50       	mov    0x50(%rsp),%rsi
   18001dbe9:	48 8b 6c 24 58       	mov    0x58(%rsp),%rbp
   18001dbee:	49 8b ff             	mov    %r15,%rdi
   18001dbf1:	4d 3b 39             	cmp    (%r9),%r15
   18001dbf4:	0f 84 da 00 00 00    	je     0x18001dcd4
   18001dbfa:	4c 8b ac 24 e0 00 00 	mov    0xe0(%rsp),%r13
   18001dc01:	00
   18001dc02:	4d 8b f9             	mov    %r9,%r15
   18001dc05:	4c 8b 8c 24 d0 00 00 	mov    0xd0(%rsp),%r9
   18001dc0c:	00
   18001dc0d:	4c 8b 84 24 c8 00 00 	mov    0xc8(%rsp),%r8
   18001dc14:	00
   18001dc15:	48 8d 57 f8          	lea    -0x8(%rdi),%rdx
   18001dc19:	48 8b cf             	mov    %rdi,%rcx
   18001dc1c:	48 89 74 24 28       	mov    %rsi,0x28(%rsp)
   18001dc21:	48 89 6c 24 20       	mov    %rbp,0x20(%rsp)
   18001dc26:	e8 49 fb ff ff       	call   0x18001d774
   18001dc2b:	4d 8b dc             	mov    %r12,%r11
   18001dc2e:	49 83 eb 20          	sub    $0x20,%r11
   18001dc32:	74 53                	je     0x18001dc87
   18001dc34:	49 83 eb 02          	sub    $0x2,%r11
   18001dc38:	74 41                	je     0x18001dc7b
   18001dc3a:	49 83 eb 01          	sub    $0x1,%r11
   18001dc3e:	74 30                	je     0x18001dc70
   18001dc40:	49 83 eb 01          	sub    $0x1,%r11
   18001dc44:	74 24                	je     0x18001dc6a
   18001dc46:	49 83 eb 1c          	sub    $0x1c,%r11
   18001dc4a:	74 12                	je     0x18001dc5e
   18001dc4c:	49 83 eb 02          	sub    $0x2,%r11
   18001dc50:	74 29                	je     0x18001dc7b
   18001dc52:	49 83 fb 01          	cmp    $0x1,%r11
   18001dc56:	75 61                	jne    0x18001dcb9
   18001dc58:	83 67 34 00          	andl   $0x0,0x34(%rdi)
   18001dc5c:	eb 5b                	jmp    0x18001dcb9
   18001dc5e:	8b 84 24 c0 00 00 00 	mov    0xc0(%rsp),%eax
   18001dc65:	89 47 34             	mov    %eax,0x34(%rdi)
   18001dc68:	eb 4f                	jmp    0x18001dcb9
   18001dc6a:	4c 89 6f 28          	mov    %r13,0x28(%rdi)
   18001dc6e:	eb 49                	jmp    0x18001dcb9
   18001dc70:	83 67 30 00          	andl   $0x0,0x30(%rdi)
   18001dc74:	48 83 67 20 00       	andq   $0x0,0x20(%rdi)
   18001dc79:	eb 3e                	jmp    0x18001dcb9
   18001dc7b:	48 83 67 38 00       	andq   $0x0,0x38(%rdi)
   18001dc80:	48 83 67 40 00       	andq   $0x0,0x40(%rdi)
   18001dc85:	eb 32                	jmp    0x18001dcb9
   18001dc87:	8b 84 24 b8 00 00 00 	mov    0xb8(%rsp),%eax
   18001dc8e:	48 b9 00 00 00 00 00 	movabs $0xc000000000000000,%rcx
   18001dc95:	00 00 c0
   18001dc98:	89 47 30             	mov    %eax,0x30(%rdi)
   18001dc9b:	83 f8 03             	cmp    $0x3,%eax
   18001dc9e:	48 8b 84 24 d8 00 00 	mov    0xd8(%rsp),%rax
   18001dca5:	00
   18001dca6:	74 0a                	je     0x18001dcb2
   18001dca8:	48 b9 00 00 00 00 00 	movabs $0x8000000000000000,%rcx
   18001dcaf:	00 00 80
   18001dcb2:	48 0b c1             	or     %rcx,%rax
   18001dcb5:	48 89 47 20          	mov    %rax,0x20(%rdi)
   18001dcb9:	48 8b 3f             	mov    (%rdi),%rdi
   18001dcbc:	49 3b 3f             	cmp    (%r15),%rdi
   18001dcbf:	0f 85 40 ff ff ff    	jne    0x18001dc05
   18001dcc5:	4c 8b 6c 24 38       	mov    0x38(%rsp),%r13
   18001dcca:	4c 8b 7c 24 40       	mov    0x40(%rsp),%r15
   18001dccf:	4c 8b 4c 24 30       	mov    0x30(%rsp),%r9
   18001dcd4:	4d 8b c7             	mov    %r15,%r8
   18001dcd7:	48 8b d6             	mov    %rsi,%rdx
   18001dcda:	48 8b cd             	mov    %rbp,%rcx
   18001dcdd:	4c 89 6c 24 20       	mov    %r13,0x20(%rsp)
   18001dce2:	e8 c9 fb ff ff       	call   0x18001d8b0
   18002323b:	48 c1 e3 07          	shl    $0x7,%rbx
   18002323f:	4c 8b f0             	mov    %rax,%r14
   180023242:	4c 8d 3c 0b          	lea    (%rbx,%rcx,1),%r15
   180023246:	eb 20                	jmp    0x180023268
   180023248:	4a 8d 54 31 08       	lea    0x8(%rcx,%r14,1),%rdx
   18002324d:	42 c7 04 31 70 66 72 	movl   $0x30726670,(%rcx,%r14,1)
   180023254:	30
   180023255:	42 89 74 31 04       	mov    %esi,0x4(%rcx,%r14,1)
   18002325a:	48 8b cd             	mov    %rbp,%rcx
   18002325d:	e8 22 f9 01 00       	call   0x180042b84
   180023262:	49 8b cf             	mov    %r15,%rcx
   180023265:	4c 03 fb             	add    %rbx,%r15
   180023268:	4d 3b fd             	cmp    %r13,%r15
   18002326b:	76 db                	jbe    0x180023248
   18002326d:	48 ff ce             	dec    %rsi
   180023270:	48 83 c3 80          	add    $0xffffffffffffff80,%rbx
   180023274:	48 83 ed 10          	sub    $0x10,%rbp
   180023278:	49 3b cd             	cmp    %r13,%rcx
   18002327b:	72 c5                	jb     0x180023242
   18002327d:	48 8b b4 24 98 00 00 	mov    0x98(%rsp),%rsi
   180023284:	00
   180023285:	48 8b 6c 24 20       	mov    0x20(%rsp),%rbp
   18002328a:	44 8b bc 24 80 00 00 	mov    0x80(%rsp),%r15d
   180023291:	00
   180023292:	48 03 f6             	add    %rsi,%rsi
   180023295:	49 8b 5c f4 18       	mov    0x18(%r12,%rsi,8),%rbx
   18002329a:	48 83 eb 08          	sub    $0x8,%rbx
   18002329e:	48 8d 4b 08          	lea    0x8(%rbx),%rcx
   1800232a2:	e8 b9 f8 01 00       	call   0x180042b60
   1800232a7:	48 3b df             	cmp    %rdi,%rbx
   1800232aa:	74 24                	je     0x1800232d0
   1800232ac:	c7 03 70 68 64 30    	movl   $0x30646870,(%rbx)
   1800232b2:	89 6b 04             	mov    %ebp,0x4(%rbx)
   1800232b5:	44 89 7b 08          	mov    %r15d,0x8(%rbx)
   1800232b9:	8b c5                	mov    %ebp,%eax
   1800232bb:	48 8d 7b 18          	lea    0x18(%rbx),%rdi
   1800232bf:	c7 44 18 f8 70 74 61 	movl   $0x6c617470,-0x8(%rax,%rbx,1)
   1800232c6:	6c
   1800232c7:	89 6c 18 fc          	mov    %ebp,-0x4(%rax,%rbx,1)
   1800232cb:	49 01 6c 24 08       	add    %rbp,0x8(%r12)
   1800232d0:	48 8b c7             	mov    %rdi,%rax
   1800232d3:	48 83 c4 38          	add    $0x38,%rsp
   1800232d7:	41 5f                	pop    %r15
   1800232d9:	41 5e                	pop    %r14
   1800232db:	41 5d                	pop    %r13
   1800232dd:	41 5c                	pop    %r12
   1800232df:	5f                   	pop    %rdi
   1800232e0:	5e                   	pop    %rsi
   1800232e1:	5d                   	pop    %rbp
   1800232e2:	5b                   	pop    %rbx
   1800232e3:	c3                   	ret
   1800232e4:	48 89 5c 24 08       	mov    %rbx,0x8(%rsp)
   1800232e9:	48 89 6c 24 10       	mov    %rbp,0x10(%rsp)
   1800232ee:	48 89 74 24 18       	mov    %rsi,0x18(%rsp)
   1800232f3:	57                   	push   %rdi
   1800232f4:	48 83 ec 20          	sub    $0x20,%rsp
   1800232f8:	48 63 d9             	movslq %ecx,%rbx
   1800232fb:	85 c9                	test   %ecx,%ecx
   1800232fd:	78 1b                	js     0x18002331a
   1800232ff:	83 fb 0e             	cmp    $0xe,%ebx
   180023302:	7d 4d                	jge    0x180023351
   180023304:	48 8b c3             	mov    %rbx,%rax
   180023307:	48 8d 0d 52 e8 02 00 	lea    0x2e852(%rip),%rcx        # 0x180051b60
   18002330e:	48 69 c0 28 02 00 00 	imul   $0x228,%rax,%rax
   180023315:	48 03 c1             	add    %rcx,%rax
   180023318:	eb 7f                	jmp    0x180023399
   18002331a:	48 8b 05 6f 06 03 00 	mov    0x3066f(%rip),%rax        # 0x180053990
   180023321:	48 8d 2d 68 06 03 00 	lea    0x30668(%rip),%rbp        # 0x180053990
   180023328:	eb 0b                	jmp    0x180023335
   18002332a:	39 98 f8 fd ff ff    	cmp    %ebx,-0x208(%rax)
   180023330:	74 23                	je     0x180023355
   180023332:	48 8b 00             	mov    (%rax),%rax
   180023335:	48 3b c5             	cmp    %rbp,%rax
   180023338:	75 f0                	jne    0x18002332a
   18002333a:	ba 28 02 00 00       	mov    $0x228,%edx
   18002333f:	b9 04 00 00 00       	mov    $0x4,%ecx
   180023344:	e8 13 fe ff ff       	call   0x18002315c
   180023349:	48 8b f8             	mov    %rax,%rdi
   18002334c:	48 85 c0             	test   %rax,%rax
   18002334f:	75 0c                	jne    0x18002335d
   180023351:	33 c0                	xor    %eax,%eax
   180023353:	eb 44                	jmp    0x180023399
   180023355:	48 05 e8 fd ff ff    	add    $0xfffffffffffffde8,%rax
   18002335b:	eb 3c                	jmp    0x180023399
   18002335d:	48 83 60 08 00       	andq   $0x0,0x8(%rax)
   180023362:	89 58 10             	mov    %ebx,0x10(%rax)
   180023365:	48 c7 00 70 6c 73 74 	movq   $0x74736c70,(%rax)
   18002336c:	48 8d 58 18          	lea    0x18(%rax),%rbx
   180023370:	be 20 00 00 00       	mov    $0x20,%esi
   180023375:	48 8b cb             	mov    %rbx,%rcx
   180023378:	e8 d3 f7 01 00       	call   0x180042b50
   18002337d:	48 83 c3 10          	add    $0x10,%rbx
   180023381:	48 83 ee 01          	sub    $0x1,%rsi
   180023385:	75 ee                	jne    0x180023375
   180023387:	48 8d 97 18 02 00 00 	lea    0x218(%rdi),%rdx
   18002338e:	48 8b cd             	mov    %rbp,%rcx
   180023391:	e8 ee f7 01 00       	call   0x180042b84
   180023396:	48 8b c7             	mov    %rdi,%rax
   180023399:	48 8b 5c 24 30       	mov    0x30(%rsp),%rbx
   18002339e:	48 8b 6c 24 38       	mov    0x38(%rsp),%rbp
   1800233a3:	48 8b 74 24 40       	mov    0x40(%rsp),%rsi
   1800233a8:	48 83 c4 20          	add    $0x20,%rsp
   1800233ac:	5f                   	pop    %rdi
   1800233ad:	c3                   	ret
   1800233ae:	cc                   	int3
   1800233af:	cc                   	int3
   1800233b0:	e8 4b 43 13 00       	call   0x180157700
   1800233b5:	48 89 74 24 10       	mov    %rsi,0x10(%rsp)
   1800233ba:	57                   	push   %rdi
   1800233bb:	48 83 ec 20          	sub    $0x20,%rsp
   1800233bf:	83 f9 0e             	cmp    $0xe,%ecx
   1800233c2:	49 8b f8             	mov    %r8,%rdi
   1800233c5:	48 8b f2             	mov    %rdx,%rsi
   1800233c8:	8b d9                	mov    %ecx,%ebx
   1800233ca:	7c 08                	jl     0x1800233d4
   1800233cc:	81 f9 ff ff ff 7f    	cmp    $0x7fffffff,%ecx
   1800233d2:	7e 05                	jle    0x1800233d9
   1800233d4:	83 f9 07             	cmp    $0x7,%ecx
   1800233d7:	75 0c                	jne    0x1800233e5
   1800233d9:	48 b8 02 00 00 00 00 	movabs $0x8000000000000002,%rax
   1800233e0:	00 00 80
   1800233e3:	eb 65                	jmp    0x18002344a
   1800233e5:	4d 85 c0             	test   %r8,%r8
   1800233e8:	74 ef                	je     0x1800233d9
   1800233ea:	49 83 20 00          	andq   $0x0,(%r8)
   1800233ee:	b8 df ff ff ff       	mov    $0xffffffdf,%eax
   1800233f3:	48 3b d0             	cmp    %rax,%rdx
   1800233f6:	76 0c                	jbe    0x180023404
   1800233f8:	48 b8 09 00 00 00 00 	movabs $0x8000000000000009,%rax
   1800233ff:	00 00 80
   180023402:	eb 46                	jmp    0x18002344a
   180023404:	48 8d 0d b5 b2 02 00 	lea    0x2b2b5(%rip),%rcx        # 0x18004e6c0
   18002340b:	e8 d0 16 00 00       	call   0x180024ae0
   180023410:	48 b9 00 00 00 00 00 	movabs $0x8000000000000000,%rcx
   180023417:	00 00 80
   18002341a:	48 85 c1             	test   %rax,%rcx
   18002341d:	75 d9                	jne    0x1800233f8
   18002341f:	48 8b d6             	mov    %rsi,%rdx
   180023422:	8b cb                	mov    %ebx,%ecx
   180023424:	e8 33 fd ff ff       	call   0x18002315c
   180023429:	48 89 07             	mov    %rax,(%rdi)
   18002342c:	e8 df 01 00 00       	call   0x180023610
   180023431:	4c 8b 1f             	mov    (%rdi),%r11
   180023434:	49 f7 db             	neg    %r11
   180023437:	48 b9 09 00 00 00 00 	movabs $0x8000000000000009,%rcx
   18002343e:	00 00 80
   180023441:	48 1b c0             	sbb    %rax,%rax
   180023444:	48 f7 d0             	not    %rax
   180023447:	48 23 c1             	and    %rcx,%rax
   18002344a:	48 8b 5c 24 30       	mov    0x30(%rsp),%rbx
   18002344f:	48 8b 74 24 38       	mov    0x38(%rsp),%rsi
   180023454:	48 83 c4 20          	add    $0x20,%rsp
   180023458:	5f                   	pop    %rdi
   180023459:	c3                   	ret
   18002345a:	cc                   	int3
   18002345b:	cc                   	int3
   18002345c:	48 89 5c 24 08       	mov    %rbx,0x8(%rsp)
   180023461:	48 89 6c 24 10       	mov    %rbp,0x10(%rsp)
   180023466:	48 89 74 24 18       	mov    %rsi,0x18(%rsp)
   18002346b:	57                   	push   %rdi
   18002346c:	48 83 ec 20          	sub    $0x20,%rsp
   180023470:	48 8d 59 e8          	lea    -0x18(%rcx),%rbx
   180023474:	81 3b 70 68 64 30    	cmpl   $0x30646870,(%rbx)
   18002347a:	74 0f                	je     0x18002348b
   18002347c:	48 b8 02 00 00 00 00 	movabs $0x8000000000000002,%rax
   180023483:	00 00 80
   180023486:	e9 2a 01 00 00       	jmp    0x1800235b5
   18002348b:	8b 7b 04             	mov    0x4(%rbx),%edi
   18002348e:	81 7c 1f f8 70 74 61 	cmpl   $0x6c617470,-0x8(%rdi,%rbx,1)
   180023495:	6c
   180023496:	75 e4                	jne    0x18002347c
   180023498:	3b 7c 1f fc          	cmp    -0x4(%rdi,%rbx,1),%edi
   18002349c:	75 de                	jne    0x18002347c
   18002349e:	8b 4b 08             	mov    0x8(%rbx),%ecx
   1800234a1:	e8 3e fe ff ff       	call   0x1800232e4
   1800234a6:	33 c9                	xor    %ecx,%ecx
   1800234a8:	48 8b f0             	mov    %rax,%rsi
   1800234ab:	48 3b c1             	cmp    %rcx,%rax
   1800234ae:	74 cc                	je     0x18002347c
   1800234b0:	48 29 78 08          	sub    %rdi,0x8(%rax)
   1800234b4:	48 8b c7             	mov    %rdi,%rax
   1800234b7:	48 c1 e8 07          	shr    $0x7,%rax
   1800234bb:	48 83 f8 20          	cmp    $0x20,%rax
   1800234bf:	72 19                	jb     0x1800234da
   1800234c1:	48 f7 c7 ff 0f 00 00 	test   $0xfff,%rdi
   1800234c8:	48 8b d1             	mov    %rcx,%rdx
   1800234cb:	0f 95 c2             	setne  %dl
   1800234ce:	48 c1 ef 0c          	shr    $0xc,%rdi
   1800234d2:	48 03 d7             	add    %rdi,%rdx
   1800234d5:	e9 ae 00 00 00       	jmp    0x180023588
   1800234da:	89 43 04             	mov    %eax,0x4(%rbx)
   1800234dd:	48 03 c0             	add    %rax,%rax
   1800234e0:	48 8d 53 08          	lea    0x8(%rbx),%rdx
   1800234e4:	48 8d 4c c6 18       	lea    0x18(%rsi,%rax,8),%rcx
   1800234e9:	bf 70 66 72 30       	mov    $0x30726670,%edi
   1800234ee:	89 3b                	mov    %edi,(%rbx)
   1800234f0:	e8 8f f6 01 00       	call   0x180042b84
   1800234f5:	48 81 e3 00 f0 ff ff 	and    $0xfffffffffffff000,%rbx
   1800234fc:	39 3b                	cmp    %edi,(%rbx)
   1800234fe:	0f 85 8c 00 00 00    	jne    0x180023590
   180023504:	8b 7b 04             	mov    0x4(%rbx),%edi
   180023507:	45 33 c9             	xor    %r9d,%r9d
   18002350a:	b1 01                	mov    $0x1,%cl
   18002350c:	48 8d 47 01          	lea    0x1(%rdi),%rax
   180023510:	49 8b d1             	mov    %r9,%rdx
   180023513:	41 ba 00 10 00 00    	mov    $0x1000,%r10d
   180023519:	48 c1 e0 07          	shl    $0x7,%rax
   18002351d:	41 3a c9             	cmp    %r9b,%cl
   180023520:	74 71                	je     0x180023593
   180023522:	4c 8d 04 10          	lea    (%rax,%rdx,1),%r8
   180023526:	eb 14                	jmp    0x18002353c
   180023528:	81 3c 1a 70 66 72 30 	cmpl   $0x30726670,(%rdx,%rbx,1)
   18002352f:	0f b6 c9             	movzbl %cl,%ecx
   180023532:	49 8b d0             	mov    %r8,%rdx
   180023535:	41 0f 45 c9          	cmovne %r9d,%ecx
   180023539:	4c 03 c0             	add    %rax,%r8
   18002353c:	4d 3b c2             	cmp    %r10,%r8
   18002353f:	76 e7                	jbe    0x180023528
   180023541:	48 83 c0 80          	add    $0xffffffffffffff80,%rax
   180023545:	49 3b d2             	cmp    %r10,%rdx
   180023548:	72 d3                	jb     0x18002351d
   18002354a:	41 3a c9             	cmp    %r9b,%cl
   18002354d:	74 44                	je     0x180023593
   18002354f:	48 ff c7             	inc    %rdi
   180023552:	49 8b c1             	mov    %r9,%rax
   180023555:	48 c1 e7 07          	shl    $0x7,%rdi
   180023559:	48 8d 2c 07          	lea    (%rdi,%rax,1),%rbp
   18002355d:	eb 16                	jmp    0x180023575
   18002355f:	48 8d 4c 03 08       	lea    0x8(%rbx,%rax,1),%rcx
   180023564:	e8 f7 f5 01 00       	call   0x180042b60
   180023569:	48 8b c5             	mov    %rbp,%rax
   18002356c:	48 03 ef             	add    %rdi,%rbp
   18002356f:	41 ba 00 10 00 00    	mov    $0x1000,%r10d
   180023575:	49 3b ea             	cmp    %r10,%rbp
   180023578:	76 e5                	jbe    0x18002355f
   18002357a:	48 83 c7 80          	add    $0xffffffffffffff80,%rdi
   18002357e:	49 3b c2             	cmp    %r10,%rax
   180023581:	72 d6                	jb     0x180023559
   180023583:	ba 01 00 00 00       	mov    $0x1,%edx
   180023588:	48 8b cb             	mov    %rbx,%rcx
   18002358b:	e8 60 0d 00 00       	call   0x1800242f0
   180023590:	45 33 c9             	xor    %r9d,%r9d
   180023593:	44 39 4e 10          	cmp    %r9d,0x10(%rsi)
   180023597:	7d 1a                	jge    0x1800235b3
   180023599:	4c 39 4e 08          	cmp    %r9,0x8(%rsi)
   18002359d:	75 14                	jne    0x1800235b3
   18002359f:	48 8d 8e 18 02 00 00 	lea    0x218(%rsi),%rcx
   1800235a6:	e8 b5 f5 01 00       	call   0x180042b60
   1800235ab:	48 8b ce             	mov    %rsi,%rcx
   1800235ae:	e8 a9 fe ff ff       	call   0x18002345c
   1800235b3:	33 c0                	xor    %eax,%eax
   1800235b5:	48 8b 5c 24 30       	mov    0x30(%rsp),%rbx
   1800235ba:	48 8b 6c 24 38       	mov    0x38(%rsp),%rbp
   1800235bf:	48 8b 74 24 40       	mov    0x40(%rsp),%rsi
   1800235c4:	48 83 c4 20          	add    $0x20,%rsp
   1800235c8:	5f                   	pop    %rdi
   1800235c9:	c3                   	ret
   1800235ca:	cc                   	int3
   1800235cb:	cc                   	int3
   1800235cc:	40 53                	rex push %rbx
   1800235ce:	48 83 ec 20          	sub    $0x20,%rsp
   1800235d2:	48 8b d9             	mov    %rcx,%rbx
   1800235d5:	48 85 c9             	test   %rcx,%rcx
   1800235d8:	75 0c                	jne    0x1800235e6
   1800235da:	48 b8 02 00 00 00 00 	movabs $0x8000000000000002,%rax
   1800235e1:	00 00 80
   1800235e4:	eb 18                	jmp    0x1800235fe
   1800235e6:	e8 19 00 00 00       	call   0x180023604
   1800235eb:	48 8b cb             	mov    %rbx,%rcx
   1800235ee:	e8 69 fe ff ff       	call   0x18002345c
   1800235f3:	48 8b d8             	mov    %rax,%rbx
   1800235f6:	e8 15 00 00 00       	call   0x180023610
   1800235fb:	48 8b c3             	mov    %rbx,%rax
   1800235fe:	48 83 c4 20          	add    $0x20,%rsp
   180023602:	5b                   	pop    %rbx
   180023603:	c3                   	ret
   180023604:	48 8d 0d b5 b0 02 00 	lea    0x2b0b5(%rip),%rcx        # 0x18004e6c0
   18002360b:	e9 04 15 00 00       	jmp    0x180024b14
   180023610:	48 8d 0d a9 b0 02 00 	lea    0x2b0a9(%rip),%rcx        # 0x18004e6c0
   180023617:	e9 00 15 00 00       	jmp    0x180024b1c
   18002361c:	48 89 5c 24 08       	mov    %rbx,0x8(%rsp)
   180023621:	57                   	push   %rdi
   180023622:	48 83 ec 20          	sub    $0x20,%rsp
   180023626:	48 8b d9             	mov    %rcx,%rbx
   180023629:	48 83 c1 08          	add    $0x8,%rcx
   18002362d:	e8 2e f5 01 00       	call   0x180042b60
   180023632:	48 83 63 08 00       	andq   $0x0,0x8(%rbx)
   180023637:	80 7b 18 00          	cmpb   $0x0,0x18(%rbx)
   18002363b:	74 10                	je     0x18002364d
   18002363d:	48 8d 53 08          	lea    0x8(%rbx),%rdx
   180023641:	48 8d 0d 68 9f 02 00 	lea    0x29f68(%rip),%rcx        # 0x18004d5b0
   180023648:	e8 23 f5 01 00       	call   0x180042b70
   18002364d:	48 8b 5c 24 30       	mov    0x30(%rsp),%rbx
   180023652:	48 83 c4 20          	add    $0x20,%rsp
   180023656:	5f                   	pop    %rdi
   180023657:	c3                   	ret
   180023658:	48 89 5c 24 08       	mov    %rbx,0x8(%rsp)
   18002365d:	48 89 6c 24 10       	mov    %rbp,0x10(%rsp)
   180023662:	48 89 74 24 18       	mov    %rsi,0x18(%rsp)
   180023667:	57                   	push   %rdi
   180023668:	48 83 ec 20          	sub    $0x20,%rsp
   18002366c:	be ff 0f 00 00       	mov    $0xfff,%esi
   180023671:	49 8b f9             	mov    %r9,%rdi
   180023674:	4c 8b c2             	mov    %rdx,%r8
   180023677:	48 8b d9             	mov    %rcx,%rbx
   18002367a:	48 3b ce             	cmp    %rsi,%rcx
   18002367d:	0f 82 a0 00 00 00    	jb     0x180023723
   180023683:	33 ed                	xor    %ebp,%ebp
   180023685:	48 3b d5             	cmp    %rbp,%rdx
   180023688:	0f 84 95 00 00 00    	je     0x180023723
   18002368e:	48 8b c1             	mov    %rcx,%rax
   180023691:	48 23 c6             	and    %rsi,%rax
   180023694:	48 3b c6             	cmp    %rsi,%rax
   180023697:	74 0a                	je     0x1800236a3
   180023699:	48 81 c3 00 f0 ff ff 	add    $0xfffffffffffff000,%rbx
   1800236a0:	48 0b de             	or     %rsi,%rbx
   1800236a3:	ba 0c 00 00 00       	mov    $0xc,%edx
   1800236a8:	49 8b c8             	mov    %r8,%rcx
   1800236ab:	e8 a0 bf ff ff       	call   0x18001f650
   1800236b0:	48 8b 15 21 b0 02 00 	mov    0x2b021(%rip),%rdx        # 0x18004e6d8
   1800236b7:	48 8b cd             	mov    %rbp,%rcx
   1800236ba:	4c 8d 15 17 b0 02 00 	lea    0x2b017(%rip),%r10        # 0x18004e6d8
   1800236c1:	41 b8 01 00 00 00    	mov    $0x1,%r8d
   1800236c7:	4c 8b d8             	mov    %rax,%r11
   1800236ca:	eb 40                	jmp    0x18002370c
   1800236cc:	83 7a 14 07          	cmpl   $0x7,0x14(%rdx)
   1800236d0:	75 37                	jne    0x180023709
   1800236d2:	48 8b 42 20          	mov    0x20(%rdx),%rax
   1800236d6:	48 39 5a 18          	cmp    %rbx,0x18(%rdx)
   1800236da:	73 2d                	jae    0x180023709
   1800236dc:	48 3b c3             	cmp    %rbx,%rax
   1800236df:	4c 8d 4f ff          	lea    -0x1(%rdi),%r9
   1800236e3:	48 0f 43 c3          	cmovae %rbx,%rax
   1800236e7:	49 f7 d1             	not    %r9
   1800236ea:	48 ff c0             	inc    %rax
   1800236ed:	4c 23 c8             	and    %rax,%r9
   1800236f0:	4d 2b c8             	sub    %r8,%r9
   1800236f3:	49 8b c1             	mov    %r9,%rax
   1800236f6:	48 2b 42 18          	sub    0x18(%rdx),%rax
   1800236fa:	49 03 c0             	add    %r8,%rax
   1800236fd:	49 3b c3             	cmp    %r11,%rax
   180023700:	72 07                	jb     0x180023709
   180023702:	4c 3b c9             	cmp    %rcx,%r9
   180023705:	49 0f 47 c9          	cmova  %r9,%rcx
   180023709:	48 8b 12             	mov    (%rdx),%rdx
   18002370c:	49 3b d2             	cmp    %r10,%rdx
   18002370f:	75 bb                	jne    0x1800236cc
   180023711:	4d 2b c3             	sub    %r11,%r8
   180023714:	49 03 c8             	add    %r8,%rcx
   180023717:	48 85 ce             	test   %rcx,%rsi
   18002371a:	48 0f 45 cd          	cmovne %rbp,%rcx
   18002371e:	48 8b c1             	mov    %rcx,%rax
   180023721:	eb 02                	jmp    0x180023725
   180023723:	33 c0                	xor    %eax,%eax
   180023725:	48 8b 5c 24 30       	mov    0x30(%rsp),%rbx
   18002372a:	48 8b 6c 24 38       	mov    0x38(%rsp),%rbp
   18002372f:	48 8b 74 24 40       	mov    0x40(%rsp),%rsi
   180023734:	48 83 c4 20          	add    $0x20,%rsp
   180023738:	5f                   	pop    %rdi
   180023739:	c3                   	ret
   18002373a:	cc                   	int3
   18002373b:	cc                   	int3
   18002373c:	48 8b c4             	mov    %rsp,%rax
   18002373f:	48 89 58 08          	mov    %rbx,0x8(%rax)
   180023743:	48 89 68 10          	mov    %rbp,0x10(%rax)
   180023747:	48 89 70 20          	mov    %rsi,0x20(%rax)
   18002374b:	4c 89 40 18          	mov    %r8,0x18(%rax)
   18002374f:	57                   	push   %rdi
   180023750:	41 54                	push   %r12
   180023752:	41 57                	push   %r15
   180023754:	48 83 ec 20          	sub    $0x20,%rsp
   180023758:	49 8b f1             	mov    %r9,%rsi
   18002375b:	4d 8b e0             	mov    %r8,%r12
   18002375e:	48 8b da             	mov    %rdx,%rbx
   180023761:	48 8b e9             	mov    %rcx,%rbp
   180023764:	48 85 c9             	test   %rcx,%rcx
   180023767:	75 0f                	jne    0x180023778
   180023769:	48 b8 02 00 00 00 00 	movabs $0x8000000000000002,%rax
   180023770:	00 00 80
   180023773:	e9 7c 02 00 00       	jmp    0x1800239f4
   180023778:	e8 27 9f ff ff       	call   0x18001d6a4
   18002377d:	48 8b 0d fc 99 02 00 	mov    0x299fc(%rip),%rcx        # 0x18004d180
   180023784:	33 ff                	xor    %edi,%edi
   180023786:	48 8d 15 f3 99 02 00 	lea    0x299f3(%rip),%rdx        # 0x18004d180
   18002378d:	49 b8 00 00 00 00 00 	movabs $0x8000000000000000,%r8
   180023794:	00 00 80
   180023797:	eb 1e                	jmp    0x1800237b7
   180023799:	83 79 30 01          	cmpl   $0x1,0x30(%rcx)
   18002379d:	74 06                	je     0x1800237a5
   18002379f:	83 79 30 03          	cmpl   $0x3,0x30(%rcx)
   1800237a3:	75 0f                	jne    0x1800237b4
   1800237a5:	48 8b 41 28          	mov    0x28(%rcx),%rax
   1800237a9:	49 23 c0             	and    %r8,%rax
   1800237ac:	49 3b c0             	cmp    %r8,%rax
   1800237af:	75 03                	jne    0x1800237b4
   1800237b1:	48 ff c7             	inc    %rdi
   1800237b4:	48 8b 09             	mov    (%rcx),%rcx
   1800237b7:	48 3b ca             	cmp    %rdx,%rcx
   1800237ba:	75 dd                	jne    0x180023799
   1800237bc:	48 85 f6             	test   %rsi,%rsi
   1800237bf:	74 07                	je     0x1800237c8
   1800237c1:	48 c7 06 30 00 00 00 	movq   $0x30,(%rsi)
   1800237c8:	48 8b 44 24 60       	mov    0x60(%rsp),%rax
   1800237cd:	48 85 c0             	test   %rax,%rax
   1800237d0:	74 06                	je     0x1800237d8
   1800237d2:	c7 00 01 00 00 00    	movl   $0x1,(%rax)
   1800237d8:	48 8d 0d e1 ae 02 00 	lea    0x2aee1(%rip),%rcx        # 0x18004e6c0
   1800237df:	e8 30 13 00 00       	call   0x180024b14
   1800237e4:	48 8b 05 ed ae 02 00 	mov    0x2aeed(%rip),%rax        # 0x18004e6d8
   1800237eb:	48 8d 34 7f          	lea    (%rdi,%rdi,2),%rsi
   1800237ef:	48 c1 e6 04          	shl    $0x4,%rsi
   1800237f3:	4c 8d 3d de ae 02 00 	lea    0x2aede(%rip),%r15        # 0x18004e6d8
   1800237fa:	eb 07                	jmp    0x180023803
   1800237fc:	48 8b 00             	mov    (%rax),%rax
   1800237ff:	48 83 c6 30          	add    $0x30,%rsi
   180023803:	49 3b c7             	cmp    %r15,%rax
   180023806:	75 f4                	jne    0x1800237fc
   180023808:	48 39 75 00          	cmp    %rsi,0x0(%rbp)
   18002380c:	73 0f                	jae    0x18002381d
   18002380e:	48 bb 05 00 00 00 00 	movabs $0x8000000000000005,%rbx
   180023815:	00 00 80
   180023818:	e9 af 01 00 00       	jmp    0x1800239cc
   18002381d:	48 85 db             	test   %rbx,%rbx
   180023820:	75 0f                	jne    0x180023831
   180023822:	48 bb 02 00 00 00 00 	movabs $0x8000000000000002,%rbx
   180023829:	00 00 80
   18002382c:	e9 9b 01 00 00       	jmp    0x1800239cc
   180023831:	48 8b d6             	mov    %rsi,%rdx
   180023834:	48 8b cb             	mov    %rbx,%rcx
   180023837:	e8 f4 bd ff ff       	call   0x18001f630
   18002383c:	48 8b 3d 95 ae 02 00 	mov    0x2ae95(%rip),%rdi        # 0x18004e6d8
   180023843:	49 3b ff             	cmp    %r15,%rdi
   180023846:	0f 84 ad 00 00 00    	je     0x1800238f9
   18002384c:	49 bc 00 00 00 00 00 	movabs $0x8000000000000000,%r12
   180023853:	00 00 80
   180023856:	8b 47 14             	mov    0x14(%rdi),%eax
   180023859:	ba 0c 00 00 00       	mov    $0xc,%edx
   18002385e:	89 03                	mov    %eax,(%rbx)
   180023860:	48 8b 47 18          	mov    0x18(%rdi),%rax
   180023864:	48 89 43 08          	mov    %rax,0x8(%rbx)
   180023868:	48 8b 47 28          	mov    0x28(%rdi),%rax
   18002386c:	48 89 43 10          	mov    %rax,0x10(%rbx)
   180023870:	48 8b 4f 20          	mov    0x20(%rdi),%rcx
   180023874:	48 2b 4f 18          	sub    0x18(%rdi),%rcx
   180023878:	48 ff c1             	inc    %rcx
   18002387b:	e8 c8 bd ff ff       	call   0x18001f648
   180023880:	83 3b 07             	cmpl   $0x7,(%rbx)
   180023883:	48 89 43 18          	mov    %rax,0x18(%rbx)
   180023887:	75 36                	jne    0x1800238bf
   180023889:	33 d2                	xor    %edx,%edx
   18002388b:	48 8d 0d 46 9d 02 00 	lea    0x29d46(%rip),%rcx        # 0x18004d5d8
   180023892:	80 79 10 00          	cmpb   $0x0,0x10(%rcx)
   180023896:	74 1c                	je     0x1800238b4
   180023898:	48 83 39 00          	cmpq   $0x0,(%rcx)
   18002389c:	76 16                	jbe    0x1800238b4
   18002389e:	48 8b 41 e8          	mov    -0x18(%rcx),%rax
   1800238a2:	48 39 47 18          	cmp    %rax,0x18(%rdi)
   1800238a6:	72 0c                	jb     0x1800238b4
   1800238a8:	48 8b 41 f0          	mov    -0x10(%rcx),%rax
   1800238ac:	48 39 47 20          	cmp    %rax,0x20(%rdi)
   1800238b0:	77 02                	ja     0x1800238b4
   1800238b2:	89 13                	mov    %edx,(%rbx)
   1800238b4:	ff c2                	inc    %edx
   1800238b6:	48 83 c1 30          	add    $0x30,%rcx
   1800238ba:	83 fa 0e             	cmp    $0xe,%edx
   1800238bd:	7c d3                	jl     0x180023892
   1800238bf:	8b 03                	mov    (%rbx),%eax
   1800238c1:	48 8b 57 30          	mov    0x30(%rdi),%rdx
   1800238c5:	48 8d 0c 40          	lea    (%rax,%rax,2),%rcx
   1800238c9:	48 8d 05 19 9d 02 00 	lea    0x29d19(%rip),%rax        # 0x18004d5e9
   1800238d0:	48 89 53 20          	mov    %rdx,0x20(%rbx)
   1800238d4:	48 03 c9             	add    %rcx,%rcx
   1800238d7:	80 3c c8 00          	cmpb   $0x0,(%rax,%rcx,8)
   1800238db:	74 07                	je     0x1800238e4
   1800238dd:	49 0b d4             	or     %r12,%rdx
   1800238e0:	48 89 53 20          	mov    %rdx,0x20(%rbx)
   1800238e4:	48 8b 3f             	mov    (%rdi),%rdi
   1800238e7:	48 83 c3 30          	add    $0x30,%rbx
   1800238eb:	49 3b ff             	cmp    %r15,%rdi
   1800238ee:	0f 85 62 ff ff ff    	jne    0x180023856
   1800238f4:	4c 8b 64 24 50       	mov    0x50(%rsp),%r12
   1800238f9:	48 8b 3d 80 98 02 00 	mov    0x29880(%rip),%rdi        # 0x18004d180
   180023900:	48 8d 0d 79 98 02 00 	lea    0x29879(%rip),%rcx        # 0x18004d180
   180023907:	48 3b f9             	cmp    %rcx,%rdi
   18002390a:	0f 84 ba 00 00 00    	je     0x1800239ca
   180023910:	49 bf 00 00 00 00 00 	movabs $0x4000000000000000,%r15
   180023917:	00 00 40
   18002391a:	49 bc 00 00 00 00 00 	movabs $0x8000000000000000,%r12
   180023921:	00 00 80
   180023924:	83 7f 30 01          	cmpl   $0x1,0x30(%rdi)
   180023928:	74 0a                	je     0x180023934
   18002392a:	83 7f 30 03          	cmpl   $0x3,0x30(%rdi)
   18002392e:	0f 85 85 00 00 00    	jne    0x1800239b9
   180023934:	48 8b 47 28          	mov    0x28(%rdi),%rax
   180023938:	49 23 c4             	and    %r12,%rax
   18002393b:	49 3b c4             	cmp    %r12,%rax
   18002393e:	75 79                	jne    0x1800239b9
   180023940:	48 8b 47 10          	mov    0x10(%rdi),%rax
   180023944:	48 83 63 10 00       	andq   $0x0,0x10(%rbx)
   180023949:	ba 0c 00 00 00       	mov    $0xc,%edx
   18002394e:	48 89 43 08          	mov    %rax,0x8(%rbx)
   180023952:	48 8b 4f 18          	mov    0x18(%rdi),%rcx
   180023956:	48 2b 4f 10          	sub    0x10(%rdi),%rcx
   18002395a:	48 ff c1             	inc    %rcx
   18002395d:	e8 e6 bc ff ff       	call   0x18001f648
   180023962:	48 b9 ff ff ff ff ff 	movabs $0xbfffffffffffffff,%rcx
   180023969:	ff ff bf
   18002396c:	48 89 43 18          	mov    %rax,0x18(%rbx)
   180023970:	48 8b 47 28          	mov    0x28(%rdi),%rax
   180023974:	48 23 c1             	and    %rcx,%rax
   180023977:	48 89 43 20          	mov    %rax,0x20(%rbx)
   18002397b:	83 7f 30 01          	cmpl   $0x1,0x30(%rdi)
   18002397f:	75 13                	jne    0x180023994
   180023981:	83 23 00             	andl   $0x0,(%rbx)
   180023984:	48 b8 ff ff ff ff ff 	movabs $0x7fffffffffffffff,%rax
   18002398b:	ff ff 7f
   18002398e:	48 21 43 20          	and    %rax,0x20(%rbx)
   180023992:	eb 1a                	jmp    0x1800239ae
   180023994:	83 7f 30 03          	cmpl   $0x3,0x30(%rdi)
   180023998:	75 14                	jne    0x1800239ae
   18002399a:	48 8b 47 28          	mov    0x28(%rdi),%rax
   18002399e:	49 23 c7             	and    %r15,%rax
   1800239a1:	49 2b c7             	sub    %r15,%rax
   1800239a4:	48 f7 d8             	neg    %rax
   1800239a7:	1b c0                	sbb    %eax,%eax
   1800239a9:	83 c0 0c             	add    $0xc,%eax
   1800239ac:	89 03                	mov    %eax,(%rbx)
   1800239ae:	48 83 c3 30          	add    $0x30,%rbx
   1800239b2:	48 8d 0d c7 97 02 00 	lea    0x297c7(%rip),%rcx        # 0x18004d180
   1800239b9:	48 8b 3f             	mov    (%rdi),%rdi
   1800239bc:	48 3b f9             	cmp    %rcx,%rdi
   1800239bf:	0f 85 5f ff ff ff    	jne    0x180023924
   1800239c5:	4c 8b 64 24 50       	mov    0x50(%rsp),%r12
   1800239ca:	33 db                	xor    %ebx,%ebx
   1800239cc:	48 8d 0d ed ac 02 00 	lea    0x2aced(%rip),%rcx        # 0x18004e6c0
   1800239d3:	e8 44 11 00 00       	call   0x180024b1c
   1800239d8:	e8 d3 9c ff ff       	call   0x18001d6b0
   1800239dd:	4d 85 e4             	test   %r12,%r12
   1800239e0:	74 0b                	je     0x1800239ed
   1800239e2:	48 8b 0d bf d2 02 00 	mov    0x2d2bf(%rip),%rcx        # 0x180050ca8
   1800239e9:	49 89 0c 24          	mov    %rcx,(%r12)
   1800239ed:	48 89 75 00          	mov    %rsi,0x0(%rbp)
   1800239f1:	48 8b c3             	mov    %rbx,%rax
   1800239f4:	48 8b 5c 24 40       	mov    0x40(%rsp),%rbx
   1800239f9:	48 8b 6c 24 48       	mov    0x48(%rsp),%rbp
   1800239fe:	48 8b 74 24 58       	mov    0x58(%rsp),%rsi
   180023a03:	48 83 c4 20          	add    $0x20,%rsp
   180023a07:	41 5f                	pop    %r15
   180023a09:	41 5c                	pop    %r12
   180023a0b:	5f                   	pop    %rdi
   180023a0c:	c3                   	ret
   180023a0d:	cc                   	int3
   180023a0e:	cc                   	int3
   180023a0f:	cc                   	int3
   180023a10:	48 89 5c 24 08       	mov    %rbx,0x8(%rsp)
   180023a15:	57                   	push   %rdi
   180023a16:	48 83 ec 20          	sub    $0x20,%rsp
   180023a1a:	48 8b d9             	mov    %rcx,%rbx
   180023a1d:	48 8d 0d 9c ac 02 00 	lea    0x2ac9c(%rip),%rcx        # 0x18004e6c0
   180023a24:	33 ff                	xor    %edi,%edi
   180023a26:	e8 e9 10 00 00       	call   0x180024b14
   180023a2b:	48 3b 1d 76 d2 02 00 	cmp    0x2d276(%rip),%rbx        # 0x180050ca8
   180023a32:	75 6b                	jne    0x180023a9f
   180023a34:	48 8b 0d 9d ac 02 00 	mov    0x2ac9d(%rip),%rcx        # 0x18004e6d8
   180023a3b:	48 8d 15 96 ac 02 00 	lea    0x2ac96(%rip),%rdx        # 0x18004e6d8
   180023a42:	48 3b ca             	cmp    %rdx,%rcx
   180023a45:	74 62                	je     0x180023aa9
   180023a47:	41 b8 ff 0f 00 00    	mov    $0xfff,%r8d
   180023a4d:	48 b8 00 00 00 00 00 	movabs $0x8000000000000000,%rax
   180023a54:	00 00 80
   180023a57:	48 85 41 30          	test   %rax,0x30(%rcx)
   180023a5b:	74 20                	je     0x180023a7d
   180023a5d:	83 79 14 09          	cmpl   $0x9,0x14(%rcx)
   180023a61:	74 24                	je     0x180023a87
   180023a63:	83 79 14 0a          	cmpl   $0xa,0x14(%rcx)
   180023a67:	74 1e                	je     0x180023a87
   180023a69:	8b 41 18             	mov    0x18(%rcx),%eax
   180023a6c:	49 85 c0             	test   %rax,%r8
   180023a6f:	75 16                	jne    0x180023a87
   180023a71:	48 8b 41 20          	mov    0x20(%rcx),%rax
   180023a75:	48 ff c0             	inc    %rax
   180023a78:	49 85 c0             	test   %rax,%r8
   180023a7b:	75 22                	jne    0x180023a9f
   180023a7d:	48 8b 09             	mov    (%rcx),%rcx
   180023a80:	48 3b ca             	cmp    %rdx,%rcx
   180023a83:	74 24                	je     0x180023aa9
   180023a85:	eb c6                	jmp    0x180023a4d
   180023a87:	48 8d 0d 32 ac 02 00 	lea    0x2ac32(%rip),%rcx        # 0x18004e6c0
   180023a8e:	e8 89 10 00 00       	call   0x180024b1c
   180023a93:	48 b8 02 00 00 00 00 	movabs $0x8000000000000002,%rax
   180023a9a:	00 00 80
   180023a9d:	eb 19                	jmp    0x180023ab8
   180023a9f:	48 bf 02 00 00 00 00 	movabs $0x8000000000000002,%rdi
   180023aa6:	00 00 80
   180023aa9:	48 8d 0d 10 ac 02 00 	lea    0x2ac10(%rip),%rcx        # 0x18004e6c0
   180023ab0:	e8 67 10 00 00       	call   0x180024b1c
   180023ab5:	48 8b c7             	mov    %rdi,%rax
   180023ab8:	48 8b 5c 24 30       	mov    0x30(%rsp),%rbx
   180023abd:	48 83 c4 20          	add    $0x20,%rsp
   180023ac1:	5f                   	pop    %rdi
   180023ac2:	c3                   	ret
   180023ac3:	cc                   	int3
   180023ac4:	48 89 5c 24 08       	mov    %rbx,0x8(%rsp)
   180023ac9:	48 89 6c 24 10       	mov    %rbp,0x10(%rsp)
   180023ace:	48 89 74 24 18       	mov    %rsi,0x18(%rsp)
   180023ad3:	57                   	push   %rdi
   180023ad4:	41 54                	push   %r12
   180023ad6:	41 55                	push   %r13
   180023ad8:	48 83 ec 20          	sub    $0x20,%rsp
   180023adc:	48 ff 05 c5 d1 02 00 	incq   0x2d1c5(%rip)        # 0x180050ca8
   180023ae3:	48 8b 1d ee ab 02 00 	mov    0x2abee(%rip),%rbx        # 0x18004e6d8
   180023aea:	49 8b e9             	mov    %r9,%rbp
   180023aed:	49 8b f0             	mov    %r8,%rsi
   180023af0:	48 8b fa             	mov    %rdx,%rdi
   180023af3:	44 8b e1             	mov    %ecx,%r12d
   180023af6:	4c 8d 2d db ab 02 00 	lea    0x2abdb(%rip),%r13        # 0x18004e6d8
   180023afd:	eb 38                	jmp    0x180023b37
   180023aff:	48 8d 4b f8          	lea    -0x8(%rbx),%rcx
   180023b03:	48 8b 1b             	mov    (%rbx),%rbx
   180023b06:	44 39 61 1c          	cmp    %r12d,0x1c(%rcx)
   180023b0a:	75 2b                	jne    0x180023b37
   180023b0c:	48 39 69 38          	cmp    %rbp,0x38(%rcx)
   180023b10:	75 25                	jne    0x180023b37
   180023b12:	48 8b 51 28          	mov    0x28(%rcx),%rdx
   180023b16:	48 8d 42 01          	lea    0x1(%rdx),%rax
   180023b1a:	48 3b c7             	cmp    %rdi,%rax
   180023b1d:	75 06                	jne    0x180023b25
   180023b1f:	48 8b 79 20          	mov    0x20(%rcx),%rdi
   180023b23:	eb 0d                	jmp    0x180023b32
   180023b25:	48 8d 46 01          	lea    0x1(%rsi),%rax
   180023b29:	48 39 41 20          	cmp    %rax,0x20(%rcx)
   180023b2d:	75 08                	jne    0x180023b37
   180023b2f:	48 8b f2             	mov    %rdx,%rsi
   180023b32:	e8 e5 fa ff ff       	call   0x18002361c
   180023b37:	49 3b dd             	cmp    %r13,%rbx
   180023b3a:	75 c3                	jne    0x180023aff
   180023b3c:	48 8b 05 6d d1 02 00 	mov    0x2d16d(%rip),%rax        # 0x180050cb0
   180023b43:	48 8d 15 96 de 02 00 	lea    0x2de96(%rip),%rdx        # 0x1800519e0
   180023b4a:	49 8b cd             	mov    %r13,%rcx
   180023b4d:	48 c1 e0 06          	shl    $0x6,%rax
   180023b51:	48 c7 04 10 6d 6d 61 	movq   $0x70616d6d,(%rax,%rdx,1)
   180023b58:	70
   180023b59:	c6 44 10 18 00       	movb   $0x0,0x18(%rax,%rdx,1)
   180023b5e:	44 89 64 10 1c       	mov    %r12d,0x1c(%rax,%rdx,1)
   180023b63:	48 89 7c 10 20       	mov    %rdi,0x20(%rax,%rdx,1)
   180023b68:	48 89 74 10 28       	mov    %rsi,0x28(%rax,%rdx,1)
   180023b6d:	48 83 64 10 30 00    	andq   $0x0,0x30(%rax,%rdx,1)
   180023b73:	48 89 6c 10 38       	mov    %rbp,0x38(%rax,%rdx,1)
   180023b78:	48 8d 54 10 08       	lea    0x8(%rax,%rdx,1),%rdx
   180023b7d:	e8 ee ef 01 00       	call   0x180042b70
   180023b82:	48 ff 05 27 d1 02 00 	incq   0x2d127(%rip)        # 0x180050cb0
   180023b89:	48 8b 5c 24 40       	mov    0x40(%rsp),%rbx
   180023b8e:	48 8b 6c 24 48       	mov    0x48(%rsp),%rbp
   180023b93:	48 8b 74 24 50       	mov    0x50(%rsp),%rsi
   180023b98:	48 83 c4 20          	add    $0x20,%rsp
   180023b9c:	41 5d                	pop    %r13
   180023b9e:	41 5c                	pop    %r12
   180023ba0:	5f                   	pop    %rdi
   180023ba1:	c3                   	ret
   180023ba2:	cc                   	int3
   180023ba3:	cc                   	int3
   180023ba4:	48 89 5c 24 08       	mov    %rbx,0x8(%rsp)
   180023ba9:	57                   	push   %rdi
   180023baa:	48 83 ec 20          	sub    $0x20,%rsp
   180023bae:	e8 f1 9a ff ff       	call   0x18001d6a4
   180023bb3:	48 8b 1d c6 95 02 00 	mov    0x295c6(%rip),%rbx        # 0x18004d180
   180023bba:	48 8d 3d bf 95 02 00 	lea    0x295bf(%rip),%rdi        # 0x18004d180
   180023bc1:	e9 a6 00 00 00       	jmp    0x180023c6c
   180023bc6:	83 7b 30 01          	cmpl   $0x1,0x30(%rbx)
   180023bca:	0f 85 99 00 00 00    	jne    0x180023c69
   180023bd0:	4c 8b 43 18          	mov    0x18(%rbx),%r8
   180023bd4:	b8 ff ff ff ff       	mov    $0xffffffff,%eax
   180023bd9:	4c 3b c0             	cmp    %rax,%r8
   180023bdc:	0f 83 87 00 00 00    	jae    0x180023c69
   180023be2:	4c 8b 4b 20          	mov    0x20(%rbx),%r9
   180023be6:	48 b9 00 00 00 00 00 	movabs $0x700000000000000,%rcx
   180023bed:	00 00 07
   180023bf0:	49 8b c1             	mov    %r9,%rax
   180023bf3:	48 23 c1             	and    %rcx,%rax
   180023bf6:	48 b9 00 00 00 00 00 	movabs $0x300000000000000,%rcx
   180023bfd:	00 00 03
   180023c00:	48 3b c1             	cmp    %rcx,%rax
   180023c03:	75 64                	jne    0x180023c69
   180023c05:	48 8b 53 10          	mov    0x10(%rbx),%rdx
   180023c09:	48 b8 00 00 00 00 00 	movabs $0x400000000000000,%rax
   180023c10:	00 00 04
   180023c13:	c7 43 30 02 00 00 00 	movl   $0x2,0x30(%rbx)
   180023c1a:	4c 0b c8             	or     %rax,%r9
   180023c1d:	b9 07 00 00 00       	mov    $0x7,%ecx
   180023c22:	4c 89 4b 20          	mov    %r9,0x20(%rbx)
   180023c26:	48 8b 05 a3 fe 12 00 	mov    0x12fea3(%rip),%rax        # 0x180153ad0
   180023c2d:	48 83 63 40 00       	andq   $0x0,0x40(%rbx)
   180023c32:	48 89 43 38          	mov    %rax,0x38(%rbx)
   180023c36:	48 b8 ff ff ff ff ff 	movabs $0x78ffffffffffffff,%rax
   180023c3d:	ff ff 78
   180023c40:	4c 23 c8             	and    %rax,%r9
   180023c43:	e8 7c fe ff ff       	call   0x180023ac4
   180023c48:	48 8b 4b 18          	mov    0x18(%rbx),%rcx
   180023c4c:	ba 0c 00 00 00       	mov    $0xc,%edx
   180023c51:	48 2b 4b 10          	sub    0x10(%rbx),%rcx
   180023c55:	48 ff c1             	inc    %rcx
   180023c58:	e8 eb b9 ff ff       	call   0x18001f648
   180023c5d:	48 01 05 bc 9a 02 00 	add    %rax,0x29abc(%rip)        # 0x18004d720
   180023c64:	e8 87 01 00 00       	call   0x180023df0
   180023c69:	48 8b 1b             	mov    (%rbx),%rbx
   180023c6c:	48 3b df             	cmp    %rdi,%rbx
   180023c6f:	0f 85 51 ff ff ff    	jne    0x180023bc6
   180023c75:	48 8b 5c 24 30       	mov    0x30(%rsp),%rbx
   180023c7a:	48 83 c4 20          	add    $0x20,%rsp
   180023c7e:	5f                   	pop    %rdi
   180023c7f:	e9 2c 9a ff ff       	jmp    0x18001d6b0
   180023c84:	48 89 5c 24 08       	mov    %rbx,0x8(%rsp)
   180023c89:	48 89 6c 24 10       	mov    %rbp,0x10(%rsp)
   180023c8e:	48 89 74 24 18       	mov    %rsi,0x18(%rsp)
   180023c93:	57                   	push   %rdi
   180023c94:	48 83 ec 20          	sub    $0x20,%rsp
   180023c98:	49 63 f8             	movslq %r8d,%rdi
   180023c9b:	49 8b f1             	mov    %r9,%rsi
   180023c9e:	48 8b ea             	mov    %rdx,%rbp
   180023ca1:	48 8b d9             	mov    %rcx,%rbx
   180023ca4:	83 ff 0d             	cmp    $0xd,%edi
   180023ca7:	77 17                	ja     0x180023cc0
   180023ca9:	4c 8d 14 7f          	lea    (%rdi,%rdi,2),%r10
   180023cad:	48 8d 0d 14 99 02 00 	lea    0x29914(%rip),%rcx        # 0x18004d5c8
   180023cb4:	4d 03 d2             	add    %r10,%r10
   180023cb7:	4a 8b 0c d1          	mov    (%rcx,%r10,8),%rcx
   180023cbb:	48 3b d9             	cmp    %rcx,%rbx
   180023cbe:	73 11                	jae    0x180023cd1
   180023cc0:	48 8b 05 c9 9b 02 00 	mov    0x29bc9(%rip),%rax        # 0x18004d890
   180023cc7:	48 8b cb             	mov    %rbx,%rcx
   180023cca:	48 3b d8             	cmp    %rax,%rbx
   180023ccd:	48 0f 47 c8          	cmova  %rax,%rcx
   180023cd1:	44 8b c7             	mov    %edi,%r8d
   180023cd4:	e8 7f f9 ff ff       	call   0x180023658
   180023cd9:	48 85 c0             	test   %rax,%rax
   180023cdc:	75 2c                	jne    0x180023d0a
   180023cde:	4c 8b ce             	mov    %rsi,%r9
   180023ce1:	44 8b c7             	mov    %edi,%r8d
   180023ce4:	48 8b d5             	mov    %rbp,%rdx
   180023ce7:	48 8b cb             	mov    %rbx,%rcx
   180023cea:	e8 69 f9 ff ff       	call   0x180023658
   180023cef:	48 85 c0             	test   %rax,%rax
   180023cf2:	75 16                	jne    0x180023d0a
   180023cf4:	e8 ab fe ff ff       	call   0x180023ba4
   180023cf9:	4c 8b ce             	mov    %rsi,%r9
   180023cfc:	44 8b c7             	mov    %edi,%r8d
   180023cff:	48 8b d5             	mov    %rbp,%rdx
   180023d02:	48 8b cb             	mov    %rbx,%rcx
   180023d05:	e8 4e f9 ff ff       	call   0x180023658
   180023d0a:	48 8b 5c 24 30       	mov    0x30(%rsp),%rbx
   180023d0f:	48 8b 6c 24 38       	mov    0x38(%rsp),%rbp
   180023d14:	48 8b 74 24 40       	mov    0x40(%rsp),%rsi
   180023d19:	48 83 c4 20          	add    $0x20,%rsp
   180023d1d:	5f                   	pop    %rdi
   180023d1e:	c3                   	ret
   180023d1f:	cc                   	int3
   180023d20:	48 89 5c 24 08       	mov    %rbx,0x8(%rsp)
   180023d25:	48 89 74 24 10       	mov    %rsi,0x10(%rsp)
   180023d2a:	57                   	push   %rdi
   180023d2b:	48 83 ec 20          	sub    $0x20,%rsp
   180023d2f:	4d 8b c8             	mov    %r8,%r9
   180023d32:	8b f1                	mov    %ecx,%esi
   180023d34:	44 8b c1             	mov    %ecx,%r8d
   180023d37:	b9 ff ff ff ff       	mov    $0xffffffff,%ecx
   180023d3c:	48 8b fa             	mov    %rdx,%rdi
   180023d3f:	e8 40 ff ff ff       	call   0x180023c84
   180023d44:	48 8b d8             	mov    %rax,%rbx
   180023d47:	48 85 c0             	test   %rax,%rax
   180023d4a:	74 0e                	je     0x180023d5a
   180023d4c:	44 8b c6             	mov    %esi,%r8d
   180023d4f:	48 8b d7             	mov    %rdi,%rdx
   180023d52:	48 8b c8             	mov    %rax,%rcx
   180023d55:	e8 96 01 00 00       	call   0x180023ef0
   180023d5a:	48 8b 74 24 38       	mov    0x38(%rsp),%rsi
   180023d5f:	48 8b c3             	mov    %rbx,%rax
   180023d62:	48 8b 5c 24 30       	mov    0x30(%rsp),%rbx
   180023d67:	48 83 c4 20          	add    $0x20,%rsp
   180023d6b:	5f                   	pop    %rdi
   180023d6c:	c3                   	ret
   180023d6d:	cc                   	int3
   180023d6e:	cc                   	int3
   180023d6f:	cc                   	int3
   180023d70:	48 89 5c 24 08       	mov    %rbx,0x8(%rsp)
   180023d75:	57                   	push   %rdi
   180023d76:	48 83 ec 20          	sub    $0x20,%rsp
   180023d7a:	48 8d 0d 2f 98 02 00 	lea    0x2982f(%rip),%rcx        # 0x18004d5b0
   180023d81:	e8 d2 ed 01 00       	call   0x180042b58
   180023d86:	84 c0                	test   %al,%al
   180023d88:	74 41                	je     0x180023dcb
   180023d8a:	ba 01 00 00 00       	mov    $0x1,%edx
   180023d8f:	41 b8 00 10 00 00    	mov    $0x1000,%r8d
   180023d95:	8d 4a 03             	lea    0x3(%rdx),%ecx
   180023d98:	e8 83 ff ff ff       	call   0x180023d20
   180023d9d:	48 8b d8             	mov    %rax,%rbx
   180023da0:	48 85 c0             	test   %rax,%rax
   180023da3:	74 44                	je     0x180023de9
   180023da5:	bf 40 00 00 00       	mov    $0x40,%edi
   180023daa:	48 8d 53 08          	lea    0x8(%rbx),%rdx
   180023dae:	48 8d 0d fb 97 02 00 	lea    0x297fb(%rip),%rcx        # 0x18004d5b0
   180023db5:	48 c7 03 6d 6d 61 70 	movq   $0x70616d6d,(%rbx)
   180023dbc:	e8 af ed 01 00       	call   0x180042b70
   180023dc1:	48 83 c3 40          	add    $0x40,%rbx
   180023dc5:	48 83 ef 01          	sub    $0x1,%rdi
   180023dc9:	75 df                	jne    0x180023daa
   180023dcb:	48 8b 1d de 97 02 00 	mov    0x297de(%rip),%rbx        # 0x18004d5b0
   180023dd2:	48 8b cb             	mov    %rbx,%rcx
   180023dd5:	e8 86 ed 01 00       	call   0x180042b60
   180023dda:	48 8d 43 f8          	lea    -0x8(%rbx),%rax
   180023dde:	48 8b 5c 24 30       	mov    0x30(%rsp),%rbx
   180023de3:	48 83 c4 20          	add    $0x20,%rsp
   180023de7:	5f                   	pop    %rdi
   180023de8:	c3                   	ret
   180023de9:	33 c0                	xor    %eax,%eax
   180023deb:	eb f1                	jmp    0x180023dde
   180023ded:	cc                   	int3
   180023dee:	cc                   	int3
   180023def:	cc                   	int3
   180023df0:	48 89 5c 24 08       	mov    %rbx,0x8(%rsp)
   180023df5:	48 89 6c 24 10       	mov    %rbp,0x10(%rsp)
   180023dfa:	56                   	push   %rsi
   180023dfb:	48 83 ec 20          	sub    $0x20,%rsp
   180023dff:	48 83 3d b1 ce 02 00 	cmpq   $0x0,0x2ceb1(%rip)        # 0x180050cb8
   180023e06:	00
   180023e07:	0f 85 d2 00 00 00    	jne    0x180023edf
   180023e0d:	48 83 3d 9b ce 02 00 	cmpq   $0x0,0x2ce9b(%rip)        # 0x180050cb0
   180023e14:	00
   180023e15:	b8 01 00 00 00       	mov    $0x1,%eax
   180023e1a:	48 89 05 97 ce 02 00 	mov    %rax,0x2ce97(%rip)        # 0x180050cb8
   180023e21:	0f 84 ae 00 00 00    	je     0x180023ed5
   180023e27:	48 8d 2d b2 db 02 00 	lea    0x2dbb2(%rip),%rbp        # 0x1800519e0
   180023e2e:	48 8d 35 a3 a8 02 00 	lea    0x2a8a3(%rip),%rsi        # 0x18004e6d8
   180023e35:	e8 36 ff ff ff       	call   0x180023d70
   180023e3a:	48 8b 0d 6f ce 02 00 	mov    0x2ce6f(%rip),%rcx        # 0x180050cb0
   180023e41:	48 ff c9             	dec    %rcx
   180023e44:	48 8b d8             	mov    %rax,%rbx
   180023e47:	48 89 0d 62 ce 02 00 	mov    %rcx,0x2ce62(%rip)        # 0x180050cb0
   180023e4e:	48 c1 e1 06          	shl    $0x6,%rcx
   180023e52:	48 8d 4c 29 08       	lea    0x8(%rcx,%rbp,1),%rcx
   180023e57:	48 83 39 00          	cmpq   $0x0,(%rcx)
   180023e5b:	74 53                	je     0x180023eb0
   180023e5d:	e8 fe ec 01 00       	call   0x180042b60
   180023e62:	4c 8b 1d 47 ce 02 00 	mov    0x2ce47(%rip),%r11        # 0x180050cb0
   180023e69:	48 8b cb             	mov    %rbx,%rcx
   180023e6c:	49 c1 e3 06          	shl    $0x6,%r11
   180023e70:	41 b8 40 00 00 00    	mov    $0x40,%r8d
   180023e76:	49 83 64 2b 08 00    	andq   $0x0,0x8(%r11,%rbp,1)
   180023e7c:	49 8d 14 2b          	lea    (%r11,%rbp,1),%rdx
   180023e80:	e8 8b 5c fe ff       	call   0x180009b10
   180023e85:	c6 43 18 01          	movb   $0x1,0x18(%rbx)
   180023e89:	48 8b 0d 48 a8 02 00 	mov    0x2a848(%rip),%rcx        # 0x18004e6d8
   180023e90:	eb 13                	jmp    0x180023ea5
   180023e92:	80 79 10 00          	cmpb   $0x0,0x10(%rcx)
   180023e96:	74 0a                	je     0x180023ea2
   180023e98:	48 8b 43 20          	mov    0x20(%rbx),%rax
   180023e9c:	48 39 41 18          	cmp    %rax,0x18(%rcx)
   180023ea0:	77 08                	ja     0x180023eaa
   180023ea2:	48 8b 09             	mov    (%rcx),%rcx
   180023ea5:	48 3b ce             	cmp    %rsi,%rcx
   180023ea8:	75 e8                	jne    0x180023e92
   180023eaa:	48 8d 53 08          	lea    0x8(%rbx),%rdx
   180023eae:	eb 0b                	jmp    0x180023ebb
   180023eb0:	48 8d 50 08          	lea    0x8(%rax),%rdx
   180023eb4:	48 8d 0d f5 96 02 00 	lea    0x296f5(%rip),%rcx        # 0x18004d5b0
   180023ebb:	e8 b0 ec 01 00       	call   0x180042b70
   180023ec0:	48 83 3d e8 cd 02 00 	cmpq   $0x0,0x2cde8(%rip)        # 0x180050cb0
   180023ec7:	00
   180023ec8:	0f 85 67 ff ff ff    	jne    0x180023e35
   180023ece:	48 8b 05 e3 cd 02 00 	mov    0x2cde3(%rip),%rax        # 0x180050cb8
   180023ed5:	48 ff c8             	dec    %rax
   180023ed8:	48 89 05 d9 cd 02 00 	mov    %rax,0x2cdd9(%rip)        # 0x180050cb8
   180023edf:	48 8b 5c 24 30       	mov    0x30(%rsp),%rbx
   180023ee4:	48 8b 6c 24 38       	mov    0x38(%rsp),%rbp
   180023ee9:	48 83 c4 20          	add    $0x20,%rsp
   180023eed:	5e                   	pop    %rsi
   180023eee:	c3                   	ret
   180023eef:	cc                   	int3
   180023ef0:	48 89 5c 24 08       	mov    %rbx,0x8(%rsp)
   180023ef5:	48 89 6c 24 10       	mov    %rbp,0x10(%rsp)
   180023efa:	48 89 74 24 18       	mov    %rsi,0x18(%rsp)
   180023eff:	57                   	push   %rdi
   180023f00:	41 54                	push   %r12
   180023f02:	41 55                	push   %r13
   180023f04:	41 56                	push   %r14
   180023f06:	41 57                	push   %r15
   180023f08:	48 83 ec 20          	sub    $0x20,%rsp
   180023f0c:	48 8b da             	mov    %rdx,%rbx
   180023f0f:	48 8b f9             	mov    %rcx,%rdi
   180023f12:	ba 0c 00 00 00       	mov    $0xc,%edx
   180023f17:	48 8b cb             	mov    %rbx,%rcx
   180023f1a:	4d 63 e0             	movslq %r8d,%r12
   180023f1d:	e8 2e b7 ff ff       	call   0x18001f650
   180023f22:	48 8d 0c 38          	lea    (%rax,%rdi,1),%rcx
   180023f26:	48 8d 69 ff          	lea    -0x1(%rcx),%rbp
   180023f2a:	48 85 db             	test   %rbx,%rbx
   180023f2d:	0f 84 e5 01 00 00    	je     0x180024118
   180023f33:	48 f7 c7 ff 0f 00 00 	test   $0xfff,%rdi
   180023f3a:	0f 85 d8 01 00 00    	jne    0x180024118
   180023f40:	48 3b f9             	cmp    %rcx,%rdi
   180023f43:	0f 87 cf 01 00 00    	ja     0x180024118
   180023f49:	48 3b fd             	cmp    %rbp,%rdi
   180023f4c:	0f 83 b6 01 00 00    	jae    0x180024108
   180023f52:	4c 8d 35 7f a7 02 00 	lea    0x2a77f(%rip),%r14        # 0x18004e6d8
   180023f59:	4c 8d 3d a0 c0 fd ff 	lea    -0x23f60(%rip),%r15        # 0x180000000
   180023f60:	4c 8d 2d 79 da 02 00 	lea    0x2da79(%rip),%r13        # 0x1800519e0
   180023f67:	48 8b 05 6a a7 02 00 	mov    0x2a76a(%rip),%rax        # 0x18004e6d8
   180023f6e:	49 3b c6             	cmp    %r14,%rax
   180023f71:	0f 84 95 01 00 00    	je     0x18002410c
   180023f77:	48 8d 58 f8          	lea    -0x8(%rax),%rbx
   180023f7b:	48 39 7b 20          	cmp    %rdi,0x20(%rbx)
   180023f7f:	77 06                	ja     0x180023f87
   180023f81:	48 39 7b 28          	cmp    %rdi,0x28(%rbx)
   180023f85:	77 08                	ja     0x180023f8f
   180023f87:	48 8b 00             	mov    (%rax),%rax
   180023f8a:	49 3b c6             	cmp    %r14,%rax
   180023f8d:	75 e8                	jne    0x180023f77
   180023f8f:	49 3b c6             	cmp    %r14,%rax
   180023f92:	0f 84 74 01 00 00    	je     0x18002410c
   180023f98:	48 39 6b 28          	cmp    %rbp,0x28(%rbx)
   180023f9c:	48 8b f5             	mov    %rbp,%rsi
   180023f9f:	48 0f 42 73 28       	cmovb  0x28(%rbx),%rsi
   180023fa4:	33 c9                	xor    %ecx,%ecx
   180023fa6:	83 7b 1c 07          	cmpl   $0x7,0x1c(%rbx)
   180023faa:	0f 94 c1             	sete   %cl
   180023fad:	33 c0                	xor    %eax,%eax
   180023faf:	41 83 fc 07          	cmp    $0x7,%r12d
   180023fb3:	0f 95 c0             	setne  %al
   180023fb6:	33 c8                	xor    %eax,%ecx
   180023fb8:	0f 85 4e 01 00 00    	jne    0x18002410c
   180023fbe:	48 8b ce             	mov    %rsi,%rcx
   180023fc1:	ba 0c 00 00 00       	mov    $0xc,%edx
   180023fc6:	48 2b cf             	sub    %rdi,%rcx
   180023fc9:	48 ff c1             	inc    %rcx
   180023fcc:	e8 77 b6 ff ff       	call   0x18001f648
   180023fd1:	48 63 4b 1c          	movslq 0x1c(%rbx),%rcx
   180023fd5:	4c 8b d8             	mov    %rax,%r11
   180023fd8:	85 c9                	test   %ecx,%ecx
   180023fda:	78 37                	js     0x180024013
   180023fdc:	83 f9 0e             	cmp    $0xe,%ecx
   180023fdf:	7d 32                	jge    0x180024013
   180023fe1:	48 8d 14 49          	lea    (%rcx,%rcx,2),%rdx
   180023fe5:	48 03 d2             	add    %rdx,%rdx
   180023fe8:	49 29 84 d7 d0 d5 04 	sub    %rax,0x4d5d0(%r15,%rdx,8)
   180023fef:	00
   180023ff0:	48 63 43 1c          	movslq 0x1c(%rbx),%rax
   180023ff4:	48 8d 14 40          	lea    (%rax,%rax,2),%rdx
   180023ff8:	48 03 d2             	add    %rdx,%rdx
   180023ffb:	49 8b 8c d7 e0 d5 04 	mov    0x4d5e0(%r15,%rdx,8),%rcx
   180024002:	00
   180024003:	41 8b 84 d7 d0 d5 04 	mov    0x4d5d0(%r15,%rdx,8),%eax
   18002400a:	00
   18002400b:	41 89 84 cf a4 d8 04 	mov    %eax,0x4d8a4(%r15,%rcx,8)
   180024012:	00
   180024013:	41 83 fc 0d          	cmp    $0xd,%r12d
   180024017:	77 27                	ja     0x180024040
   180024019:	4b 8d 14 64          	lea    (%r12,%r12,2),%rdx
   18002401d:	48 03 d2             	add    %rdx,%rdx
   180024020:	4d 01 9c d7 d0 d5 04 	add    %r11,0x4d5d0(%r15,%rdx,8)
   180024027:	00
   180024028:	49 8b 8c d7 e0 d5 04 	mov    0x4d5e0(%r15,%rdx,8),%rcx
   18002402f:	00
   180024030:	41 8b 84 d7 d0 d5 04 	mov    0x4d5d0(%r15,%rdx,8),%eax
   180024037:	00
   180024038:	41 89 84 cf a4 d8 04 	mov    %eax,0x4d8a4(%r15,%rcx,8)
   18002403f:	00
   180024040:	48 39 7b 20          	cmp    %rdi,0x20(%rbx)
   180024044:	75 0a                	jne    0x180024050
   180024046:	48 8d 46 01          	lea    0x1(%rsi),%rax
   18002404a:	48 89 43 20          	mov    %rax,0x20(%rbx)
   18002404e:	eb 75                	jmp    0x1800240c5
   180024050:	48 39 73 28          	cmp    %rsi,0x28(%rbx)
   180024054:	75 0a                	jne    0x180024060
   180024056:	48 8d 47 ff          	lea    -0x1(%rdi),%rax
   18002405a:	48 89 43 28          	mov    %rax,0x28(%rbx)
   18002405e:	eb 65                	jmp    0x1800240c5
   180024060:	48 8b 0d 49 cc 02 00 	mov    0x2cc49(%rip),%rcx        # 0x180050cb0
   180024067:	48 c1 e1 06          	shl    $0x6,%rcx
   18002406b:	4a c7 04 29 6d 6d 61 	movq   $0x70616d6d,(%rcx,%r13,1)
   180024072:	70
   180024073:	42 c6 44 29 18 00    	movb   $0x0,0x18(%rcx,%r13,1)
   180024079:	8b 43 1c             	mov    0x1c(%rbx),%eax
   18002407c:	42 89 44 29 1c       	mov    %eax,0x1c(%rcx,%r13,1)
   180024081:	48 8d 46 01          	lea    0x1(%rsi),%rax
   180024085:	4a 89 44 29 20       	mov    %rax,0x20(%rcx,%r13,1)
   18002408a:	48 8b 43 28          	mov    0x28(%rbx),%rax
   18002408e:	4a 89 44 29 28       	mov    %rax,0x28(%rcx,%r13,1)
   180024093:	48 8b 43 38          	mov    0x38(%rbx),%rax
   180024097:	4a 89 44 29 38       	mov    %rax,0x38(%rcx,%r13,1)
   18002409c:	48 8d 47 ff          	lea    -0x1(%rdi),%rax
   1800240a0:	49 8b ce             	mov    %r14,%rcx
   1800240a3:	48 89 43 28          	mov    %rax,0x28(%rbx)
   1800240a7:	48 8b 1d 02 cc 02 00 	mov    0x2cc02(%rip),%rbx        # 0x180050cb0
   1800240ae:	48 c1 e3 06          	shl    $0x6,%rbx
   1800240b2:	49 03 dd             	add    %r13,%rbx
   1800240b5:	48 8d 53 08          	lea    0x8(%rbx),%rdx
   1800240b9:	e8 b2 ea 01 00       	call   0x180042b70
   1800240be:	48 ff 05 eb cb 02 00 	incq   0x2cbeb(%rip)        # 0x180050cb0
   1800240c5:	48 8b 43 28          	mov    0x28(%rbx),%rax
   1800240c9:	4c 8b 6b 38          	mov    0x38(%rbx),%r13
   1800240cd:	48 ff c0             	inc    %rax
   1800240d0:	48 39 43 20          	cmp    %rax,0x20(%rbx)
   1800240d4:	75 08                	jne    0x1800240de
   1800240d6:	48 8b cb             	mov    %rbx,%rcx
   1800240d9:	e8 3e f5 ff ff       	call   0x18002361c
   1800240de:	4d 8b cd             	mov    %r13,%r9
   1800240e1:	4c 8b c6             	mov    %rsi,%r8
   1800240e4:	48 8b d7             	mov    %rdi,%rdx
   1800240e7:	41 8b cc             	mov    %r12d,%ecx
   1800240ea:	e8 d5 f9 ff ff       	call   0x180023ac4
   1800240ef:	e8 fc fc ff ff       	call   0x180023df0
   1800240f4:	48 8d 7e 01          	lea    0x1(%rsi),%rdi
   1800240f8:	4c 8d 2d e1 d8 02 00 	lea    0x2d8e1(%rip),%r13        # 0x1800519e0
   1800240ff:	48 3b fd             	cmp    %rbp,%rdi
   180024102:	0f 82 5f fe ff ff    	jb     0x180023f67
   180024108:	33 c0                	xor    %eax,%eax
   18002410a:	eb 16                	jmp    0x180024122
   18002410c:	48 b8 0e 00 00 00 00 	movabs $0x800000000000000e,%rax
   180024113:	00 00 80
   180024116:	eb 0a                	jmp    0x180024122
   180024118:	48 b8 02 00 00 00 00 	movabs $0x8000000000000002,%rax
   18002411f:	00 00 80
   180024122:	48 8b 5c 24 50       	mov    0x50(%rsp),%rbx
   180024127:	48 8b 6c 24 58       	mov    0x58(%rsp),%rbp
   18002412c:	48 8b 74 24 60       	mov    0x60(%rsp),%rsi
   180024131:	48 83 c4 20          	add    $0x20,%rsp
   180024135:	41 5f                	pop    %r15
   180024137:	41 5e                	pop    %r14
   180024139:	41 5d                	pop    %r13
   18002413b:	41 5c                	pop    %r12
   18002413d:	5f                   	pop    %rdi
   18002413e:	c3                   	ret
   18002413f:	cc                   	int3
   180024140:	48 89 5c 24 08       	mov    %rbx,0x8(%rsp)
   180024145:	48 89 6c 24 10       	mov    %rbp,0x10(%rsp)
   18002414a:	48 89 74 24 18       	mov    %rsi,0x18(%rsp)
   18002414f:	57                   	push   %rdi
   180024150:	41 54                	push   %r12
   180024152:	41 55                	push   %r13
   180024154:	48 83 ec 20          	sub    $0x20,%rsp
   180024158:	49 8b f9             	mov    %r9,%rdi
   18002415b:	4d 8b e0             	mov    %r8,%r12
   18002415e:	8b da                	mov    %edx,%ebx
   180024160:	8b f1                	mov    %ecx,%esi
   180024162:	85 c9                	test   %ecx,%ecx
   180024164:	0f 88 c8 00 00 00    	js     0x180024232
   18002416a:	83 f9 03             	cmp    $0x3,%ecx
   18002416d:	0f 83 bf 00 00 00    	jae    0x180024232
   180024173:	83 fa 0e             	cmp    $0xe,%edx
   180024176:	7c 0c                	jl     0x180024184
   180024178:	81 fa ff ff ff 7f    	cmp    $0x7fffffff,%edx
   18002417e:	0f 8e ae 00 00 00    	jle    0x180024232
   180024184:	83 fa 07             	cmp    $0x7,%edx
   180024187:	0f 84 a5 00 00 00    	je     0x180024232
   18002418d:	4d 85 c9             	test   %r9,%r9
   180024190:	0f 84 9c 00 00 00    	je     0x180024232
   180024196:	83 f9 02             	cmp    $0x2,%ecx
   180024199:	75 1a                	jne    0x1800241b5
   18002419b:	41 8b 01             	mov    (%r9),%eax
   18002419e:	48 a9 ff 0f 00 00    	test   $0xfff,%rax
   1800241a4:	74 0f                	je     0x1800241b5
   1800241a6:	48 b8 0e 00 00 00 00 	movabs $0x800000000000000e,%rax
   1800241ad:	00 00 80
   1800241b0:	e9 87 00 00 00       	jmp    0x18002423c
   1800241b5:	49 8b 29             	mov    (%r9),%rbp
   1800241b8:	83 f9 01             	cmp    $0x1,%ecx
   1800241bb:	48 8d 0d fe a4 02 00 	lea    0x2a4fe(%rip),%rcx        # 0x18004e6c0
   1800241c2:	41 bd ff ff ff ff    	mov    $0xffffffff,%r13d
   1800241c8:	4c 0f 44 ed          	cmove  %rbp,%r13
   1800241cc:	e8 43 09 00 00       	call   0x180024b14
   1800241d1:	83 fe 02             	cmp    $0x2,%esi
   1800241d4:	74 28                	je     0x1800241fe
   1800241d6:	41 b9 00 10 00 00    	mov    $0x1000,%r9d
   1800241dc:	44 8b c3             	mov    %ebx,%r8d
   1800241df:	49 8b d4             	mov    %r12,%rdx
   1800241e2:	49 8b cd             	mov    %r13,%rcx
   1800241e5:	e8 9a fa ff ff       	call   0x180023c84
   1800241ea:	48 8b e8             	mov    %rax,%rbp
   1800241ed:	48 85 c0             	test   %rax,%rax
   1800241f0:	75 0c                	jne    0x1800241fe
   1800241f2:	48 bb 09 00 00 00 00 	movabs $0x8000000000000009,%rbx
   1800241f9:	00 00 80
   1800241fc:	eb 11                	jmp    0x18002420f
   1800241fe:	44 8b c3             	mov    %ebx,%r8d
   180024201:	49 8b d4             	mov    %r12,%rdx
   180024204:	48 8b cd             	mov    %rbp,%rcx
   180024207:	e8 e4 fc ff ff       	call   0x180023ef0
   18002420c:	48 8b d8             	mov    %rax,%rbx
   18002420f:	48 8d 0d aa a4 02 00 	lea    0x2a4aa(%rip),%rcx        # 0x18004e6c0
   180024216:	e8 01 09 00 00       	call   0x180024b1c
   18002421b:	48 b8 00 00 00 00 00 	movabs $0x8000000000000000,%rax
   180024222:	00 00 80
   180024225:	48 85 d8             	test   %rbx,%rax
   180024228:	75 03                	jne    0x18002422d
   18002422a:	48 89 2f             	mov    %rbp,(%rdi)
   18002422d:	48 8b c3             	mov    %rbx,%rax
   180024230:	eb 0a                	jmp    0x18002423c
   180024232:	48 b8 02 00 00 00 00 	movabs $0x8000000000000002,%rax
   180024239:	00 00 80
   18002423c:	48 8b 5c 24 40       	mov    0x40(%rsp),%rbx
   180024241:	48 8b 6c 24 48       	mov    0x48(%rsp),%rbp
   180024246:	48 8b 74 24 50       	mov    0x50(%rsp),%rsi
   18002424b:	48 83 c4 20          	add    $0x20,%rsp
   18002424f:	41 5d                	pop    %r13
   180024251:	41 5c                	pop    %r12
   180024253:	5f                   	pop    %rdi
   180024254:	c3                   	ret
   180024255:	cc                   	int3
   180024256:	cc                   	int3
   180024257:	cc                   	int3
   180024258:	48 89 5c 24 08       	mov    %rbx,0x8(%rsp)
   18002425d:	57                   	push   %rdi
   18002425e:	48 83 ec 20          	sub    $0x20,%rsp
   180024262:	48 8b d9             	mov    %rcx,%rbx
   180024265:	48 8d 0d 54 a4 02 00 	lea    0x2a454(%rip),%rcx        # 0x18004e6c0
   18002426c:	48 8b fa             	mov    %rdx,%rdi
   18002426f:	e8 a0 08 00 00       	call   0x180024b14
   180024274:	4c 8b 1d 5d a4 02 00 	mov    0x2a45d(%rip),%r11        # 0x18004e6d8
   18002427b:	48 8d 05 56 a4 02 00 	lea    0x2a456(%rip),%rax        # 0x18004e6d8
   180024282:	4c 3b d8             	cmp    %rax,%r11
   180024285:	74 44                	je     0x1800242cb
   180024287:	49 39 5b 18          	cmp    %rbx,0x18(%r11)
   18002428b:	77 06                	ja     0x180024293
   18002428d:	49 39 5b 20          	cmp    %rbx,0x20(%r11)
   180024291:	77 08                	ja     0x18002429b
   180024293:	4d 8b 1b             	mov    (%r11),%r11
   180024296:	4c 3b d8             	cmp    %rax,%r11
   180024299:	75 ec                	jne    0x180024287
   18002429b:	4c 3b d8             	cmp    %rax,%r11
   18002429e:	74 2b                	je     0x1800242cb
   1800242a0:	48 f7 c3 ff 0f 00 00 	test   $0xfff,%rbx
   1800242a7:	74 0c                	je     0x1800242b5
   1800242a9:	48 bb 02 00 00 00 00 	movabs $0x8000000000000002,%rbx
   1800242b0:	00 00 80
   1800242b3:	eb 20                	jmp    0x1800242d5
   1800242b5:	41 b8 07 00 00 00    	mov    $0x7,%r8d
   1800242bb:	48 8b d7             	mov    %rdi,%rdx
   1800242be:	48 8b cb             	mov    %rbx,%rcx
   1800242c1:	e8 2a fc ff ff       	call   0x180023ef0
   1800242c6:	48 8b d8             	mov    %rax,%rbx
   1800242c9:	eb 0a                	jmp    0x1800242d5
   1800242cb:	48 bb 0e 00 00 00 00 	movabs $0x800000000000000e,%rbx
   1800242d2:	00 00 80
   1800242d5:	48 8d 0d e4 a3 02 00 	lea    0x2a3e4(%rip),%rcx        # 0x18004e6c0
   1800242dc:	e8 3b 08 00 00       	call   0x180024b1c
   1800242e1:	48 8b c3             	mov    %rbx,%rax
   1800242e4:	48 8b 5c 24 30       	mov    0x30(%rsp),%rbx
   1800242e9:	48 83 c4 20          	add    $0x20,%rsp
   1800242ed:	5f                   	pop    %rdi
   1800242ee:	c3                   	ret
   1800242ef:	cc                   	int3
   1800242f0:	41 b8 07 00 00 00    	mov    $0x7,%r8d
   1800242f6:	e9 f5 fb ff ff       	jmp    0x180023ef0
   1800242fb:	cc                   	int3
   1800242fc:	48 f7 c2 ff 0f 00 00 	test   $0xfff,%rdx
   180024303:	0f 85 fd 01 00 00    	jne    0x180024506
   180024309:	48 89 5c 24 08       	mov    %rbx,0x8(%rsp)
   18002430e:	48 89 6c 24 10       	mov    %rbp,0x10(%rsp)
   180024313:	48 89 74 24 18       	mov    %rsi,0x18(%rsp)
   180024318:	57                   	push   %rdi
   180024319:	41 55                	push   %r13
   18002431b:	41 57                	push   %r15
   18002431d:	48 83 ec 20          	sub    $0x20,%rsp
   180024321:	48 63 d9             	movslq %ecx,%rbx
   180024324:	49 8b e9             	mov    %r9,%rbp
   180024327:	49 8b f0             	mov    %r8,%rsi
   18002432a:	83 fb 0e             	cmp    $0xe,%ebx
   18002432d:	48 8b fa             	mov    %rdx,%rdi
   180024330:	7c 0c                	jl     0x18002433e
   180024332:	81 fb ff ff ff 7f    	cmp    $0x7fffffff,%ebx
   180024338:	0f 8e b0 01 00 00    	jle    0x1800244ee
   18002433e:	48 8d 0d 7b a3 02 00 	lea    0x2a37b(%rip),%rcx        # 0x18004e6c0
   180024345:	e8 ca 07 00 00       	call   0x180024b14
   18002434a:	ba 0c 00 00 00       	mov    $0xc,%edx
   18002434f:	48 8b ce             	mov    %rsi,%rcx
   180024352:	e8 f9 b2 ff ff       	call   0x18001f650
   180024357:	4c 8b cd             	mov    %rbp,%r9
   18002435a:	48 8b d7             	mov    %rdi,%rdx
   18002435d:	4c 8d 44 38 ff       	lea    -0x1(%rax,%rdi,1),%r8
   180024362:	8b cb                	mov    %ebx,%ecx
   180024364:	e8 5b f7 ff ff       	call   0x180023ac4
   180024369:	48 8d 04 5b          	lea    (%rbx,%rbx,2),%rax
   18002436d:	4c 8d 3d 4c 92 02 00 	lea    0x2924c(%rip),%r15        # 0x18004d5c0
   180024374:	48 03 c0             	add    %rax,%rax
   180024377:	49 01 74 c7 10       	add    %rsi,0x10(%r15,%rax,8)
   18002437c:	e8 6f fa ff ff       	call   0x180023df0
   180024381:	48 8d 0d 38 a3 02 00 	lea    0x2a338(%rip),%rcx        # 0x18004e6c0
   180024388:	e8 8f 07 00 00       	call   0x180024b1c
   18002438d:	80 3d 2c c9 02 00 00 	cmpb   $0x0,0x2c92c(%rip)        # 0x180050cc0
   180024394:	0f 85 54 01 00 00    	jne    0x1800244ee
   18002439a:	8b 15 00 95 02 00    	mov    0x29500(%rip),%edx        # 0x18004d8a0
   1800243a0:	33 f6                	xor    %esi,%esi
   1800243a2:	4c 8d 2d f7 94 02 00 	lea    0x294f7(%rip),%r13        # 0x18004d8a0
   1800243a9:	83 fa 0e             	cmp    $0xe,%edx
   1800243ac:	0f 84 8a 00 00 00    	je     0x18002443c
   1800243b2:	49 8b c5             	mov    %r13,%rax
   1800243b5:	33 db                	xor    %ebx,%ebx
   1800243b7:	48 63 10             	movslq (%rax),%rdx
   1800243ba:	83 fa 0e             	cmp    $0xe,%edx
   1800243bd:	77 64                	ja     0x180024423
   1800243bf:	42 8b 4c 2b 04       	mov    0x4(%rbx,%r13,1),%ecx
   1800243c4:	85 c9                	test   %ecx,%ecx
   1800243c6:	74 5b                	je     0x180024423
   1800243c8:	48 8d 2c 52          	lea    (%rdx,%rdx,2),%rbp
   1800243cc:	4c 8b c1             	mov    %rcx,%r8
   1800243cf:	33 c9                	xor    %ecx,%ecx
   1800243d1:	48 03 ed             	add    %rbp,%rbp
   1800243d4:	49 8d 3c ef          	lea    (%r15,%rbp,8),%rdi
   1800243d8:	4c 8b cf             	mov    %rdi,%r9
   1800243db:	e8 60 fd ff ff       	call   0x180024140
   1800243e0:	48 b9 00 00 00 00 00 	movabs $0x8000000000000000,%rcx
   1800243e7:	00 00 80
   1800243ea:	48 85 c1             	test   %rax,%rcx
   1800243ed:	0f 85 14 01 00 00    	jne    0x180024507
   1800243f3:	42 8b 4c 2b 04       	mov    0x4(%rbx,%r13,1),%ecx
   1800243f8:	48 8b 3f             	mov    (%rdi),%rdi
   1800243fb:	ba 0c 00 00 00       	mov    $0xc,%edx
   180024400:	e8 4b b2 ff ff       	call   0x18001f650
   180024405:	48 8d 4c 38 ff       	lea    -0x1(%rax,%rdi,1),%rcx
   18002440a:	49 89 4c ef 08       	mov    %rcx,0x8(%r15,%rbp,8)
   18002440f:	48 3b 3d 7a 94 02 00 	cmp    0x2947a(%rip),%rdi        # 0x18004d890
   180024416:	73 0b                	jae    0x180024423
   180024418:	48 8d 47 ff          	lea    -0x1(%rdi),%rax
   18002441c:	48 89 05 6d 94 02 00 	mov    %rax,0x2946d(%rip)        # 0x18004d890
   180024423:	48 ff c6             	inc    %rsi
   180024426:	48 8b de             	mov    %rsi,%rbx
   180024429:	48 c1 e3 03          	shl    $0x3,%rbx
   18002442d:	4a 8d 04 2b          	lea    (%rbx,%r13,1),%rax
   180024431:	83 38 0e             	cmpl   $0xe,(%rax)
   180024434:	75 81                	jne    0x1800243b7
   180024436:	8b 15 64 94 02 00    	mov    0x29464(%rip),%edx        # 0x18004d8a0
   18002443c:	33 f6                	xor    %esi,%esi
   18002443e:	83 fa 0e             	cmp    $0xe,%edx
   180024441:	74 52                	je     0x180024495
   180024443:	49 8b c5             	mov    %r13,%rax
   180024446:	33 ff                	xor    %edi,%edi
   180024448:	83 38 0e             	cmpl   $0xe,(%rax)
   18002444b:	77 2f                	ja     0x18002447c
   18002444d:	42 8b 4c 2f 04       	mov    0x4(%rdi,%r13,1),%ecx
   180024452:	85 c9                	test   %ecx,%ecx
   180024454:	74 26                	je     0x18002447c
   180024456:	48 63 00             	movslq (%rax),%rax
   180024459:	48 8b d1             	mov    %rcx,%rdx
   18002445c:	48 8d 1c 40          	lea    (%rax,%rax,2),%rbx
   180024460:	48 03 db             	add    %rbx,%rbx
   180024463:	49 8b 0c df          	mov    (%r15,%rbx,8),%rcx
   180024467:	e8 ec fd ff ff       	call   0x180024258
   18002446c:	46 8b 5c 2f 04       	mov    0x4(%rdi,%r13,1),%r11d
   180024471:	42 83 64 2f 04 00    	andl   $0x0,0x4(%rdi,%r13,1)
   180024477:	4d 89 5c df 18       	mov    %r11,0x18(%r15,%rbx,8)
   18002447c:	48 ff c6             	inc    %rsi
   18002447f:	48 8b fe             	mov    %rsi,%rdi
   180024482:	48 c1 e7 03          	shl    $0x3,%rdi
   180024486:	4a 8d 04 2f          	lea    (%rdi,%r13,1),%rax
   18002448a:	83 38 0e             	cmpl   $0xe,(%rax)
   18002448d:	75 bc                	jne    0x18002444b
   18002448f:	8b 15 0b 94 02 00    	mov    0x2940b(%rip),%edx        # 0x18004d8a0
   180024495:	45 33 c9             	xor    %r9d,%r9d
   180024498:	48 8d 0d 29 91 02 00 	lea    0x29129(%rip),%rcx        # 0x18004d5c8
   18002449f:	bd ff ff ff ff       	mov    $0xffffffff,%ebp
   1800244a4:	33 c0                	xor    %eax,%eax
   1800244a6:	83 fa 0e             	cmp    $0xe,%edx
   1800244a9:	74 1a                	je     0x1800244c5
   1800244ab:	4d 8b c5             	mov    %r13,%r8
   1800244ae:	45 3b 08             	cmp    (%r8),%r9d
   1800244b1:	75 04                	jne    0x1800244b7
   1800244b3:	48 89 41 18          	mov    %rax,0x18(%rcx)
   1800244b7:	48 ff c0             	inc    %rax
   1800244ba:	4d 8d 44 c5 00       	lea    0x0(%r13,%rax,8),%r8
   1800244bf:	41 83 38 0e          	cmpl   $0xe,(%r8)
   1800244c3:	75 e9                	jne    0x1800244ae
   1800244c5:	48 39 29             	cmp    %rbp,(%rcx)
   1800244c8:	75 0a                	jne    0x1800244d4
   1800244ca:	48 8b 05 bf 93 02 00 	mov    0x293bf(%rip),%rax        # 0x18004d890
   1800244d1:	48 89 01             	mov    %rax,(%rcx)
   1800244d4:	48 8d 05 8d 93 02 00 	lea    0x2938d(%rip),%rax        # 0x18004d868
   1800244db:	48 83 c1 30          	add    $0x30,%rcx
   1800244df:	41 ff c1             	inc    %r9d
   1800244e2:	48 3b c8             	cmp    %rax,%rcx
   1800244e5:	7c bd                	jl     0x1800244a4
   1800244e7:	c6 05 d2 c7 02 00 01 	movb   $0x1,0x2c7d2(%rip)        # 0x180050cc0
   1800244ee:	48 8b 5c 24 40       	mov    0x40(%rsp),%rbx
   1800244f3:	48 8b 6c 24 48       	mov    0x48(%rsp),%rbp
   1800244f8:	48 8b 74 24 50       	mov    0x50(%rsp),%rsi
   1800244fd:	48 83 c4 20          	add    $0x20,%rsp
   180024501:	41 5f                	pop    %r15
   180024503:	41 5d                	pop    %r13
   180024505:	5f                   	pop    %rdi
   180024506:	c3                   	ret
   180024507:	33 ff                	xor    %edi,%edi
   180024509:	48 85 f6             	test   %rsi,%rsi
   18002450c:	74 e0                	je     0x1800244ee
   18002450e:	bd ff ff ff ff       	mov    $0xffffffff,%ebp
   180024513:	41 83 7c fd 00 0e    	cmpl   $0xe,0x0(%r13,%rdi,8)
   180024519:	77 2b                	ja     0x180024546
   18002451b:	41 8b 4c fd 04       	mov    0x4(%r13,%rdi,8),%ecx
   180024520:	85 c9                	test   %ecx,%ecx
   180024522:	74 22                	je     0x180024546
   180024524:	49 63 44 fd 00       	movslq 0x0(%r13,%rdi,8),%rax
   180024529:	48 8b d1             	mov    %rcx,%rdx
   18002452c:	48 8d 1c 40          	lea    (%rax,%rax,2),%rbx
   180024530:	48 03 db             	add    %rbx,%rbx
   180024533:	49 8b 0c df          	mov    (%r15,%rbx,8),%rcx
   180024537:	e8 1c fd ff ff       	call   0x180024258
   18002453c:	49 83 24 df 00       	andq   $0x0,(%r15,%rbx,8)
   180024541:	49 89 6c df 08       	mov    %rbp,0x8(%r15,%rbx,8)
   180024546:	48 ff c7             	inc    %rdi
   180024549:	48 3b fe             	cmp    %rsi,%rdi
   18002454c:	72 c5                	jb     0x180024513
   18002454e:	eb 9e                	jmp    0x1800244ee
   180024550:	48 89 5c 24 08       	mov    %rbx,0x8(%rsp)
   180024555:	57                   	push   %rdi
   180024556:	48 83 ec 20          	sub    $0x20,%rsp
   18002455a:	48 8b 1d 1f a1 02 00 	mov    0x2a11f(%rip),%rbx        # 0x18004e680
   180024561:	48 8b f9             	mov    %rcx,%rdi
   180024564:	48 83 f9 1f          	cmp    $0x1f,%rcx
   180024568:	72 18                	jb     0x180024582
   18002456a:	48 83 fb 1f          	cmp    $0x1f,%rbx
   18002456e:	73 12                	jae    0x180024582
   180024570:	48 8b 15 e9 c4 02 00 	mov    0x2c4e9(%rip),%rdx        # 0x180050a60
   180024577:	48 85 d2             	test   %rdx,%rdx
   18002457a:	74 06                	je     0x180024582
   18002457c:	48 8b ca             	mov    %rdx,%rcx
   18002457f:	ff 52 10             	call   *0x10(%rdx)
   180024582:	48 8b c3             	mov    %rbx,%rax
   180024585:	48 8b 5c 24 30       	mov    0x30(%rsp),%rbx
   18002458a:	48 89 3d ef a0 02 00 	mov    %rdi,0x2a0ef(%rip)        # 0x18004e680
   180024591:	48 83 c4 20          	add    $0x20,%rsp
   180024595:	5f                   	pop    %rdi
   180024596:	c3                   	ret
   180024597:	cc                   	int3
   180024598:	48 89 5c 24 08       	mov    %rbx,0x8(%rsp)
   18002459d:	57                   	push   %rdi
   18002459e:	48 83 ec 20          	sub    $0x20,%rsp
   1800245a2:	b8 fe ff ff ff       	mov    $0xfffffffe,%eax
   1800245a7:	48 8b d9             	mov    %rcx,%rbx
   1800245aa:	d3 e0                	shl    %cl,%eax
   1800245ac:	48 63 f8             	movslq %eax,%rdi
   1800245af:	eb 3c                	jmp    0x1800245ed
   1800245b1:	b9 1f 00 00 00       	mov    $0x1f,%ecx
   1800245b6:	48 0f a3 c8          	bt     %rcx,%rax
   1800245ba:	72 06                	jb     0x1800245c2
   1800245bc:	48 83 e9 01          	sub    $0x1,%rcx
   1800245c0:	75 f4                	jne    0x1800245b6
   1800245c2:	48 89 0d b7 a0 02 00 	mov    %rcx,0x2a0b7(%rip)        # 0x18004e680
   1800245c9:	48 83 f9 1f          	cmp    $0x1f,%rcx
   1800245cd:	73 19                	jae    0x1800245e8
   1800245cf:	48 8b 05 8a c4 02 00 	mov    0x2c48a(%rip),%rax        # 0x180050a60
   1800245d6:	48 85 c0             	test   %rax,%rax
   1800245d9:	74 0d                	je     0x1800245e8
   1800245db:	48 8b c8             	mov    %rax,%rcx
   1800245de:	ff 50 08             	call   *0x8(%rax)
   1800245e1:	48 8b 0d 98 a0 02 00 	mov    0x2a098(%rip),%rcx        # 0x18004e680
   1800245e8:	e8 93 a9 ff ff       	call   0x18001ef80
   1800245ed:	48 8b 05 5c c8 02 00 	mov    0x2c85c(%rip),%rax        # 0x180050e50
   1800245f4:	48 85 f8             	test   %rdi,%rax
   1800245f7:	75 b8                	jne    0x1800245b1
   1800245f9:	48 89 1d 80 a0 02 00 	mov    %rbx,0x2a080(%rip)        # 0x18004e680
   180024600:	48 83 fb 1f          	cmp    $0x1f,%rbx
   180024604:	73 12                	jae    0x180024618
   180024606:	48 8b 05 53 c4 02 00 	mov    0x2c453(%rip),%rax        # 0x180050a60
   18002460d:	48 85 c0             	test   %rax,%rax
   180024610:	74 06                	je     0x180024618
   180024612:	48 8b c8             	mov    %rax,%rcx
   180024615:	ff 50 08             	call   *0x8(%rax)
   180024618:	48 8b 5c 24 30       	mov    0x30(%rsp),%rbx
   18002461d:	48 83 c4 20          	add    $0x20,%rsp
   180024621:	5f                   	pop    %rdi
   180024622:	c3                   	ret
   180024623:	cc                   	int3
   180024624:	44 0f b7 c1          	movzwl %cx,%r8d
   180024628:	48 8b c2             	mov    %rdx,%rax
   18002462b:	48 85 d2             	test   %rdx,%rdx
   18002462e:	75 02                	jne    0x180024632
   180024630:	f3 c3                	repz ret
   180024632:	0f b7 0a             	movzwl (%rdx),%ecx
   180024635:	41 b9 ff ff 00 00    	mov    $0xffff,%r9d
   18002463b:	eb 10                	jmp    0x18002464d
   18002463d:	66 41 3b c8          	cmp    %r8w,%cx
   180024641:	74 10                	je     0x180024653
   180024643:	0f b7 48 02          	movzwl 0x2(%rax),%ecx
   180024647:	48 03 c1             	add    %rcx,%rax
   18002464a:	66 8b 08             	mov    (%rax),%cx
   18002464d:	66 41 3b c9          	cmp    %r9w,%cx
   180024651:	75 ea                	jne    0x18002463d
   180024653:	66 44 39 08          	cmp    %r9w,(%rax)
   180024657:	48 0f 44 c2          	cmove  %rdx,%rax
   18002465b:	c3                   	ret
   18002465c:	40 53                	rex push %rbx
   18002465e:	48 83 ec 20          	sub    $0x20,%rsp
   180024662:	bb 06 00 00 00       	mov    $0x6,%ebx
   180024667:	4c 8b da             	mov    %rdx,%r11
   18002466a:	48 8b d1             	mov    %rcx,%rdx
   18002466d:	8b cb                	mov    %ebx,%ecx
   18002466f:	4d 8b d0             	mov    %r8,%r10
   180024672:	e8 ad ff ff ff       	call   0x180024624
   180024677:	66 39 18             	cmp    %bx,(%rax)
   18002467a:	74 0c                	je     0x180024688
   18002467c:	48 b8 0e 00 00 00 00 	movabs $0x800000000000000e,%rax
   180024683:	00 00 80
   180024686:	eb 0e                	jmp    0x180024696
   180024688:	8a 48 08             	mov    0x8(%rax),%cl
   18002468b:	41 88 0b             	mov    %cl,(%r11)
   18002468e:	8a 48 09             	mov    0x9(%rax),%cl
   180024691:	33 c0                	xor    %eax,%eax
   180024693:	41 88 0a             	mov    %cl,(%r10)
   180024696:	48 83 c4 20          	add    $0x20,%rsp
   18002469a:	5b                   	pop    %rbx
   18002469b:	c3                   	ret
   18002469c:	48 8b c4             	mov    %rsp,%rax
   18002469f:	48 89 58 08          	mov    %rbx,0x8(%rax)
   1800246a3:	48 89 68 10          	mov    %rbp,0x10(%rax)
   1800246a7:	48 89 70 18          	mov    %rsi,0x18(%rax)
   1800246ab:	48 89 78 20          	mov    %rdi,0x20(%rax)
   1800246af:	41 54                	push   %r12
   1800246b1:	48 83 ec 20          	sub    $0x20,%rsp
   1800246b5:	48 8b ea             	mov    %rdx,%rbp
   1800246b8:	48 8b d1             	mov    %rcx,%rdx
   1800246bb:	b9 02 00 00 00       	mov    $0x2,%ecx
   1800246c0:	49 8b f9             	mov    %r9,%rdi
   1800246c3:	49 8b f0             	mov    %r8,%rsi
   1800246c6:	e8 59 ff ff ff       	call   0x180024624
   1800246cb:	41 bc ff ff 00 00    	mov    $0xffff,%r12d
   1800246d1:	48 8b d8             	mov    %rax,%rbx
   1800246d4:	66 44 39 20          	cmp    %r12w,(%rax)
   1800246d8:	74 5a                	je     0x180024734
   1800246da:	48 8d 4b 08          	lea    0x8(%rbx),%rcx
   1800246de:	48 8d 15 33 92 02 00 	lea    0x29233(%rip),%rdx        # 0x18004d918
   1800246e5:	e8 be c9 00 00       	call   0x1800310a8
   1800246ea:	84 c0                	test   %al,%al
   1800246ec:	75 1a                	jne    0x180024708
   1800246ee:	0f b7 53 02          	movzwl 0x2(%rbx),%edx
   1800246f2:	b9 02 00 00 00       	mov    $0x2,%ecx
   1800246f7:	48 03 d3             	add    %rbx,%rdx
   1800246fa:	e8 25 ff ff ff       	call   0x180024624
   1800246ff:	48 8b d8             	mov    %rax,%rbx
   180024702:	66 44 39 20          	cmp    %r12w,(%rax)
   180024706:	75 d2                	jne    0x1800246da
   180024708:	66 44 39 23          	cmp    %r12w,(%rbx)
   18002470c:	74 26                	je     0x180024734
   18002470e:	48 8b 43 18          	mov    0x18(%rbx),%rax
   180024712:	48 83 c3 30          	add    $0x30,%rbx
   180024716:	48 89 45 00          	mov    %rax,0x0(%rbp)
   18002471a:	48 8b 43 f0          	mov    -0x10(%rbx),%rax
   18002471e:	48 89 06             	mov    %rax,(%rsi)
   180024721:	48 8b 43 10          	mov    0x10(%rbx),%rax
   180024725:	48 89 07             	mov    %rax,(%rdi)
   180024728:	48 8b 44 24 50       	mov    0x50(%rsp),%rax
   18002472d:	48 89 18             	mov    %rbx,(%rax)
   180024730:	33 c0                	xor    %eax,%eax
   180024732:	eb 0a                	jmp    0x18002473e
   180024734:	48 b8 0e 00 00 00 00 	movabs $0x800000000000000e,%rax
   18002473b:	00 00 80
   18002473e:	48 8b 5c 24 30       	mov    0x30(%rsp),%rbx
   180024743:	48 8b 6c 24 38       	mov    0x38(%rsp),%rbp
   180024748:	48 8b 74 24 40       	mov    0x40(%rsp),%rsi
   18002474d:	48 8b 7c 24 48       	mov    0x48(%rsp),%rdi
   180024752:	48 83 c4 20          	add    $0x20,%rsp
   180024756:	41 5c                	pop    %r12
   180024758:	c3                   	ret
   180024759:	cc                   	int3
   18002475a:	cc                   	int3
   18002475b:	cc                   	int3
   18002475c:	48 89 5c 24 08       	mov    %rbx,0x8(%rsp)
   180024761:	57                   	push   %rdi
   180024762:	48 83 ec 20          	sub    $0x20,%rsp
   180024766:	48 8b da             	mov    %rdx,%rbx
   180024769:	48 8b 11             	mov    (%rcx),%rdx
   18002476c:	b8 ff ff 00 00       	mov    $0xffff,%eax
   180024771:	4d 8b d8             	mov    %r8,%r11
   180024774:	4c 8b d1             	mov    %rcx,%r10
   180024777:	66 39 02             	cmp    %ax,(%rdx)
   18002477a:	75 0c                	jne    0x180024788
   18002477c:	48 b8 0e 00 00 00 00 	movabs $0x800000000000000e,%rax
   180024783:	00 00 80
   180024786:	eb 2b                	jmp    0x1800247b3
   180024788:	bf 05 00 00 00       	mov    $0x5,%edi
   18002478d:	8b cf                	mov    %edi,%ecx
   18002478f:	e8 90 fe ff ff       	call   0x180024624
   180024794:	66 39 38             	cmp    %di,(%rax)
   180024797:	75 e3                	jne    0x18002477c
   180024799:	48 8b 48 08          	mov    0x8(%rax),%rcx
   18002479d:	48 89 0b             	mov    %rcx,(%rbx)
   1800247a0:	48 8b 48 10          	mov    0x10(%rax),%rcx
   1800247a4:	49 89 0b             	mov    %rcx,(%r11)
   1800247a7:	0f b7 48 02          	movzwl 0x2(%rax),%ecx
   1800247ab:	48 03 c8             	add    %rax,%rcx
   1800247ae:	33 c0                	xor    %eax,%eax
   1800247b0:	49 89 0a             	mov    %rcx,(%r10)
   1800247b3:	48 8b 5c 24 30       	mov    0x30(%rsp),%rbx
   1800247b8:	48 83 c4 20          	add    $0x20,%rsp
   1800247bc:	5f                   	pop    %rdi
   1800247bd:	c3                   	ret
   1800247be:	cc                   	int3
   1800247bf:	cc                   	int3
   1800247c0:	48 89 5c 24 08       	mov    %rbx,0x8(%rsp)
   1800247c5:	48 89 6c 24 10       	mov    %rbp,0x10(%rsp)
   1800247ca:	48 89 74 24 18       	mov    %rsi,0x18(%rsp)
   1800247cf:	57                   	push   %rdi
   1800247d0:	48 83 ec 20          	sub    $0x20,%rsp
   1800247d4:	48 8b f2             	mov    %rdx,%rsi
   1800247d7:	48 8b 11             	mov    (%rcx),%rdx
   1800247da:	b8 ff ff 00 00       	mov    $0xffff,%eax
   1800247df:	4d 8b d1             	mov    %r9,%r10
   1800247e2:	4d 8b d8             	mov    %r8,%r11
   1800247e5:	48 8b f9             	mov    %rcx,%rdi
   1800247e8:	66 39 02             	cmp    %ax,(%rdx)
   1800247eb:	75 0c                	jne    0x1800247f9
   1800247ed:	48 b8 0e 00 00 00 00 	movabs $0x800000000000000e,%rax
   1800247f4:	00 00 80
   1800247f7:	eb 3f                	jmp    0x180024838
   1800247f9:	bd 09 00 00 00       	mov    $0x9,%ebp
   1800247fe:	8b cd                	mov    %ebp,%ecx
   180024800:	e8 1f fe ff ff       	call   0x180024624
   180024805:	48 8b d8             	mov    %rax,%rbx
   180024808:	66 39 28             	cmp    %bp,(%rax)
   18002480b:	75 e0                	jne    0x1800247ed
   18002480d:	48 8b 40 08          	mov    0x8(%rax),%rax
   180024811:	48 8d 53 28          	lea    0x28(%rbx),%rdx
   180024815:	44 8d 45 07          	lea    0x7(%rbp),%r8d
   180024819:	48 89 06             	mov    %rax,(%rsi)
   18002481c:	48 8b 43 10          	mov    0x10(%rbx),%rax
   180024820:	49 8b ca             	mov    %r10,%rcx
   180024823:	49 89 03             	mov    %rax,(%r11)
   180024826:	e8 fd ad ff ff       	call   0x18001f628
   18002482b:	44 0f b7 5b 02       	movzwl 0x2(%rbx),%r11d
   180024830:	4c 03 db             	add    %rbx,%r11
   180024833:	33 c0                	xor    %eax,%eax
   180024835:	4c 89 1f             	mov    %r11,(%rdi)
   180024838:	48 8b 5c 24 30       	mov    0x30(%rsp),%rbx
   18002483d:	48 8b 6c 24 38       	mov    0x38(%rsp),%rbp
   180024842:	48 8b 74 24 40       	mov    0x40(%rsp),%rsi
   180024847:	48 83 c4 20          	add    $0x20,%rsp
   18002484b:	5f                   	pop    %rdi
   18002484c:	c3                   	ret
   18002484d:	cc                   	int3
   18002484e:	cc                   	int3
   18002484f:	cc                   	int3
   180024850:	48 89 5c 24 08       	mov    %rbx,0x8(%rsp)
   180024855:	48 89 6c 24 10       	mov    %rbp,0x10(%rsp)
   18002485a:	48 89 74 24 18       	mov    %rsi,0x18(%rsp)
   18002485f:	57                   	push   %rdi
   180024860:	41 54                	push   %r12
   180024862:	41 55                	push   %r13
   180024864:	41 56                	push   %r14
   180024866:	41 57                	push   %r15
   180024868:	48 83 ec 20          	sub    $0x20,%rsp
   18002486c:	49 8b f1             	mov    %r9,%rsi
   18002486f:	49 8b e8             	mov    %r8,%rbp
   180024872:	4c 8b ea             	mov    %rdx,%r13
   180024875:	4c 8b e1             	mov    %rcx,%r12
   180024878:	4d 85 c0             	test   %r8,%r8
   18002487b:	75 0c                	jne    0x180024889
   18002487d:	48 b8 02 00 00 00 00 	movabs $0x8000000000000002,%rax
   180024884:	00 00 80
   180024887:	eb 7e                	jmp    0x180024907
   180024889:	49 be 0e 00 00 00 00 	movabs $0x800000000000000e,%r14
   180024890:	00 00 80
   180024893:	41 bf 04 00 00 00    	mov    $0x4,%r15d
   180024899:	49 8b fe             	mov    %r14,%rdi
   18002489c:	49 8b 14 24          	mov    (%r12),%rdx
   1800248a0:	b8 ff ff 00 00       	mov    $0xffff,%eax
   1800248a5:	66 39 02             	cmp    %ax,(%rdx)
   1800248a8:	74 5a                	je     0x180024904
   1800248aa:	41 8b cf             	mov    %r15d,%ecx
   1800248ad:	e8 72 fd ff ff       	call   0x180024624
   1800248b2:	48 8b d8             	mov    %rax,%rbx
   1800248b5:	66 44 39 38          	cmp    %r15w,(%rax)
   1800248b9:	75 2a                	jne    0x1800248e5
   1800248bb:	48 8d 50 08          	lea    0x8(%rax),%rdx
   1800248bf:	49 8b cd             	mov    %r13,%rcx
   1800248c2:	e8 e1 c7 00 00       	call   0x1800310a8
   1800248c7:	84 c0                	test   %al,%al
   1800248c9:	74 1a                	je     0x1800248e5
   1800248cb:	48 8d 43 18          	lea    0x18(%rbx),%rax
   1800248cf:	33 ff                	xor    %edi,%edi
   1800248d1:	48 89 45 00          	mov    %rax,0x0(%rbp)
   1800248d5:	48 85 f6             	test   %rsi,%rsi
   1800248d8:	74 0b                	je     0x1800248e5
   1800248da:	0f b7 43 02          	movzwl 0x2(%rbx),%eax
   1800248de:	48 83 e8 18          	sub    $0x18,%rax
   1800248e2:	48 89 06             	mov    %rax,(%rsi)
   1800248e5:	0f b7 43 02          	movzwl 0x2(%rbx),%eax
   1800248e9:	48 03 c3             	add    %rbx,%rax
   1800248ec:	49 89 04 24          	mov    %rax,(%r12)
   1800248f0:	48 b8 00 00 00 00 00 	movabs $0x8000000000000000,%rax
   1800248f7:	00 00 80
   1800248fa:	48 85 f8             	test   %rdi,%rax
   1800248fd:	75 9d                	jne    0x18002489c
   1800248ff:	48 8b c7             	mov    %rdi,%rax
   180024902:	eb 03                	jmp    0x180024907
   180024904:	49 8b c6             	mov    %r14,%rax
   180024907:	48 8b 5c 24 50       	mov    0x50(%rsp),%rbx
   18002490c:	48 8b 6c 24 58       	mov    0x58(%rsp),%rbp
   180024911:	48 8b 74 24 60       	mov    0x60(%rsp),%rsi
   180024916:	48 83 c4 20          	add    $0x20,%rsp
   18002491a:	41 5f                	pop    %r15
   18002491c:	41 5e                	pop    %r14
   18002491e:	41 5d                	pop    %r13
   180024920:	41 5c                	pop    %r12
   180024922:	5f                   	pop    %rdi
   180024923:	c3                   	ret
   180024924:	48 83 ec 38          	sub    $0x38,%rsp
   180024928:	b8 0c 00 00 00       	mov    $0xc,%eax
   18002492d:	48 89 15 1c 90 02 00 	mov    %rdx,0x2901c(%rip)        # 0x18004d950
   180024934:	66 89 05 ff 8f 02 00 	mov    %ax,0x28fff(%rip)        # 0x18004d93a
   18002493b:	48 8b 05 8e 73 02 00 	mov    0x2738e(%rip),%rax        # 0x18004bcd0
   180024942:	48 85 c0             	test   %rax,%rax
   180024945:	74 24                	je     0x18002496b
   180024947:	48 83 38 00          	cmpq   $0x0,(%rax)
   18002494b:	74 1e                	je     0x18002496b
   18002494d:	48 8d 15 e4 8f 02 00 	lea    0x28fe4(%rip),%rdx        # 0x18004d938
   180024954:	45 33 c0             	xor    %r8d,%r8d
   180024957:	4c 8d 0d 82 93 02 00 	lea    0x29382(%rip),%r9        # 0x18004dce0
   18002495e:	48 89 54 24 20       	mov    %rdx,0x20(%rsp)
   180024963:	8b d1                	mov    %ecx,%edx
   180024965:	41 8d 48 01          	lea    0x1(%r8),%ecx
   180024969:	ff 10                	call   *(%rax)
   18002496b:	48 83 c4 38          	add    $0x38,%rsp
   18002496f:	c3                   	ret
   180024970:	48 83 ec 38          	sub    $0x38,%rsp
   180024974:	48 8b 05 55 73 02 00 	mov    0x27355(%rip),%rax        # 0x18004bcd0
   18002497b:	48 85 c0             	test   %rax,%rax
   18002497e:	74 1e                	je     0x18002499e
   180024980:	48 83 38 00          	cmpq   $0x0,(%rax)
   180024984:	74 18                	je     0x18002499e
   180024986:	48 83 64 24 20 00    	andq   $0x0,0x20(%rsp)
   18002498c:	45 33 c0             	xor    %r8d,%r8d
   18002498f:	8b d1                	mov    %ecx,%edx
   180024991:	41 8d 48 01          	lea    0x1(%r8),%ecx
   180024995:	4c 8d 0d 44 93 02 00 	lea    0x29344(%rip),%r9        # 0x18004dce0
   18002499c:	ff 10                	call   *(%rax)
   18002499e:	48 83 c4 38          	add    $0x38,%rsp
   1800249a2:	c3                   	ret
   1800249a3:	cc                   	int3
   1800249a4:	48 83 ec 28          	sub    $0x28,%rsp
   1800249a8:	48 8b d1             	mov    %rcx,%rdx
   1800249ab:	4c 8d 44 24 38       	lea    0x38(%rsp),%r8
   1800249b0:	b9 04 00 00 00       	mov    $0x4,%ecx
   1800249b5:	e8 f6 e9 ff ff       	call   0x1800233b0
   1800249ba:	48 8b 44 24 38       	mov    0x38(%rsp),%rax
   1800249bf:	48 83 c4 28          	add    $0x28,%rsp
   1800249c3:	c3                   	ret
   1800249c4:	48 89 5c 24 10       	mov    %rbx,0x10(%rsp)
   1800249c9:	57                   	push   %rdi
   1800249ca:	48 83 ec 20          	sub    $0x20,%rsp
   1800249ce:	48 8b f9             	mov    %rcx,%rdi
   1800249d1:	48 8b d1             	mov    %rcx,%rdx
   1800249d4:	4c 8d 44 24 30       	lea    0x30(%rsp),%r8
   1800249d9:	b9 04 00 00 00       	mov    $0x4,%ecx
   1800249de:	e8 cd e9 ff ff       	call   0x1800233b0
   1800249e3:	48 8b 5c 24 30       	mov    0x30(%rsp),%rbx
   1800249e8:	48 8b d3             	mov    %rbx,%rdx
   1800249eb:	48 8b cb             	mov    %rbx,%rcx
   1800249ee:	48 f7 da             	neg    %rdx
   1800249f1:	48 1b d2             	sbb    %rdx,%rdx
   1800249f4:	45 33 c0             	xor    %r8d,%r8d
   1800249f7:	48 23 d7             	and    %rdi,%rdx
   1800249fa:	e8 21 ac ff ff       	call   0x18001f620
   1800249ff:	48 8b c3             	mov    %rbx,%rax
   180024a02:	48 8b 5c 24 38       	mov    0x38(%rsp),%rbx
   180024a07:	48 83 c4 20          	add    $0x20,%rsp
   180024a0b:	5f                   	pop    %rdi
   180024a0c:	c3                   	ret
   180024a0d:	cc                   	int3
   180024a0e:	cc                   	int3
   180024a0f:	cc                   	int3
   180024a10:	48 89 5c 24 10       	mov    %rbx,0x10(%rsp)
   180024a15:	48 89 74 24 18       	mov    %rsi,0x18(%rsp)
   180024a1a:	57                   	push   %rdi
   180024a1b:	48 83 ec 20          	sub    $0x20,%rsp
   180024a1f:	48 8b f2             	mov    %rdx,%rsi
   180024a22:	48 8b f9             	mov    %rcx,%rdi
   180024a25:	48 8b d1             	mov    %rcx,%rdx
   180024a28:	4c 8d 44 24 30       	lea    0x30(%rsp),%r8
   180024a2d:	b9 04 00 00 00       	mov    $0x4,%ecx
   180024a32:	e8 79 e9 ff ff       	call   0x1800233b0
   180024a37:	48 8b 5c 24 30       	mov    0x30(%rsp),%rbx
   180024a3c:	48 8b d6             	mov    %rsi,%rdx
   180024a3f:	4c 8b c3             	mov    %rbx,%r8
   180024a42:	48 8b cb             	mov    %rbx,%rcx
   180024a45:	49 f7 d8             	neg    %r8
   180024a48:	4d 1b c0             	sbb    %r8,%r8
   180024a4b:	4c 23 c7             	and    %rdi,%r8
   180024a4e:	e8 d5 ab ff ff       	call   0x18001f628
   180024a53:	48 8b 74 24 40       	mov    0x40(%rsp),%rsi
   180024a58:	48 8b c3             	mov    %rbx,%rax
   180024a5b:	48 8b 5c 24 38       	mov    0x38(%rsp),%rbx
   180024a60:	48 83 c4 20          	add    $0x20,%rsp
   180024a64:	5f                   	pop    %rdi
   180024a65:	c3                   	ret
   180024a66:	cc                   	int3
   180024a67:	cc                   	int3
   180024a68:	48 83 ec 28          	sub    $0x28,%rsp
   180024a6c:	48 8b d1             	mov    %rcx,%rdx
   180024a6f:	4c 8d 44 24 38       	lea    0x38(%rsp),%r8
   180024a74:	b9 06 00 00 00       	mov    $0x6,%ecx
   180024a79:	e8 32 e9 ff ff       	call   0x1800233b0
   180024a7e:	48 8b 44 24 38       	mov    0x38(%rsp),%rax
   180024a83:	48 83 c4 28          	add    $0x28,%rsp
   180024a87:	c3                   	ret
   180024a88:	48 89 5c 24 10       	mov    %rbx,0x10(%rsp)
   180024a8d:	48 89 74 24 18       	mov    %rsi,0x18(%rsp)
   180024a92:	57                   	push   %rdi
   180024a93:	48 83 ec 20          	sub    $0x20,%rsp
   180024a97:	48 8b f2             	mov    %rdx,%rsi
   180024a9a:	48 8b f9             	mov    %rcx,%rdi
   180024a9d:	48 8b d1             	mov    %rcx,%rdx
   180024aa0:	4c 8d 44 24 30       	lea    0x30(%rsp),%r8
   180024aa5:	b9 06 00 00 00       	mov    $0x6,%ecx
   180024aaa:	e8 01 e9 ff ff       	call   0x1800233b0
   180024aaf:	48 8b 5c 24 30       	mov    0x30(%rsp),%rbx
   180024ab4:	48 8b d6             	mov    %rsi,%rdx
   180024ab7:	4c 8b c3             	mov    %rbx,%r8
   180024aba:	48 8b cb             	mov    %rbx,%rcx
   180024abd:	49 f7 d8             	neg    %r8
   180024ac0:	4d 1b c0             	sbb    %r8,%r8
   180024ac3:	4c 23 c7             	and    %rdi,%r8
   180024ac6:	e8 5d ab ff ff       	call   0x18001f628
   180024acb:	48 8b 74 24 40       	mov    0x40(%rsp),%rsi
   180024ad0:	48 8b c3             	mov    %rbx,%rax
   180024ad3:	48 8b 5c 24 38       	mov    0x38(%rsp),%rbx
   180024ad8:	48 83 c4 20          	add    $0x20,%rsp
   180024adc:	5f                   	pop    %rdi
   180024add:	c3                   	ret
   180024ade:	cc                   	int3
   180024adf:	cc                   	int3
   180024ae0:	40 53                	rex push %rbx
   180024ae2:	48 83 ec 20          	sub    $0x20,%rsp
   180024ae6:	48 83 79 10 00       	cmpq   $0x0,0x10(%rcx)
   180024aeb:	48 8b d9             	mov    %rcx,%rbx
   180024aee:	74 0c                	je     0x180024afc
   180024af0:	48 b8 0f 00 00 00 00 	movabs $0x800000000000000f,%rax
   180024af7:	00 00 80
   180024afa:	eb 12                	jmp    0x180024b0e
   180024afc:	48 8b 09             	mov    (%rcx),%rcx
   180024aff:	e8 4c fa ff ff       	call   0x180024550
   180024b04:	48 ff 43 10          	incq   0x10(%rbx)
   180024b08:	48 89 43 08          	mov    %rax,0x8(%rbx)
   180024b0c:	33 c0                	xor    %eax,%eax
   180024b0e:	48 83 c4 20          	add    $0x20,%rsp
   180024b12:	5b                   	pop    %rbx
   180024b13:	c3                   	ret
   180024b14:	e9 c7 ff ff ff       	jmp    0x180024ae0
   180024b19:	cc                   	int3
   180024b1a:	cc                   	int3
   180024b1b:	cc                   	int3
   180024b1c:	48 ff 49 10          	decq   0x10(%rcx)
   180024b20:	48 8b 49 08          	mov    0x8(%rcx),%rcx
   180024b24:	e9 6f fa ff ff       	jmp    0x180024598
   180024b29:	cc                   	int3
   180024b2a:	cc                   	int3
   180024b2b:	cc                   	int3
   180024b2c:	48 8b d1             	mov    %rcx,%rdx
   180024b2f:	48 85 c9             	test   %rcx,%rcx
   180024b32:	75 03                	jne    0x180024b37
   180024b34:	33 c0                	xor    %eax,%eax
   180024b36:	c3                   	ret
   180024b37:	4c 8b c1             	mov    %rcx,%r8
   180024b3a:	8a 02                	mov    (%rdx),%al
   180024b3c:	24 7f                	and    $0x7f,%al
   180024b3e:	3c 7f                	cmp    $0x7f,%al
   180024b40:	75 06                	jne    0x180024b48
   180024b42:	80 7a 01 ff          	cmpb   $0xff,0x1(%rdx)
   180024b46:	74 16                	je     0x180024b5e
   180024b48:	0f b6 42 03          	movzbl 0x3(%rdx),%eax
   180024b4c:	c1 e0 08             	shl    $0x8,%eax
   180024b4f:	48 63 c8             	movslq %eax,%rcx
   180024b52:	0f b6 42 02          	movzbl 0x2(%rdx),%eax
   180024b56:	48 0b c8             	or     %rax,%rcx
   180024b59:	48 03 d1             	add    %rcx,%rdx
   180024b5c:	eb dc                	jmp    0x180024b3a
   180024b5e:	49 2b d0             	sub    %r8,%rdx
   180024b61:	48 8d 42 04          	lea    0x4(%rdx),%rax
   180024b65:	c3                   	ret
   180024b66:	cc                   	int3
   180024b67:	cc                   	int3
   180024b68:	48 83 ec 28          	sub    $0x28,%rsp
   180024b6c:	4c 8b c9             	mov    %rcx,%r9
   180024b6f:	48 85 c9             	test   %rcx,%rcx
   180024b72:	75 04                	jne    0x180024b78
   180024b74:	33 c0                	xor    %eax,%eax
   180024b76:	eb 10                	jmp    0x180024b88
   180024b78:	e8 af ff ff ff       	call   0x180024b2c
   180024b7d:	49 8b d1             	mov    %r9,%rdx
   180024b80:	48 8b c8             	mov    %rax,%rcx
   180024b83:	e8 88 fe ff ff       	call   0x180024a10
   180024b88:	48 83 c4 28          	add    $0x28,%rsp
   180024b8c:	c3                   	ret
   180024b8d:	cc                   	int3
   180024b8e:	cc                   	int3
   180024b8f:	cc                   	int3
   180024b90:	48 89 5c 24 08       	mov    %rbx,0x8(%rsp)
   180024b95:	48 89 6c 24 10       	mov    %rbp,0x10(%rsp)
   180024b9a:	48 89 74 24 18       	mov    %rsi,0x18(%rsp)
   180024b9f:	57                   	push   %rdi
   180024ba0:	48 83 ec 20          	sub    $0x20,%rsp
   180024ba4:	48 8b da             	mov    %rdx,%rbx
   180024ba7:	4c 8b c9             	mov    %rcx,%r9
   180024baa:	48 85 c9             	test   %rcx,%rcx
   180024bad:	75 09                	jne    0x180024bb8
   180024baf:	48 85 d2             	test   %rdx,%rdx
   180024bb2:	75 04                	jne    0x180024bb8
   180024bb4:	33 c0                	xor    %eax,%eax
   180024bb6:	eb 3b                	jmp    0x180024bf3
   180024bb8:	e8 6f ff ff ff       	call   0x180024b2c
   180024bbd:	48 8b cb             	mov    %rbx,%rcx
   180024bc0:	48 8b f0             	mov    %rax,%rsi
   180024bc3:	e8 64 ff ff ff       	call   0x180024b2c
   180024bc8:	49 8b d1             	mov    %r9,%rdx
   180024bcb:	48 8d 4c 06 fc       	lea    -0x4(%rsi,%rax,1),%rcx
   180024bd0:	48 8b e8             	mov    %rax,%rbp
   180024bd3:	e8 38 fe ff ff       	call   0x180024a10
   180024bd8:	48 8b f8             	mov    %rax,%rdi
   180024bdb:	48 85 c0             	test   %rax,%rax
   180024bde:	74 10                	je     0x180024bf0
   180024be0:	48 8d 4c 30 fc       	lea    -0x4(%rax,%rsi,1),%rcx
   180024be5:	4c 8b c5             	mov    %rbp,%r8
   180024be8:	48 8b d3             	mov    %rbx,%rdx
   180024beb:	e8 38 aa ff ff       	call   0x18001f628
   180024bf0:	48 8b c7             	mov    %rdi,%rax
   180024bf3:	48 8b 5c 24 30       	mov    0x30(%rsp),%rbx
   180024bf8:	48 8b 6c 24 38       	mov    0x38(%rsp),%rbp
   180024bfd:	48 8b 74 24 40       	mov    0x40(%rsp),%rsi
   180024c02:	48 83 c4 20          	add    $0x20,%rsp
   180024c06:	5f                   	pop    %rdi
   180024c07:	c3                   	ret
   180024c08:	40 53                	rex push %rbx
   180024c0a:	48 83 ec 40          	sub    $0x40,%rsp
   180024c0e:	48 8d 44 24 30       	lea    0x30(%rsp),%rax
   180024c13:	48 8b d9             	mov    %rcx,%rbx
   180024c16:	b9 00 02 00 00       	mov    $0x200,%ecx
   180024c1b:	48 89 44 24 20       	mov    %rax,0x20(%rsp)
   180024c20:	e8 77 a9 ff ff       	call   0x18001f59c
   180024c25:	4c 8b 44 24 70       	mov    0x70(%rsp),%r8
   180024c2a:	48 8b 54 24 30       	mov    0x30(%rsp),%rdx
   180024c2f:	48 8b cb             	mov    %rbx,%rcx
   180024c32:	e8 45 e0 ff ff       	call   0x180022c7c
   180024c37:	80 7c 24 78 00       	cmpb   $0x0,0x78(%rsp)
   180024c3c:	74 0a                	je     0x180024c48
   180024c3e:	48 8b 4c 24 30       	mov    0x30(%rsp),%rcx
   180024c43:	e8 1c a7 ff ff       	call   0x18001f364
   180024c48:	48 8b 44 24 30       	mov    0x30(%rsp),%rax
   180024c4d:	48 83 c4 40          	add    $0x40,%rsp
   180024c51:	5b                   	pop    %rbx
   180024c52:	c3                   	ret
   180024c53:	cc                   	int3
   180024c54:	c6 01 04             	movb   $0x4,(%rcx)
   180024c57:	c6 41 01 06          	movb   $0x6,0x1(%rcx)
   180024c5b:	c6 41 02 14          	movb   $0x14,0x2(%rcx)
   180024c5f:	c6 41 03 00          	movb   $0x0,0x3(%rcx)
   180024c63:	48 83 c1 04          	add    $0x4,%rcx
   180024c67:	41 b8 10 00 00 00    	mov    $0x10,%r8d
   180024c6d:	e9 b6 a9 ff ff       	jmp    0x18001f628
   180024c72:	cc                   	int3
   180024c73:	cc                   	int3
   180024c74:	8a 01                	mov    (%rcx),%al
   180024c76:	24 7f                	and    $0x7f,%al
   180024c78:	3c 04                	cmp    $0x4,%al
   180024c7a:	75 0b                	jne    0x180024c87
   180024c7c:	80 79 01 06          	cmpb   $0x6,0x1(%rcx)
   180024c80:	75 05                	jne    0x180024c87
   180024c82:	48 8d 41 04          	lea    0x4(%rcx),%rax
   180024c86:	c3                   	ret
   180024c87:	33 c0                	xor    %eax,%eax
   180024c89:	c3                   	ret
   180024c8a:	cc                   	int3
   180024c8b:	cc                   	int3
   180024c8c:	33 c9                	xor    %ecx,%ecx
   180024c8e:	48 8d 05 0b 8d 02 00 	lea    0x28d0b(%rip),%rax        # 0x18004d9a0
   180024c95:	48 39 0d 04 8d 02 00 	cmp    %rcx,0x28d04(%rip)        # 0x18004d9a0
   180024c9c:	74 0e                	je     0x180024cac
   180024c9e:	38 48 20             	cmp    %cl,0x20(%rax)
   180024ca1:	74 0c                	je     0x180024caf
   180024ca3:	48 83 c0 28          	add    $0x28,%rax
   180024ca7:	48 39 08             	cmp    %rcx,(%rax)
   180024caa:	75 f2                	jne    0x180024c9e
   180024cac:	33 c0                	xor    %eax,%eax
   180024cae:	c3                   	ret
   180024caf:	48 b8 0e 00 00 00 00 	movabs $0x800000000000000e,%rax
   180024cb6:	00 00 80
   180024cb9:	c3                   	ret
   180024cba:	cc                   	int3
   180024cbb:	cc                   	int3
   180024cbc:	48 89 5c 24 08       	mov    %rbx,0x8(%rsp)
   180024cc1:	48 89 6c 24 10       	mov    %rbp,0x10(%rsp)
   180024cc6:	56                   	push   %rsi
   180024cc7:	57                   	push   %rdi
   180024cc8:	41 54                	push   %r12
   180024cca:	48 83 ec 30          	sub    $0x30,%rsp
   180024cce:	40 32 f6             	xor    %sil,%sil
   180024cd1:	48 83 3d c7 8c 02 00 	cmpq   $0x0,0x28cc7(%rip)        # 0x18004d9a0
   180024cd8:	00
   180024cd9:	48 8d 1d c0 8c 02 00 	lea    0x28cc0(%rip),%rbx        # 0x18004d9a0
   180024ce0:	0f 84 a6 01 00 00    	je     0x180024e8c
   180024ce6:	48 8d 2d 23 73 02 00 	lea    0x27323(%rip),%rbp        # 0x18004c010
   180024ced:	4c 8d 25 2c 73 02 00 	lea    0x2732c(%rip),%r12        # 0x18004c020
   180024cf4:	48 8b 53 18          	mov    0x18(%rbx),%rdx
   180024cf8:	48 8b 0b             	mov    (%rbx),%rcx
   180024cfb:	4c 8d 44 24 60       	lea    0x60(%rsp),%r8
   180024d00:	e8 63 bc ff ff       	call   0x180020968
   180024d05:	48 b9 00 00 00 00 00 	movabs $0x8000000000000000,%rcx
   180024d0c:	00 00 80
   180024d0f:	48 85 c1             	test   %rax,%rcx
   180024d12:	0f 85 31 01 00 00    	jne    0x180024e49
   180024d18:	48 8b 4b 08          	mov    0x8(%rbx),%rcx
   180024d1c:	40 b6 01             	mov    $0x1,%sil
   180024d1f:	40 88 73 20          	mov    %sil,0x20(%rbx)
   180024d23:	48 85 c9             	test   %rcx,%rcx
   180024d26:	74 08                	je     0x180024d30
   180024d28:	48 8b 44 24 60       	mov    0x60(%rsp),%rax
   180024d2d:	48 89 01             	mov    %rax,(%rcx)
   180024d30:	48 8b 0b             	mov    (%rbx),%rcx
   180024d33:	48 8d 15 56 b6 02 00 	lea    0x2b656(%rip),%rdx        # 0x180050390
   180024d3a:	e8 69 c3 00 00       	call   0x1800310a8
   180024d3f:	84 c0                	test   %al,%al
   180024d41:	74 13                	je     0x180024d56
   180024d43:	48 8b 05 26 bd 02 00 	mov    0x2bd26(%rip),%rax        # 0x180050a70
   180024d4a:	48 8d 15 eb e0 ff ff 	lea    -0x1f15(%rip),%rdx        # 0x180022e3c
   180024d51:	48 8b c8             	mov    %rax,%rcx
   180024d54:	ff 10                	call   *(%rax)
   180024d56:	48 8b 0b             	mov    (%rbx),%rcx
   180024d59:	48 8d 15 10 b6 02 00 	lea    0x2b610(%rip),%rdx        # 0x180050370
   180024d60:	e8 43 c3 00 00       	call   0x1800310a8
   180024d65:	84 c0                	test   %al,%al
   180024d67:	0f 84 8f 00 00 00    	je     0x180024dfc
   180024d6d:	e8 0e 12 00 00       	call   0x180025f80
   180024d72:	48 8b 3d 97 72 02 00 	mov    0x27297(%rip),%rdi        # 0x18004c010
   180024d79:	eb 27                	jmp    0x180024da2
   180024d7b:	48 8d 4c 24 20       	lea    0x20(%rsp),%rcx
   180024d80:	41 b8 10 00 00 00    	mov    $0x10,%r8d
   180024d86:	48 8b d7             	mov    %rdi,%rdx
   180024d89:	e8 9a a8 ff ff       	call   0x18001f628
   180024d8e:	48 8b 0d 43 6f 02 00 	mov    0x26f43(%rip),%rcx        # 0x18004bcd8
   180024d95:	48 8b d7             	mov    %rdi,%rdx
   180024d98:	e8 d3 dd 01 00       	call   0x180042b70
   180024d9d:	48 8b 7c 24 20       	mov    0x20(%rsp),%rdi
   180024da2:	48 3b fd             	cmp    %rbp,%rdi
   180024da5:	75 d4                	jne    0x180024d7b
   180024da7:	48 8b 3d 72 72 02 00 	mov    0x27272(%rip),%rdi        # 0x18004c020
   180024dae:	eb 2b                	jmp    0x180024ddb
   180024db0:	48 8d 4c 24 20       	lea    0x20(%rsp),%rcx
   180024db5:	41 b8 10 00 00 00    	mov    $0x10,%r8d
   180024dbb:	48 8b d7             	mov    %rdi,%rdx
   180024dbe:	e8 65 a8 ff ff       	call   0x18001f628
   180024dc3:	48 8b 0d 0e 6f 02 00 	mov    0x26f0e(%rip),%rcx        # 0x18004bcd8
   180024dca:	48 8b d7             	mov    %rdi,%rdx
   180024dcd:	48 83 c1 10          	add    $0x10,%rcx
   180024dd1:	e8 9a dd 01 00       	call   0x180042b70
   180024dd6:	48 8b 7c 24 20       	mov    0x20(%rsp),%rdi
   180024ddb:	49 3b fc             	cmp    %r12,%rdi
   180024dde:	75 d0                	jne    0x180024db0
   180024de0:	48 89 2d 29 72 02 00 	mov    %rbp,0x27229(%rip)        # 0x18004c010
   180024de7:	48 89 2d 2a 72 02 00 	mov    %rbp,0x2722a(%rip)        # 0x18004c018
   180024dee:	4c 89 25 2b 72 02 00 	mov    %r12,0x2722b(%rip)        # 0x18004c020
   180024df5:	4c 89 25 2c 72 02 00 	mov    %r12,0x2722c(%rip)        # 0x18004c028
   180024dfc:	48 8b 0b             	mov    (%rbx),%rcx
   180024dff:	48 8d 15 a2 b2 02 00 	lea    0x2b2a2(%rip),%rdx        # 0x1800500a8
   180024e06:	e8 9d c2 00 00       	call   0x1800310a8
   180024e0b:	48 8b 0d be 6e 02 00 	mov    0x26ebe(%rip),%rcx        # 0x18004bcd0
   180024e12:	48 8d 15 f7 b3 02 00 	lea    0x2b3f7(%rip),%rdx        # 0x180050210
   180024e19:	84 c0                	test   %al,%al
   180024e1b:	48 0f 45 4c 24 60    	cmovne 0x60(%rsp),%rcx
   180024e21:	48 89 0d a8 6e 02 00 	mov    %rcx,0x26ea8(%rip)        # 0x18004bcd0
   180024e28:	48 8b 0b             	mov    (%rbx),%rcx
   180024e2b:	e8 78 c2 00 00       	call   0x1800310a8
   180024e30:	84 c0                	test   %al,%al
   180024e32:	74 15                	je     0x180024e49
   180024e34:	4c 8d 05 1d bc 02 00 	lea    0x2bc1d(%rip),%r8        # 0x180050a58
   180024e3b:	48 8d 0d be b3 02 00 	lea    0x2b3be(%rip),%rcx        # 0x180050200
   180024e42:	33 d2                	xor    %edx,%edx
   180024e44:	e8 1f bb ff ff       	call   0x180020968
   180024e49:	48 83 c3 28          	add    $0x28,%rbx
   180024e4d:	48 83 3b 00          	cmpq   $0x0,(%rbx)
   180024e51:	0f 85 9d fe ff ff    	jne    0x180024cf4
   180024e57:	40 84 f6             	test   %sil,%sil
   180024e5a:	74 30                	je     0x180024e8c
   180024e5c:	48 8b 0d a5 71 02 00 	mov    0x271a5(%rip),%rcx        # 0x18004c008
   180024e63:	e8 ac 50 fe ff       	call   0x180009f14
   180024e68:	48 8b 0d e9 6f 02 00 	mov    0x26fe9(%rip),%rcx        # 0x18004be58
   180024e6f:	e8 a0 50 fe ff       	call   0x180009f14
   180024e74:	48 8b 0d 15 bc 02 00 	mov    0x2bc15(%rip),%rcx        # 0x180050a90
   180024e7b:	e8 94 50 fe ff       	call   0x180009f14
   180024e80:	48 8b 0d f1 70 02 00 	mov    0x270f1(%rip),%rcx        # 0x18004bf78
   180024e87:	e8 88 50 fe ff       	call   0x180009f14
   180024e8c:	48 8b 5c 24 50       	mov    0x50(%rsp),%rbx
   180024e91:	48 8b 6c 24 58       	mov    0x58(%rsp),%rbp
   180024e96:	48 83 c4 30          	add    $0x30,%rsp
   180024e9a:	41 5c                	pop    %r12
   180024e9c:	5f                   	pop    %rdi
   180024e9d:	5e                   	pop    %rsi
   180024e9e:	c3                   	ret
   180024e9f:	cc                   	int3
   180024ea0:	40 53                	rex push %rbx
   180024ea2:	48 83 ec 30          	sub    $0x30,%rsp
   180024ea6:	48 83 3d f2 8a 02 00 	cmpq   $0x0,0x28af2(%rip)        # 0x18004d9a0
   180024ead:	00
   180024eae:	74 3f                	je     0x180024eef
   180024eb0:	48 8d 1d f9 8a 02 00 	lea    0x28af9(%rip),%rbx        # 0x18004d9b0
   180024eb7:	45 33 c9             	xor    %r9d,%r9d
   180024eba:	4c 8d 05 fb fd ff ff 	lea    -0x205(%rip),%r8        # 0x180024cbc
   180024ec1:	b9 00 02 00 00       	mov    $0x200,%ecx
   180024ec6:	41 8d 51 08          	lea    0x8(%r9),%edx
   180024eca:	48 89 5c 24 20       	mov    %rbx,0x20(%rsp)
   180024ecf:	e8 c8 a6 ff ff       	call   0x18001f59c
   180024ed4:	48 8b 13             	mov    (%rbx),%rdx
   180024ed7:	48 8b 4b f0          	mov    -0x10(%rbx),%rcx
   180024edb:	4c 8d 43 08          	lea    0x8(%rbx),%r8
   180024edf:	e8 98 dd ff ff       	call   0x180022c7c
   180024ee4:	48 83 c3 28          	add    $0x28,%rbx
   180024ee8:	48 83 7b f0 00       	cmpq   $0x0,-0x10(%rbx)
   180024eed:	75 c8                	jne    0x180024eb7
   180024eef:	48 83 c4 30          	add    $0x30,%rsp
   180024ef3:	5b                   	pop    %rbx
   180024ef4:	c3                   	ret
   180024ef5:	cc                   	int3
   180024ef6:	cc                   	int3
   180024ef7:	cc                   	int3
   180024ef8:	4c 8d 0d e1 8c 02 00 	lea    0x28ce1(%rip),%r9        # 0x18004dbe0
   180024eff:	48 8d 15 f2 97 02 00 	lea    0x297f2(%rip),%rdx        # 0x18004e6f8
   180024f06:	48 8d 0d bb bd 02 00 	lea    0x2bdbb(%rip),%rcx        # 0x180050cc8
   180024f0d:	45 33 c0             	xor    %r8d,%r8d
   180024f10:	e9 a7 b7 ff ff       	jmp    0x1800206bc
   180024f15:	cc                   	int3
   180024f16:	cc                   	int3
   180024f17:	cc                   	int3
   180024f18:	48 8b c4             	mov    %rsp,%rax
   180024f1b:	48 89 58 08          	mov    %rbx,0x8(%rax)
   180024f1f:	48 89 68 10          	mov    %rbp,0x10(%rax)
   180024f23:	48 89 70 18          	mov    %rsi,0x18(%rax)
   180024f27:	48 89 78 20          	mov    %rdi,0x20(%rax)
   180024f2b:	41 54                	push   %r12
   180024f2d:	48 83 ec 20          	sub    $0x20,%rsp
   180024f31:	48 8b d9             	mov    %rcx,%rbx
   180024f34:	b9 48 00 00 00       	mov    $0x48,%ecx
   180024f39:	45 8b e1             	mov    %r9d,%r12d
   180024f3c:	41 8a e8             	mov    %r8b,%bpl
   180024f3f:	48 8b f2             	mov    %rdx,%rsi
   180024f42:	e8 5d fa ff ff       	call   0x1800249a4
   180024f47:	48 8b f8             	mov    %rax,%rdi
   180024f4a:	48 85 c0             	test   %rax,%rax
   180024f4d:	75 0f                	jne    0x180024f5e
   180024f4f:	48 b8 09 00 00 00 00 	movabs $0x8000000000000009,%rax
   180024f56:	00 00 80
   180024f59:	e9 8e 00 00 00       	jmp    0x180024fec
   180024f5e:	40 84 ed             	test   %bpl,%bpl
   180024f61:	74 37                	je     0x180024f9a
   180024f63:	48 85 db             	test   %rbx,%rbx
   180024f66:	74 2b                	je     0x180024f93
   180024f68:	48 8b cb             	mov    %rbx,%rcx
   180024f6b:	e8 34 fa ff ff       	call   0x1800249a4
   180024f70:	48 89 47 20          	mov    %rax,0x20(%rdi)
   180024f74:	48 85 c0             	test   %rax,%rax
   180024f77:	75 0a                	jne    0x180024f83
   180024f79:	48 8b cf             	mov    %rdi,%rcx
   180024f7c:	e8 4b e6 ff ff       	call   0x1800235cc
   180024f81:	eb cc                	jmp    0x180024f4f
   180024f83:	4c 8b c3             	mov    %rbx,%r8
   180024f86:	48 8b d6             	mov    %rsi,%rdx
   180024f89:	48 8b c8             	mov    %rax,%rcx
   180024f8c:	e8 97 a6 ff ff       	call   0x18001f628
   180024f91:	eb 0b                	jmp    0x180024f9e
   180024f93:	48 83 60 20 00       	andq   $0x0,0x20(%rax)
   180024f98:	eb 04                	jmp    0x180024f9e
   180024f9a:	48 89 70 20          	mov    %rsi,0x20(%rax)
   180024f9e:	48 8d 4f 30          	lea    0x30(%rdi),%rcx
   180024fa2:	c7 07 53 58 53 53    	movl   $0x53535853,(%rdi)
   180024fa8:	48 89 7f 18          	mov    %rdi,0x18(%rdi)
   180024fac:	48 89 5f 28          	mov    %rbx,0x28(%rdi)
   180024fb0:	e8 9b db 01 00       	call   0x180042b50
   180024fb5:	b9 10 00 00 00       	mov    $0x10,%ecx
   180024fba:	44 89 67 40          	mov    %r12d,0x40(%rdi)
   180024fbe:	e8 8d f5 ff ff       	call   0x180024550
   180024fc3:	48 8d 57 08          	lea    0x8(%rdi),%rdx
   180024fc7:	48 8d 0d 02 8c 02 00 	lea    0x28c02(%rip),%rcx        # 0x18004dbd0
   180024fce:	48 8b d8             	mov    %rax,%rbx
   180024fd1:	e8 9a db 01 00       	call   0x180042b70
   180024fd6:	48 8b cb             	mov    %rbx,%rcx
   180024fd9:	e8 ba f5 ff ff       	call   0x180024598
   180024fde:	48 8b 44 24 50       	mov    0x50(%rsp),%rax
   180024fe3:	4c 8b 5f 18          	mov    0x18(%rdi),%r11
   180024fe7:	4c 89 18             	mov    %r11,(%rax)
   180024fea:	33 c0                	xor    %eax,%eax
   180024fec:	48 8b 5c 24 30       	mov    0x30(%rsp),%rbx
   180024ff1:	48 8b 6c 24 38       	mov    0x38(%rsp),%rbp
   180024ff6:	48 8b 74 24 40       	mov    0x40(%rsp),%rsi
   180024ffb:	48 8b 7c 24 48       	mov    0x48(%rsp),%rdi
   180025000:	48 83 c4 20          	add    $0x20,%rsp
   180025004:	41 5c                	pop    %r12
   180025006:	c3                   	ret
   180025007:	cc                   	int3
   180025008:	48 89 5c 24 08       	mov    %rbx,0x8(%rsp)
   18002500d:	48 89 74 24 10       	mov    %rsi,0x10(%rsp)
   180025012:	57                   	push   %rdi
   180025013:	48 83 ec 20          	sub    $0x20,%rsp
   180025017:	48 8b f9             	mov    %rcx,%rdi
   18002501a:	48 8d 0d af 8b 02 00 	lea    0x28baf(%rip),%rcx        # 0x18004dbd0
   180025021:	48 8b da             	mov    %rdx,%rbx
   180025024:	e8 2f db 01 00       	call   0x180042b58
   180025029:	84 c0                	test   %al,%al
   18002502b:	75 45                	jne    0x180025072
   18002502d:	48 8d 0d 9c 8b 02 00 	lea    0x28b9c(%rip),%rcx        # 0x18004dbd0
   180025034:	e8 5f db 01 00       	call   0x180042b98
   180025039:	eb 26                	jmp    0x180025061
   18002503b:	48 8d 70 08          	lea    0x8(%rax),%rsi
   18002503f:	48 8d 0d 8a 8b 02 00 	lea    0x28b8a(%rip),%rcx        # 0x18004dbd0
   180025046:	48 8b d6             	mov    %rsi,%rdx
   180025049:	e8 5a db 01 00       	call   0x180042ba8
   18002504e:	84 c0                	test   %al,%al
   180025050:	75 20                	jne    0x180025072
   180025052:	48 8d 0d 77 8b 02 00 	lea    0x28b77(%rip),%rcx        # 0x18004dbd0
   180025059:	48 8b d6             	mov    %rsi,%rdx
   18002505c:	e8 3b db 01 00       	call   0x180042b9c
   180025061:	48 83 e8 08          	sub    $0x8,%rax
   180025065:	48 39 78 18          	cmp    %rdi,0x18(%rax)
   180025069:	75 d0                	jne    0x18002503b
   18002506b:	48 89 03             	mov    %rax,(%rbx)
   18002506e:	33 c0                	xor    %eax,%eax
   180025070:	eb 0a                	jmp    0x18002507c
   180025072:	48 b8 0e 00 00 00 00 	movabs $0x800000000000000e,%rax
   180025079:	00 00 80
   18002507c:	48 8b 5c 24 30       	mov    0x30(%rsp),%rbx
   180025081:	48 8b 74 24 38       	mov    0x38(%rsp),%rsi
   180025086:	48 83 c4 20          	add    $0x20,%rsp
   18002508a:	5f                   	pop    %rdi
   18002508b:	c3                   	ret
   18002508c:	40 53                	rex push %rbx
   18002508e:	48 83 ec 30          	sub    $0x30,%rsp
   180025092:	4c 8b da             	mov    %rdx,%r11
   180025095:	45 33 d2             	xor    %r10d,%r10d
   180025098:	49 8b d8             	mov    %r8,%rbx
   18002509b:	49 8b d0             	mov    %r8,%rdx
   18002509e:	4d 3b da             	cmp    %r10,%r11
   1800250a1:	76 2b                	jbe    0x1800250ce
   1800250a3:	8b 02                	mov    (%rdx),%eax
   1800250a5:	25 ff ff ff 00       	and    $0xffffff,%eax
   1800250aa:	4c 03 d0             	add    %rax,%r10
   1800250ad:	4d 3b d3             	cmp    %r11,%r10
   1800250b0:	74 2c                	je     0x1800250de
   1800250b2:	48 03 d0             	add    %rax,%rdx
   1800250b5:	48 8d 4a 03          	lea    0x3(%rdx),%rcx
   1800250b9:	48 83 e1 fc          	and    $0xfffffffffffffffc,%rcx
   1800250bd:	48 8b c1             	mov    %rcx,%rax
   1800250c0:	48 2b c2             	sub    %rdx,%rax
   1800250c3:	48 8b d1             	mov    %rcx,%rdx
   1800250c6:	4c 03 d0             	add    %rax,%r10
   1800250c9:	4d 3b d3             	cmp    %r11,%r10
   1800250cc:	72 d5                	jb     0x1800250a3
   1800250ce:	48 b8 02 00 00 00 00 	movabs $0x8000000000000002,%rax
   1800250d5:	00 00 80
   1800250d8:	48 83 c4 30          	add    $0x30,%rsp
   1800250dc:	5b                   	pop    %rbx
   1800250dd:	c3                   	ret
   1800250de:	4c 89 4c 24 20       	mov    %r9,0x20(%rsp)
   1800250e3:	41 b0 01             	mov    $0x1,%r8b
   1800250e6:	48 8b d3             	mov    %rbx,%rdx
   1800250e9:	45 33 c9             	xor    %r9d,%r9d
   1800250ec:	49 8b cb             	mov    %r11,%rcx
   1800250ef:	e8 24 fe ff ff       	call   0x180024f18
   1800250f4:	eb e2                	jmp    0x1800250d8
   1800250f6:	cc                   	int3
   1800250f7:	cc                   	int3
   1800250f8:	48 89 5c 24 08       	mov    %rbx,0x8(%rsp)
   1800250fd:	48 89 6c 24 10       	mov    %rbp,0x10(%rsp)
   180025102:	48 89 74 24 20       	mov    %rsi,0x20(%rsp)
   180025107:	57                   	push   %rdi
   180025108:	48 83 ec 20          	sub    $0x20,%rsp
   18002510c:	b9 10 00 00 00       	mov    $0x10,%ecx
   180025111:	48 8b da             	mov    %rdx,%rbx
   180025114:	e8 37 f4 ff ff       	call   0x180024550
   180025119:	48 8d 54 24 40       	lea    0x40(%rsp),%rdx
   18002511e:	48 8b cb             	mov    %rbx,%rcx
   180025121:	48 8b e8             	mov    %rax,%rbp
   180025124:	e8 df fe ff ff       	call   0x180025008
   180025129:	48 b9 00 00 00 00 00 	movabs $0x8000000000000000,%rcx
   180025130:	00 00 80
   180025133:	48 85 c1             	test   %rax,%rcx
   180025136:	75 4d                	jne    0x180025185
   180025138:	48 8b 7c 24 40       	mov    0x40(%rsp),%rdi
   18002513d:	48 8d 4f 08          	lea    0x8(%rdi),%rcx
   180025141:	e8 1a da 01 00       	call   0x180042b60
   180025146:	48 8d 4f 30          	lea    0x30(%rdi),%rcx
   18002514a:	e8 09 da 01 00       	call   0x180042b58
   18002514f:	33 db                	xor    %ebx,%ebx
   180025151:	eb 1b                	jmp    0x18002516e
   180025153:	48 8d 4f 30          	lea    0x30(%rdi),%rcx
   180025157:	e8 3c da 01 00       	call   0x180042b98
   18002515c:	48 8d 48 f8          	lea    -0x8(%rax),%rcx
   180025160:	e8 0b 01 00 00       	call   0x180025270
   180025165:	48 8d 4f 30          	lea    0x30(%rdi),%rcx
   180025169:	e8 ea d9 01 00       	call   0x180042b58
   18002516e:	3a c3                	cmp    %bl,%al
   180025170:	74 e1                	je     0x180025153
   180025172:	48 8b 4f 20          	mov    0x20(%rdi),%rcx
   180025176:	e8 51 e4 ff ff       	call   0x1800235cc
   18002517b:	48 8b cf             	mov    %rdi,%rcx
   18002517e:	e8 49 e4 ff ff       	call   0x1800235cc
   180025183:	eb 0a                	jmp    0x18002518f
   180025185:	48 bb 02 00 00 00 00 	movabs $0x8000000000000002,%rbx
   18002518c:	00 00 80
   18002518f:	48 8b cd             	mov    %rbp,%rcx
   180025192:	e8 01 f4 ff ff       	call   0x180024598
   180025197:	48 8b 6c 24 38       	mov    0x38(%rsp),%rbp
   18002519c:	48 8b 74 24 48       	mov    0x48(%rsp),%rsi
   1800251a1:	48 8b c3             	mov    %rbx,%rax
   1800251a4:	48 8b 5c 24 30       	mov    0x30(%rsp),%rbx
   1800251a9:	48 83 c4 20          	add    $0x20,%rsp
   1800251ad:	5f                   	pop    %rdi
   1800251ae:	c3                   	ret
   1800251af:	cc                   	int3
   1800251b0:	40 53                	rex push %rbx
   1800251b2:	56                   	push   %rsi
   1800251b3:	57                   	push   %rdi
   1800251b4:	48 83 ec 40          	sub    $0x40,%rsp
   1800251b8:	48 8b fa             	mov    %rdx,%rdi
   1800251bb:	48 8b 12             	mov    (%rdx),%rdx
   1800251be:	48 8b f1             	mov    %rcx,%rsi
   1800251c1:	48 8b 52 28          	mov    0x28(%rdx),%rdx
   1800251c5:	48 8d 0d 14 8a 02 00 	lea    0x28a14(%rip),%rcx        # 0x18004dbe0
   1800251cc:	e8 27 ff ff ff       	call   0x1800250f8
   1800251d1:	48 b9 00 00 00 00 00 	movabs $0x8000000000000000,%rcx
   1800251d8:	00 00 80
   1800251db:	48 85 c1             	test   %rax,%rcx
   1800251de:	75 75                	jne    0x180025255
   1800251e0:	48 8b 0f             	mov    (%rdi),%rcx
   1800251e3:	48 8b 47 08          	mov    0x8(%rdi),%rax
   1800251e7:	4c 8d 44 24 70       	lea    0x70(%rsp),%r8
   1800251ec:	8b 59 20             	mov    0x20(%rcx),%ebx
   1800251ef:	48 8b 49 30          	mov    0x30(%rcx),%rcx
   1800251f3:	33 d2                	xor    %edx,%edx
   1800251f5:	48 03 58 20          	add    0x20(%rax),%rbx
   1800251f9:	e8 6a b7 ff ff       	call   0x180020968
   1800251fe:	48 8b 44 24 70       	mov    0x70(%rsp),%rax
   180025203:	4c 8d 5c 24 68       	lea    0x68(%rsp),%r11
   180025208:	4c 8d 4c 24 30       	lea    0x30(%rsp),%r9
   18002520d:	4c 8d 44 24 78       	lea    0x78(%rsp),%r8
   180025212:	48 8b c8             	mov    %rax,%rcx
   180025215:	48 8b d3             	mov    %rbx,%rdx
   180025218:	4c 89 5c 24 20       	mov    %r11,0x20(%rsp)
   18002521d:	ff 10                	call   *(%rax)
   18002521f:	44 8b 4c 24 68       	mov    0x68(%rsp),%r9d
   180025224:	4c 8b 5f 08          	mov    0x8(%rdi),%r11
   180025228:	41 8b 43 40          	mov    0x40(%r11),%eax
   18002522c:	48 8b 54 24 78       	mov    0x78(%rsp),%rdx
   180025231:	48 8b 4c 24 30       	mov    0x30(%rsp),%rcx
   180025236:	83 e0 0f             	and    $0xf,%eax
   180025239:	45 33 c0             	xor    %r8d,%r8d
   18002523c:	44 0b c8             	or     %eax,%r9d
   18002523f:	48 8b 07             	mov    (%rdi),%rax
   180025242:	48 83 c0 28          	add    $0x28,%rax
   180025246:	44 89 4c 24 68       	mov    %r9d,0x68(%rsp)
   18002524b:	48 89 44 24 20       	mov    %rax,0x20(%rsp)
   180025250:	e8 c3 fc ff ff       	call   0x180024f18
   180025255:	48 8b ce             	mov    %rsi,%rcx
   180025258:	e8 ab a2 ff ff       	call   0x18001f508
   18002525d:	48 8b cf             	mov    %rdi,%rcx
   180025260:	e8 67 e3 ff ff       	call   0x1800235cc
   180025265:	48 83 c4 40          	add    $0x40,%rsp
   180025269:	5f                   	pop    %rdi
   18002526a:	5e                   	pop    %rsi
   18002526b:	5b                   	pop    %rbx
   18002526c:	c3                   	ret
   18002526d:	cc                   	int3
   18002526e:	cc                   	int3
   18002526f:	cc                   	int3
   180025270:	40 53                	rex push %rbx
   180025272:	48 83 ec 20          	sub    $0x20,%rsp
   180025276:	48 8b d9             	mov    %rcx,%rbx
   180025279:	48 83 c1 08          	add    $0x8,%rcx
   18002527d:	e8 de d8 01 00       	call   0x180042b60
   180025282:	48 8b 53 28          	mov    0x28(%rbx),%rdx
   180025286:	48 85 d2             	test   %rdx,%rdx
   180025289:	74 0c                	je     0x180025297
   18002528b:	48 8d 0d 4e 89 02 00 	lea    0x2894e(%rip),%rcx        # 0x18004dbe0
   180025292:	e8 61 fe ff ff       	call   0x1800250f8
   180025297:	48 8b cb             	mov    %rbx,%rcx
   18002529a:	48 83 c4 20          	add    $0x20,%rsp
   18002529e:	5b                   	pop    %rbx
   18002529f:	e9 28 e3 ff ff       	jmp    0x1800235cc
   1800252a4:	40 53                	rex push %rbx
   1800252a6:	55                   	push   %rbp
   1800252a7:	56                   	push   %rsi
   1800252a8:	57                   	push   %rdi
   1800252a9:	41 54                	push   %r12
   1800252ab:	41 55                	push   %r13
   1800252ad:	48 83 ec 58          	sub    $0x58,%rsp
   1800252b1:	8b da                	mov    %edx,%ebx
   1800252b3:	48 8b f1             	mov    %rcx,%rsi
   1800252b6:	49 8b e8             	mov    %r8,%rbp
   1800252b9:	48 03 59 20          	add    0x20(%rcx),%rbx
   1800252bd:	b9 38 00 00 00       	mov    $0x38,%ecx
   1800252c2:	44 8b e2             	mov    %edx,%r12d
   1800252c5:	e8 da f6 ff ff       	call   0x1800249a4
   1800252ca:	48 8b f8             	mov    %rax,%rdi
   1800252cd:	48 89 45 00          	mov    %rax,0x0(%rbp)
   1800252d1:	48 85 c0             	test   %rax,%rax
   1800252d4:	75 0f                	jne    0x1800252e5
   1800252d6:	48 b8 09 00 00 00 00 	movabs $0x8000000000000009,%rax
   1800252dd:	00 00 80
   1800252e0:	e9 c2 01 00 00       	jmp    0x1800254a7
   1800252e5:	c7 00 53 58 43 53    	movl   $0x53435853,(%rax)
   1800252eb:	0f b6 4b 03          	movzbl 0x3(%rbx),%ecx
   1800252ef:	4c 8d 6f 28          	lea    0x28(%rdi),%r13
   1800252f3:	89 48 18             	mov    %ecx,0x18(%rax)
   1800252f6:	8b 03                	mov    (%rbx),%eax
   1800252f8:	49 83 65 00 00       	andq   $0x0,0x0(%r13)
   1800252fd:	48 83 67 30 00       	andq   $0x0,0x30(%rdi)
   180025302:	25 ff ff ff 00       	and    $0xffffff,%eax
   180025307:	83 e9 01             	sub    $0x1,%ecx
   18002530a:	89 47 1c             	mov    %eax,0x1c(%rdi)
   18002530d:	44 89 67 20          	mov    %r12d,0x20(%rdi)
   180025311:	0f 84 9d 01 00 00    	je     0x1800254b4
   180025317:	83 f9 01             	cmp    $0x1,%ecx
   18002531a:	0f 85 78 01 00 00    	jne    0x180025498
   180025320:	48 8d 4b 04          	lea    0x4(%rbx),%rcx
   180025324:	4c 8d 44 24 48       	lea    0x48(%rsp),%r8
   180025329:	33 d2                	xor    %edx,%edx
   18002532b:	48 89 4f 30          	mov    %rcx,0x30(%rdi)
   18002532f:	e8 34 b6 ff ff       	call   0x180020968
   180025334:	49 bc 00 00 00 00 00 	movabs $0x8000000000000000,%r12
   18002533b:	00 00 80
   18002533e:	49 85 c4             	test   %rax,%r12
   180025341:	0f 85 9a 00 00 00    	jne    0x1800253e1
   180025347:	48 8d 84 24 98 00 00 	lea    0x98(%rsp),%rax
   18002534e:	00
   18002534f:	4c 8d 8c 24 a0 00 00 	lea    0xa0(%rsp),%r9
   180025356:	00
   180025357:	4c 8d 84 24 a8 00 00 	lea    0xa8(%rsp),%r8
   18002535e:	00
   18002535f:	48 89 44 24 20       	mov    %rax,0x20(%rsp)
   180025364:	48 8b 44 24 48       	mov    0x48(%rsp),%rax
   180025369:	48 8b d3             	mov    %rbx,%rdx
   18002536c:	48 8b c8             	mov    %rax,%rcx
   18002536f:	ff 10                	call   *(%rax)
   180025371:	49 85 c4             	test   %rax,%r12
   180025374:	74 18                	je     0x18002538e
   180025376:	48 8b 4d 00          	mov    0x0(%rbp),%rcx
   18002537a:	e8 4d e2 ff ff       	call   0x1800235cc
   18002537f:	48 b8 18 00 00 00 00 	movabs $0x8000000000000018,%rax
   180025386:	00 00 80
   180025389:	e9 19 01 00 00       	jmp    0x1800254a7
   18002538e:	f6 43 16 02          	testb  $0x2,0x16(%rbx)
   180025392:	74 13                	je     0x1800253a7
   180025394:	8b 46 40             	mov    0x40(%rsi),%eax
   180025397:	44 8b 8c 24 98 00 00 	mov    0x98(%rsp),%r9d
   18002539e:	00
   18002539f:	83 e0 0f             	and    $0xf,%eax
   1800253a2:	44 0b c8             	or     %eax,%r9d
   1800253a5:	eb 04                	jmp    0x1800253ab
   1800253a7:	44 8b 4e 40          	mov    0x40(%rsi),%r9d
   1800253ab:	48 8b 94 24 a8 00 00 	mov    0xa8(%rsp),%rdx
   1800253b2:	00
   1800253b3:	48 8b 8c 24 a0 00 00 	mov    0xa0(%rsp),%rcx
   1800253ba:	00
   1800253bb:	45 33 c0             	xor    %r8d,%r8d
   1800253be:	44 89 8c 24 98 00 00 	mov    %r9d,0x98(%rsp)
   1800253c5:	00
   1800253c6:	4c 89 6c 24 20       	mov    %r13,0x20(%rsp)
   1800253cb:	e8 48 fb ff ff       	call   0x180024f18
   1800253d0:	48 8b d8             	mov    %rax,%rbx
   1800253d3:	49 85 c4             	test   %rax,%r12
   1800253d6:	74 6f                	je     0x180025447
   1800253d8:	48 8b 4d 00          	mov    0x0(%rbp),%rcx
   1800253dc:	e9 4d 02 00 00       	jmp    0x18002562e
   1800253e1:	f6 43 16 01          	testb  $0x1,0x16(%rbx)
   1800253e5:	75 8f                	jne    0x180025376
   1800253e7:	44 8b 4e 40          	mov    0x40(%rsi),%r9d
   1800253eb:	44 89 8c 24 98 00 00 	mov    %r9d,0x98(%rsp)
   1800253f2:	00
   1800253f3:	f6 43 16 02          	testb  $0x2,0x16(%rbx)
   1800253f7:	74 1f                	je     0x180025418
   1800253f9:	41 81 e1 ff ff f6 ff 	and    $0xfff6ffff,%r9d
   180025400:	41 81 c9 00 00 06 00 	or     $0x60000,%r9d
   180025407:	41 8b c1             	mov    %r9d,%eax
   18002540a:	c1 e8 10             	shr    $0x10,%eax
   18002540d:	44 0b c8             	or     %eax,%r9d
   180025410:	44 89 8c 24 98 00 00 	mov    %r9d,0x98(%rsp)
   180025417:	00
   180025418:	0f b7 43 14          	movzwl 0x14(%rbx),%eax
   18002541c:	8b 0b                	mov    (%rbx),%ecx
   18002541e:	41 b0 01             	mov    $0x1,%r8b
   180025421:	81 e1 ff ff ff 00    	and    $0xffffff,%ecx
   180025427:	48 8d 14 03          	lea    (%rbx,%rax,1),%rdx
   18002542b:	4c 89 6c 24 20       	mov    %r13,0x20(%rsp)
   180025430:	2b c8                	sub    %eax,%ecx
   180025432:	e8 e1 fa ff ff       	call   0x180024f18
   180025437:	48 8b d8             	mov    %rax,%rbx
   18002543a:	49 85 c4             	test   %rax,%r12
   18002543d:	74 08                	je     0x180025447
   18002543f:	48 8b cf             	mov    %rdi,%rcx
   180025442:	e9 f4 01 00 00       	jmp    0x18002563b
   180025447:	8b 84 24 98 00 00 00 	mov    0x98(%rsp),%eax
   18002544e:	25 00 00 0f 00       	and    $0xf0000,%eax
   180025453:	3d 00 00 06 00       	cmp    $0x60000,%eax
   180025458:	75 3e                	jne    0x180025498
   18002545a:	b9 20 00 00 00       	mov    $0x20,%ecx
   18002545f:	e8 40 f5 ff ff       	call   0x1800249a4
   180025464:	c6 44 24 28 00       	movb   $0x0,0x28(%rsp)
   180025469:	4c 8d 05 40 fd ff ff 	lea    -0x2c0(%rip),%r8        # 0x1800251b0
   180025470:	48 8d 48 10          	lea    0x10(%rax),%rcx
   180025474:	48 89 38             	mov    %rdi,(%rax)
   180025477:	48 89 70 08          	mov    %rsi,0x8(%rax)
   18002547b:	48 89 4c 24 20       	mov    %rcx,0x20(%rsp)
   180025480:	48 8b 4f 30          	mov    0x30(%rdi),%rcx
   180025484:	4c 8b c8             	mov    %rax,%r9
   180025487:	ba 10 00 00 00       	mov    $0x10,%edx
   18002548c:	48 8b d8             	mov    %rax,%rbx
   18002548f:	e8 74 f7 ff ff       	call   0x180024c08
   180025494:	48 89 43 18          	mov    %rax,0x18(%rbx)
   180025498:	48 8d 57 08          	lea    0x8(%rdi),%rdx
   18002549c:	48 8d 4e 30          	lea    0x30(%rsi),%rcx
   1800254a0:	e8 cb d6 01 00       	call   0x180042b70
   1800254a5:	33 c0                	xor    %eax,%eax
   1800254a7:	48 83 c4 58          	add    $0x58,%rsp
   1800254ab:	41 5d                	pop    %r13
   1800254ad:	41 5c                	pop    %r12
   1800254af:	5f                   	pop    %rdi
   1800254b0:	5e                   	pop    %rsi
   1800254b1:	5d                   	pop    %rbp
   1800254b2:	5b                   	pop    %rbx
   1800254b3:	c3                   	ret
   1800254b4:	83 7b 04 00          	cmpl   $0x0,0x4(%rbx)
   1800254b8:	49 bc 00 00 00 00 00 	movabs $0x8000000000000000,%r12
   1800254bf:	00 00 80
   1800254c2:	0f 86 29 01 00 00    	jbe    0x1800255f1
   1800254c8:	8b 4b 04             	mov    0x4(%rbx),%ecx
   1800254cb:	48 89 8c 24 a0 00 00 	mov    %rcx,0xa0(%rsp)
   1800254d2:	00
   1800254d3:	e8 cc f4 ff ff       	call   0x1800249a4
   1800254d8:	48 89 84 24 a8 00 00 	mov    %rax,0xa8(%rsp)
   1800254df:	00
   1800254e0:	48 85 c0             	test   %rax,%rax
   1800254e3:	75 0d                	jne    0x1800254f2
   1800254e5:	48 8b cf             	mov    %rdi,%rcx
   1800254e8:	e8 df e0 ff ff       	call   0x1800235cc
   1800254ed:	e9 e4 fd ff ff       	jmp    0x1800252d6
   1800254f2:	8a 4b 08             	mov    0x8(%rbx),%cl
   1800254f5:	84 c9                	test   %cl,%cl
   1800254f7:	75 19                	jne    0x180025512
   1800254f9:	4c 8b 84 24 a0 00 00 	mov    0xa0(%rsp),%r8
   180025500:	00
   180025501:	48 8d 53 09          	lea    0x9(%rbx),%rdx
   180025505:	48 8b c8             	mov    %rax,%rcx
   180025508:	e8 1b a1 ff ff       	call   0x18001f628
   18002550d:	e9 d5 00 00 00       	jmp    0x1800255e7
   180025512:	80 f9 01             	cmp    $0x1,%cl
   180025515:	74 0e                	je     0x180025525
   180025517:	80 f9 02             	cmp    $0x2,%cl
   18002551a:	0f 85 e3 00 00 00    	jne    0x180025603
   180025520:	80 f9 01             	cmp    $0x1,%cl
   180025523:	75 09                	jne    0x18002552e
   180025525:	48 8d 0d 84 87 02 00 	lea    0x28784(%rip),%rcx        # 0x18004dcb0
   18002552c:	eb 07                	jmp    0x180025535
   18002552e:	48 8d 0d 6b 87 02 00 	lea    0x2876b(%rip),%rcx        # 0x18004dca0
   180025535:	4c 8d 44 24 40       	lea    0x40(%rsp),%r8
   18002553a:	33 d2                	xor    %edx,%edx
   18002553c:	e8 27 b4 ff ff       	call   0x180020968
   180025541:	49 85 c4             	test   %rax,%r12
   180025544:	74 0f                	je     0x180025555
   180025546:	48 bb 18 00 00 00 00 	movabs $0x8000000000000018,%rbx
   18002554d:	00 00 80
   180025550:	e9 d6 00 00 00       	jmp    0x18002562b
   180025555:	44 8b 47 1c          	mov    0x1c(%rdi),%r8d
   180025559:	48 8d 84 24 90 00 00 	lea    0x90(%rsp),%rax
   180025560:	00
   180025561:	48 8d 6b 09          	lea    0x9(%rbx),%rbp
   180025565:	48 89 44 24 20       	mov    %rax,0x20(%rsp)
   18002556a:	48 8b 44 24 40       	mov    0x40(%rsp),%rax
   18002556f:	4c 8d 8c 24 a0 00 00 	lea    0xa0(%rsp),%r9
   180025576:	00
   180025577:	41 83 e8 09          	sub    $0x9,%r8d
   18002557b:	48 8b d5             	mov    %rbp,%rdx
   18002557e:	48 8b c8             	mov    %rax,%rcx
   180025581:	ff 10                	call   *(%rax)
   180025583:	8b 8c 24 90 00 00 00 	mov    0x90(%rsp),%ecx
   18002558a:	e8 15 f4 ff ff       	call   0x1800249a4
   18002558f:	48 8b d8             	mov    %rax,%rbx
   180025592:	48 85 c0             	test   %rax,%rax
   180025595:	75 0f                	jne    0x1800255a6
   180025597:	48 bb 09 00 00 00 00 	movabs $0x8000000000000009,%rbx
   18002559e:	00 00 80
   1800255a1:	e9 85 00 00 00       	jmp    0x18002562b
   1800255a6:	8b 84 24 90 00 00 00 	mov    0x90(%rsp),%eax
   1800255ad:	44 8b 47 1c          	mov    0x1c(%rdi),%r8d
   1800255b1:	4c 8b 8c 24 a8 00 00 	mov    0xa8(%rsp),%r9
   1800255b8:	00
   1800255b9:	89 44 24 30          	mov    %eax,0x30(%rsp)
   1800255bd:	8b 84 24 a0 00 00 00 	mov    0xa0(%rsp),%eax
   1800255c4:	48 89 5c 24 28       	mov    %rbx,0x28(%rsp)
   1800255c9:	89 44 24 20          	mov    %eax,0x20(%rsp)
   1800255cd:	48 8b 44 24 40       	mov    0x40(%rsp),%rax
   1800255d2:	41 83 e8 09          	sub    $0x9,%r8d
   1800255d6:	48 8b c8             	mov    %rax,%rcx
   1800255d9:	48 8b d5             	mov    %rbp,%rdx
   1800255dc:	ff 50 08             	call   *0x8(%rax)
   1800255df:	48 8b cb             	mov    %rbx,%rcx
   1800255e2:	e8 e5 df ff ff       	call   0x1800235cc
   1800255e7:	48 8b 84 24 a8 00 00 	mov    0xa8(%rsp),%rax
   1800255ee:	00
   1800255ef:	eb 12                	jmp    0x180025603
   1800255f1:	33 c0                	xor    %eax,%eax
   1800255f3:	48 21 84 24 a0 00 00 	and    %rax,0xa0(%rsp)
   1800255fa:	00
   1800255fb:	48 89 84 24 a8 00 00 	mov    %rax,0xa8(%rsp)
   180025602:	00
   180025603:	44 8b 4e 40          	mov    0x40(%rsi),%r9d
   180025607:	48 8b 8c 24 a0 00 00 	mov    0xa0(%rsp),%rcx
   18002560e:	00
   18002560f:	45 33 c0             	xor    %r8d,%r8d
   180025612:	48 8b d0             	mov    %rax,%rdx
   180025615:	4c 89 6c 24 20       	mov    %r13,0x20(%rsp)
   18002561a:	e8 f9 f8 ff ff       	call   0x180024f18
   18002561f:	49 85 c4             	test   %rax,%r12
   180025622:	0f 84 70 fe ff ff    	je     0x180025498
   180025628:	48 8b d8             	mov    %rax,%rbx
   18002562b:	48 8b cf             	mov    %rdi,%rcx
   18002562e:	e8 99 df ff ff       	call   0x1800235cc
   180025633:	48 8b 8c 24 a8 00 00 	mov    0xa8(%rsp),%rcx
   18002563a:	00
   18002563b:	e8 8c df ff ff       	call   0x1800235cc
   180025640:	48 8b c3             	mov    %rbx,%rax
   180025643:	e9 5f fe ff ff       	jmp    0x1800254a7
   180025648:	48 8b c4             	mov    %rsp,%rax
   18002564b:	4c 89 48 20          	mov    %r9,0x20(%rax)
   18002564f:	4c 89 40 18          	mov    %r8,0x18(%rax)
   180025653:	88 50 10             	mov    %dl,0x10(%rax)
   180025656:	53                   	push   %rbx
   180025657:	55                   	push   %rbp
   180025658:	56                   	push   %rsi
   180025659:	57                   	push   %rdi
   18002565a:	48 83 ec 58          	sub    $0x58,%rsp
   18002565e:	48 83 60 08 00       	andq   $0x0,0x8(%rax)
   180025663:	48 83 79 28 00       	cmpq   $0x0,0x28(%rcx)
   180025668:	40 8a ea             	mov    %dl,%bpl
   18002566b:	48 8b f9             	mov    %rcx,%rdi
   18002566e:	48 be 0e 00 00 00 00 	movabs $0x800000000000000e,%rsi
   180025675:	00 00 80
   180025678:	75 08                	jne    0x180025682
   18002567a:	48 8b c6             	mov    %rsi,%rax
   18002567d:	e9 bd 00 00 00       	jmp    0x18002573f
   180025682:	48 83 c1 30          	add    $0x30,%rcx
   180025686:	e8 cd d4 01 00       	call   0x180042b58
   18002568b:	84 c0                	test   %al,%al
   18002568d:	74 2c                	je     0x1800256bb
   18002568f:	48 83 7f 28 04       	cmpq   $0x4,0x28(%rdi)
   180025694:	76 25                	jbe    0x1800256bb
   180025696:	4c 8d 84 24 80 00 00 	lea    0x80(%rsp),%r8
   18002569d:	00
   18002569e:	33 d2                	xor    %edx,%edx
   1800256a0:	48 8b cf             	mov    %rdi,%rcx
   1800256a3:	e8 fc fb ff ff       	call   0x1800252a4
   1800256a8:	48 b9 00 00 00 00 00 	movabs $0x8000000000000000,%rcx
   1800256af:	00 00 80
   1800256b2:	48 85 c1             	test   %rax,%rcx
   1800256b5:	0f 85 84 00 00 00    	jne    0x18002573f
   1800256bb:	48 8d 4f 30          	lea    0x30(%rdi),%rcx
   1800256bf:	e8 d4 d4 01 00       	call   0x180042b98
   1800256c4:	48 8d 58 f8          	lea    -0x8(%rax),%rbx
   1800256c8:	48 89 9c 24 80 00 00 	mov    %rbx,0x80(%rsp)
   1800256cf:	00
   1800256d0:	40 84 ed             	test   %bpl,%bpl
   1800256d3:	74 37                	je     0x18002570c
   1800256d5:	40 0f b6 c5          	movzbl %bpl,%eax
   1800256d9:	39 43 18             	cmp    %eax,0x18(%rbx)
   1800256dc:	75 6a                	jne    0x180025748
   1800256de:	40 80 fd 02          	cmp    $0x2,%bpl
   1800256e2:	75 22                	jne    0x180025706
   1800256e4:	48 8b 84 24 98 00 00 	mov    0x98(%rsp),%rax
   1800256eb:	00
   1800256ec:	48 85 c0             	test   %rax,%rax
   1800256ef:	74 15                	je     0x180025706
   1800256f1:	8b 4b 20             	mov    0x20(%rbx),%ecx
   1800256f4:	48 8b d0             	mov    %rax,%rdx
   1800256f7:	48 03 4f 20          	add    0x20(%rdi),%rcx
   1800256fb:	48 83 c1 04          	add    $0x4,%rcx
   1800256ff:	e8 a4 b9 00 00       	call   0x1800310a8
   180025704:	eb 02                	jmp    0x180025708
   180025706:	b0 01                	mov    $0x1,%al
   180025708:	84 c0                	test   %al,%al
   18002570a:	74 3c                	je     0x180025748
   18002570c:	48 8b 84 24 90 00 00 	mov    0x90(%rsp),%rax
   180025713:	00
   180025714:	48 83 00 ff          	addq   $0xffffffffffffffff,(%rax)
   180025718:	75 36                	jne    0x180025750
   18002571a:	48 8b 84 24 a0 00 00 	mov    0xa0(%rsp),%rax
   180025721:	00
   180025722:	48 8b 8c 24 b0 00 00 	mov    0xb0(%rsp),%rcx
   180025729:	00
   18002572a:	48 89 18             	mov    %rbx,(%rax)
   18002572d:	48 8b 84 24 a8 00 00 	mov    0xa8(%rsp),%rax
   180025734:	00
   180025735:	48 89 38             	mov    %rdi,(%rax)
   180025738:	8b 47 40             	mov    0x40(%rdi),%eax
   18002573b:	89 01                	mov    %eax,(%rcx)
   18002573d:	33 c0                	xor    %eax,%eax
   18002573f:	48 83 c4 58          	add    $0x58,%rsp
   180025743:	5f                   	pop    %rdi
   180025744:	5e                   	pop    %rsi
   180025745:	5d                   	pop    %rbp
   180025746:	5b                   	pop    %rbx
   180025747:	c3                   	ret
   180025748:	48 8b 84 24 90 00 00 	mov    0x90(%rsp),%rax
   18002574f:	00
   180025750:	48 83 7b 28 00       	cmpq   $0x0,0x28(%rbx)
   180025755:	74 4d                	je     0x1800257a4
   180025757:	48 8b 8c 24 b0 00 00 	mov    0xb0(%rsp),%rcx
   18002575e:	00
   18002575f:	4c 8b 8c 24 98 00 00 	mov    0x98(%rsp),%r9
   180025766:	00
   180025767:	4c 8b c0             	mov    %rax,%r8
   18002576a:	48 89 4c 24 30       	mov    %rcx,0x30(%rsp)
   18002576f:	48 8d 4c 24 48       	lea    0x48(%rsp),%rcx
   180025774:	40 8a d5             	mov    %bpl,%dl
   180025777:	48 89 4c 24 28       	mov    %rcx,0x28(%rsp)
   18002577c:	48 8d 4c 24 40       	lea    0x40(%rsp),%rcx
   180025781:	48 89 4c 24 20       	mov    %rcx,0x20(%rsp)
   180025786:	48 8b 4b 28          	mov    0x28(%rbx),%rcx
   18002578a:	e8 b9 fe ff ff       	call   0x180025648
   18002578f:	4c 8b 84 24 90 00 00 	mov    0x90(%rsp),%r8
   180025796:	00
   180025797:	49 83 38 00          	cmpq   $0x0,(%r8)
   18002579b:	48 8b f0             	mov    %rax,%rsi
   18002579e:	0f 84 86 00 00 00    	je     0x18002582a
   1800257a4:	48 8d 6b 08          	lea    0x8(%rbx),%rbp
   1800257a8:	48 8d 4f 30          	lea    0x30(%rdi),%rcx
   1800257ac:	48 8b d5             	mov    %rbp,%rdx
   1800257af:	e8 f4 d3 01 00       	call   0x180042ba8
   1800257b4:	84 c0                	test   %al,%al
   1800257b6:	75 1a                	jne    0x1800257d2
   1800257b8:	48 8d 4f 30          	lea    0x30(%rdi),%rcx
   1800257bc:	48 8b d5             	mov    %rbp,%rdx
   1800257bf:	e8 d8 d3 01 00       	call   0x180042b9c
   1800257c4:	48 8d 58 f8          	lea    -0x8(%rax),%rbx
   1800257c8:	48 89 9c 24 80 00 00 	mov    %rbx,0x80(%rsp)
   1800257cf:	00
   1800257d0:	eb 4b                	jmp    0x18002581d
   1800257d2:	8b 4b 20             	mov    0x20(%rbx),%ecx
   1800257d5:	8b 43 1c             	mov    0x1c(%rbx),%eax
   1800257d8:	8d 54 01 03          	lea    0x3(%rcx,%rax,1),%edx
   1800257dc:	48 8b 4f 28          	mov    0x28(%rdi),%rcx
   1800257e0:	83 e2 fc             	and    $0xfffffffc,%edx
   1800257e3:	48 83 e9 04          	sub    $0x4,%rcx
   1800257e7:	8b c2                	mov    %edx,%eax
   1800257e9:	48 3b c1             	cmp    %rcx,%rax
   1800257ec:	0f 87 88 fe ff ff    	ja     0x18002567a
   1800257f2:	4c 8d 84 24 80 00 00 	lea    0x80(%rsp),%r8
   1800257f9:	00
   1800257fa:	48 8b cf             	mov    %rdi,%rcx
   1800257fd:	e8 a2 fa ff ff       	call   0x1800252a4
   180025802:	48 b9 00 00 00 00 00 	movabs $0x8000000000000000,%rcx
   180025809:	00 00 80
   18002580c:	48 85 c1             	test   %rax,%rcx
   18002580f:	0f 85 2a ff ff ff    	jne    0x18002573f
   180025815:	48 8b 9c 24 80 00 00 	mov    0x80(%rsp),%rbx
   18002581c:	00
   18002581d:	40 8a ac 24 88 00 00 	mov    0x88(%rsp),%bpl
   180025824:	00
   180025825:	e9 a6 fe ff ff       	jmp    0x1800256d0
   18002582a:	48 8b 8c 24 a0 00 00 	mov    0xa0(%rsp),%rcx
   180025831:	00
   180025832:	48 8b 44 24 40       	mov    0x40(%rsp),%rax
   180025837:	48 89 01             	mov    %rax,(%rcx)
   18002583a:	48 8b 8c 24 a8 00 00 	mov    0xa8(%rsp),%rcx
   180025841:	00
   180025842:	48 8b 44 24 48       	mov    0x48(%rsp),%rax
   180025847:	48 89 01             	mov    %rax,(%rcx)
   18002584a:	e9 ee fe ff ff       	jmp    0x18002573d
   18002584f:	cc                   	int3
   180025850:	48 8b c4             	mov    %rsp,%rax
   180025853:	48 89 58 08          	mov    %rbx,0x8(%rax)
   180025857:	48 89 68 10          	mov    %rbp,0x10(%rax)
   18002585b:	48 89 70 18          	mov    %rsi,0x18(%rax)
   18002585f:	48 89 78 20          	mov    %rdi,0x20(%rax)
   180025863:	41 54                	push   %r12
   180025865:	41 55                	push   %r13
   180025867:	41 56                	push   %r14
   180025869:	48 83 ec 60          	sub    $0x60,%rsp
   18002586d:	b9 10 00 00 00       	mov    $0x10,%ecx
   180025872:	49 8b e9             	mov    %r9,%rbp
   180025875:	49 8b f0             	mov    %r8,%rsi
   180025878:	48 8b da             	mov    %rdx,%rbx
   18002587b:	e8 d0 ec ff ff       	call   0x180024550
   180025880:	48 8b 8c 24 a0 00 00 	mov    0xa0(%rsp),%rcx
   180025887:	00
   180025888:	48 ff c1             	inc    %rcx
   18002588b:	48 8d 94 24 a0 00 00 	lea    0xa0(%rsp),%rdx
   180025892:	00
   180025893:	4c 8b f0             	mov    %rax,%r14
   180025896:	48 89 4c 24 48       	mov    %rcx,0x48(%rsp)
   18002589b:	48 8b cb             	mov    %rbx,%rcx
   18002589e:	e8 65 f7 ff ff       	call   0x180025008
   1800258a3:	48 bb 00 00 00 00 00 	movabs $0x8000000000000000,%rbx
   1800258aa:	00 00 80
   1800258ad:	48 8b f8             	mov    %rax,%rdi
   1800258b0:	48 85 c3             	test   %rax,%rbx
   1800258b3:	74 0f                	je     0x1800258c4
   1800258b5:	48 bf 02 00 00 00 00 	movabs $0x8000000000000002,%rdi
   1800258bc:	00 00 80
   1800258bf:	e9 c6 00 00 00       	jmp    0x18002598a
   1800258c4:	48 85 f6             	test   %rsi,%rsi
   1800258c7:	75 1f                	jne    0x1800258e8
   1800258c9:	48 8b 84 24 a0 00 00 	mov    0xa0(%rsp),%rax
   1800258d0:	00
   1800258d1:	48 8b 58 28          	mov    0x28(%rax),%rbx
   1800258d5:	4c 8b 60 20          	mov    0x20(%rax),%r12
   1800258d9:	8b 48 40             	mov    0x40(%rax),%ecx
   1800258dc:	48 8b 84 24 b8 00 00 	mov    0xb8(%rsp),%rax
   1800258e3:	00
   1800258e4:	89 08                	mov    %ecx,(%rax)
   1800258e6:	eb 68                	jmp    0x180025950
   1800258e8:	8a 16                	mov    (%rsi),%dl
   1800258ea:	48 8b 8c 24 a0 00 00 	mov    0xa0(%rsp),%rcx
   1800258f1:	00
   1800258f2:	48 8d 44 24 40       	lea    0x40(%rsp),%rax
   1800258f7:	48 89 44 24 30       	mov    %rax,0x30(%rsp)
   1800258fc:	48 8d 44 24 58       	lea    0x58(%rsp),%rax
   180025901:	4c 8d 44 24 48       	lea    0x48(%rsp),%r8
   180025906:	48 89 44 24 28       	mov    %rax,0x28(%rsp)
   18002590b:	48 8d 44 24 50       	lea    0x50(%rsp),%rax
   180025910:	4c 8b cd             	mov    %rbp,%r9
   180025913:	48 89 44 24 20       	mov    %rax,0x20(%rsp)
   180025918:	e8 2b fd ff ff       	call   0x180025648
   18002591d:	48 8b f8             	mov    %rax,%rdi
   180025920:	48 85 c3             	test   %rax,%rbx
   180025923:	75 65                	jne    0x18002598a
   180025925:	48 8b 44 24 50       	mov    0x50(%rsp),%rax
   18002592a:	8b 58 1c             	mov    0x1c(%rax),%ebx
   18002592d:	8b 50 20             	mov    0x20(%rax),%edx
   180025930:	48 8b 44 24 58       	mov    0x58(%rsp),%rax
   180025935:	48 8b 48 20          	mov    0x20(%rax),%rcx
   180025939:	8b 44 24 40          	mov    0x40(%rsp),%eax
   18002593d:	48 83 eb 04          	sub    $0x4,%rbx
   180025941:	4c 8d 64 0a 04       	lea    0x4(%rdx,%rcx,1),%r12
   180025946:	48 8b 8c 24 b8 00 00 	mov    0xb8(%rsp),%rcx
   18002594d:	00
   18002594e:	89 01                	mov    %eax,(%rcx)
   180025950:	48 8b b4 24 a8 00 00 	mov    0xa8(%rsp),%rsi
   180025957:	00
   180025958:	48 8b ac 24 b0 00 00 	mov    0xb0(%rsp),%rbp
   18002595f:	00
   180025960:	4c 8b eb             	mov    %rbx,%r13
   180025963:	48 83 3e 00          	cmpq   $0x0,(%rsi)
   180025967:	74 4b                	je     0x1800259b4
   180025969:	48 39 5d 00          	cmp    %rbx,0x0(%rbp)
   18002596d:	73 09                	jae    0x180025978
   18002596f:	48 8b 5d 00          	mov    0x0(%rbp),%rbx
   180025973:	bf 04 00 00 00       	mov    $0x4,%edi
   180025978:	48 8b 0e             	mov    (%rsi),%rcx
   18002597b:	4c 8b c3             	mov    %rbx,%r8
   18002597e:	49 8b d4             	mov    %r12,%rdx
   180025981:	e8 a2 9c ff ff       	call   0x18001f628
   180025986:	4c 89 6d 00          	mov    %r13,0x0(%rbp)
   18002598a:	49 8b ce             	mov    %r14,%rcx
   18002598d:	e8 06 ec ff ff       	call   0x180024598
   180025992:	4c 8d 5c 24 60       	lea    0x60(%rsp),%r11
   180025997:	48 8b c7             	mov    %rdi,%rax
   18002599a:	49 8b 5b 20          	mov    0x20(%r11),%rbx
   18002599e:	49 8b 6b 28          	mov    0x28(%r11),%rbp
   1800259a2:	49 8b 73 30          	mov    0x30(%r11),%rsi
   1800259a6:	49 8b 7b 38          	mov    0x38(%r11),%rdi
   1800259aa:	49 8b e3             	mov    %r11,%rsp
   1800259ad:	41 5e                	pop    %r14
   1800259af:	41 5d                	pop    %r13
   1800259b1:	41 5c                	pop    %r12
   1800259b3:	c3                   	ret
   1800259b4:	48 8b cb             	mov    %rbx,%rcx
   1800259b7:	e8 e8 ef ff ff       	call   0x1800249a4
   1800259bc:	48 89 06             	mov    %rax,(%rsi)
   1800259bf:	48 85 c0             	test   %rax,%rax
   1800259c2:	75 b4                	jne    0x180025978
   1800259c4:	48 bf 09 00 00 00 00 	movabs $0x8000000000000009,%rdi
   1800259cb:	00 00 80
   1800259ce:	eb ba                	jmp    0x18002598a
   1800259d0:	4c 8b dc             	mov    %rsp,%r11
   1800259d3:	49 89 5b 10          	mov    %rbx,0x10(%r11)
   1800259d7:	49 89 73 18          	mov    %rsi,0x18(%r11)
   1800259db:	57                   	push   %rdi
   1800259dc:	48 83 ec 70          	sub    $0x70,%rsp
   1800259e0:	49 8d 43 b8          	lea    -0x48(%r11),%rax
   1800259e4:	48 8b da             	mov    %rdx,%rbx
   1800259e7:	4d 8d 4b 08          	lea    0x8(%r11),%r9
   1800259eb:	48 8b f9             	mov    %rcx,%rdi
   1800259ee:	be 40 00 00 00       	mov    $0x40,%esi
   1800259f3:	45 33 c0             	xor    %r8d,%r8d
   1800259f6:	33 d2                	xor    %edx,%edx
   1800259f8:	49 89 43 a8          	mov    %rax,-0x58(%r11)
   1800259fc:	49 89 73 08          	mov    %rsi,0x8(%r11)
   180025a00:	ff 57 20             	call   *0x20(%rdi)
   180025a03:	0f b7 4c 24 60       	movzwl 0x60(%rsp),%ecx
   180025a08:	e8 97 ef ff ff       	call   0x1800249a4
   180025a0d:	48 89 03             	mov    %rax,(%rbx)
   180025a10:	48 85 c0             	test   %rax,%rax
   180025a13:	75 0c                	jne    0x180025a21
   180025a15:	48 b8 09 00 00 00 00 	movabs $0x8000000000000009,%rax
   180025a1c:	00 00 80
   180025a1f:	eb 5c                	jmp    0x180025a7d
   180025a21:	48 8d 54 24 30       	lea    0x30(%rsp),%rdx
   180025a26:	4c 8b c6             	mov    %rsi,%r8
   180025a29:	48 8b c8             	mov    %rax,%rcx
   180025a2c:	e8 f7 9b ff ff       	call   0x18001f628
   180025a31:	44 0f b7 5c 24 60    	movzwl 0x60(%rsp),%r11d
   180025a37:	48 8b 03             	mov    (%rbx),%rax
   180025a3a:	4c 2b de             	sub    %rsi,%r11
   180025a3d:	48 03 c6             	add    %rsi,%rax
   180025a40:	4c 8d 8c 24 80 00 00 	lea    0x80(%rsp),%r9
   180025a47:	00
   180025a48:	4c 8b c6             	mov    %rsi,%r8
   180025a4b:	33 d2                	xor    %edx,%edx
   180025a4d:	48 8b cf             	mov    %rdi,%rcx
   180025a50:	4c 89 9c 24 80 00 00 	mov    %r11,0x80(%rsp)
   180025a57:	00
   180025a58:	48 89 44 24 20       	mov    %rax,0x20(%rsp)
   180025a5d:	ff 57 20             	call   *0x20(%rdi)
   180025a60:	48 8b f8             	mov    %rax,%rdi
   180025a63:	48 b8 00 00 00 00 00 	movabs $0x8000000000000000,%rax
   180025a6a:	00 00 80
   180025a6d:	48 85 f8             	test   %rdi,%rax
   180025a70:	74 08                	je     0x180025a7a
   180025a72:	48 8b 0b             	mov    (%rbx),%rcx
   180025a75:	e8 52 db ff ff       	call   0x1800235cc
   180025a7a:	48 8b c7             	mov    %rdi,%rax
   180025a7d:	4c 8d 5c 24 70       	lea    0x70(%rsp),%r11
   180025a82:	49 8b 5b 18          	mov    0x18(%r11),%rbx
   180025a86:	49 8b 73 20          	mov    0x20(%r11),%rsi
   180025a8a:	49 8b e3             	mov    %r11,%rsp
   180025a8d:	5f                   	pop    %rdi
   180025a8e:	c3                   	ret
   180025a8f:	cc                   	int3
   180025a90:	40 53                	rex push %rbx
   180025a92:	55                   	push   %rbp
   180025a93:	56                   	push   %rsi
   180025a94:	57                   	push   %rdi
   180025a95:	41 54                	push   %r12
   180025a97:	41 55                	push   %r13
   180025a99:	41 56                	push   %r14
   180025a9b:	48 83 ec 30          	sub    $0x30,%rsp
   180025a9f:	4c 8b 69 08          	mov    0x8(%rcx),%r13
   180025aa3:	48 8b 59 68          	mov    0x68(%rcx),%rbx
   180025aa7:	48 8b f9             	mov    %rcx,%rdi
   180025aaa:	48 8d 54 24 78       	lea    0x78(%rsp),%rdx
   180025aaf:	49 8b cd             	mov    %r13,%rcx
   180025ab2:	41 ff 55 00          	call   *0x0(%r13)
   180025ab6:	48 b9 00 00 00 00 00 	movabs $0x8000000000000000,%rcx
   180025abd:	00 00 80
   180025ac0:	48 85 c1             	test   %rax,%rcx
   180025ac3:	0f 85 23 02 00 00    	jne    0x180025cec
   180025ac9:	0f b7 43 30          	movzwl 0x30(%rbx),%eax
   180025acd:	48 8b 4b 20          	mov    0x20(%rbx),%rcx
   180025ad1:	48 2b c8             	sub    %rax,%rcx
   180025ad4:	48 89 8c 24 80 00 00 	mov    %rcx,0x80(%rsp)
   180025adb:	00
   180025adc:	e8 e3 ee ff ff       	call   0x1800249c4
   180025ae1:	48 8b e8             	mov    %rax,%rbp
   180025ae4:	48 89 47 70          	mov    %rax,0x70(%rdi)
   180025ae8:	48 85 c0             	test   %rax,%rax
   180025aeb:	75 0f                	jne    0x180025afc
   180025aed:	48 b8 09 00 00 00 00 	movabs $0x8000000000000009,%rax
   180025af4:	00 00 80
   180025af7:	e9 f0 01 00 00       	jmp    0x180025cec
   180025afc:	48 8b 8c 24 80 00 00 	mov    0x80(%rsp),%rcx
   180025b03:	00
   180025b04:	48 8d 73 38          	lea    0x38(%rbx),%rsi
   180025b08:	48 03 c8             	add    %rax,%rcx
   180025b0b:	45 33 f6             	xor    %r14d,%r14d
   180025b0e:	48 89 4f 78          	mov    %rcx,0x78(%rdi)
   180025b12:	44 0f b7 43 30       	movzwl 0x30(%rbx),%r8d
   180025b17:	83 3e 00             	cmpl   $0x0,(%rsi)
   180025b1a:	75 06                	jne    0x180025b22
   180025b1c:	83 7e 04 00          	cmpl   $0x0,0x4(%rsi)
   180025b20:	74 6e                	je     0x180025b90
   180025b22:	45 33 e4             	xor    %r12d,%r12d
   180025b25:	44 39 26             	cmp    %r12d,(%rsi)
   180025b28:	76 60                	jbe    0x180025b8a
   180025b2a:	8b 46 04             	mov    0x4(%rsi),%eax
   180025b2d:	48 89 84 24 80 00 00 	mov    %rax,0x80(%rsp)
   180025b34:	00
   180025b35:	4d 85 e4             	test   %r12,%r12
   180025b38:	75 0b                	jne    0x180025b45
   180025b3a:	49 2b c0             	sub    %r8,%rax
   180025b3d:	48 89 84 24 80 00 00 	mov    %rax,0x80(%rsp)
   180025b44:	00
   180025b45:	4c 8d 8c 24 80 00 00 	lea    0x80(%rsp),%r9
   180025b4c:	00
   180025b4d:	49 8b d6             	mov    %r14,%rdx
   180025b50:	49 8b cd             	mov    %r13,%rcx
   180025b53:	48 89 6c 24 20       	mov    %rbp,0x20(%rsp)
   180025b58:	41 ff 55 20          	call   *0x20(%r13)
   180025b5c:	48 8b d8             	mov    %rax,%rbx
   180025b5f:	48 b8 00 00 00 00 00 	movabs $0x8000000000000000,%rax
   180025b66:	00 00 80
   180025b69:	48 85 d8             	test   %rbx,%rax
   180025b6c:	0f 85 20 01 00 00    	jne    0x180025c92
   180025b72:	8b 06                	mov    (%rsi),%eax
   180025b74:	48 03 ac 24 80 00 00 	add    0x80(%rsp),%rbp
   180025b7b:	00
   180025b7c:	49 ff c4             	inc    %r12
   180025b7f:	45 33 c0             	xor    %r8d,%r8d
   180025b82:	49 ff c6             	inc    %r14
   180025b85:	4c 3b e0             	cmp    %rax,%r12
   180025b88:	72 a0                	jb     0x180025b2a
   180025b8a:	48 83 c6 08          	add    $0x8,%rsi
   180025b8e:	eb 87                	jmp    0x180025b17
   180025b90:	0f ba 64 24 78 0b    	btl    $0xb,0x78(%rsp)
   180025b96:	73 09                	jae    0x180025ba1
   180025b98:	c6 87 98 00 00 00 01 	movb   $0x1,0x98(%rdi)
   180025b9f:	eb 07                	jmp    0x180025ba8
   180025ba1:	c6 87 98 00 00 00 00 	movb   $0x0,0x98(%rdi)
   180025ba8:	48 8d 8f 88 00 00 00 	lea    0x88(%rdi),%rcx
   180025baf:	33 db                	xor    %ebx,%ebx
   180025bb1:	e8 9a cf 01 00       	call   0x180042b50
   180025bb6:	48 8b 77 70          	mov    0x70(%rdi),%rsi
   180025bba:	4c 8b 67 78          	mov    0x78(%rdi),%r12
   180025bbe:	49 3b f4             	cmp    %r12,%rsi
   180025bc1:	0f 83 cb 00 00 00    	jae    0x180025c92
   180025bc7:	44 8d 73 18          	lea    0x18(%rbx),%r14d
   180025bcb:	8a 8f 98 00 00 00    	mov    0x98(%rdi),%cl
   180025bd1:	4d 8b c4             	mov    %r12,%r8
   180025bd4:	48 8b d6             	mov    %rsi,%rdx
   180025bd7:	4c 2b c6             	sub    %rsi,%r8
   180025bda:	4d 3b c6             	cmp    %r14,%r8
   180025bdd:	4d 0f 47 c6          	cmova  %r14,%r8
   180025be1:	e8 36 2b 01 00       	call   0x18003871c
   180025be6:	84 c0                	test   %al,%al
   180025be8:	0f 85 a4 00 00 00    	jne    0x180025c92
   180025bee:	8a 8f 98 00 00 00    	mov    0x98(%rdi),%cl
   180025bf4:	4c 8d 44 24 70       	lea    0x70(%rsp),%r8
   180025bf9:	48 8b d6             	mov    %rsi,%rdx
   180025bfc:	e8 67 2b 01 00       	call   0x180038768
   180025c01:	84 c0                	test   %al,%al
   180025c03:	75 11                	jne    0x180025c16
   180025c05:	8a 44 24 70          	mov    0x70(%rsp),%al
   180025c09:	3c 20                	cmp    $0x20,%al
   180025c0b:	74 04                	je     0x180025c11
   180025c0d:	3c 01                	cmp    $0x1,%al
   180025c0f:	75 77                	jne    0x180025c88
   180025c11:	49 03 f6             	add    %r14,%rsi
   180025c14:	eb 5c                	jmp    0x180025c72
   180025c16:	8a 8f 98 00 00 00    	mov    0x98(%rdi),%cl
   180025c1c:	48 8b d6             	mov    %rsi,%rdx
   180025c1f:	e8 94 2b 01 00       	call   0x1800387b8
   180025c24:	84 c0                	test   %al,%al
   180025c26:	74 60                	je     0x180025c88
   180025c28:	8b 6e 14             	mov    0x14(%rsi),%ebp
   180025c2b:	8a 8f 98 00 00 00    	mov    0x98(%rdi),%cl
   180025c31:	48 8b d6             	mov    %rsi,%rdx
   180025c34:	81 e5 ff ff ff 00    	and    $0xffffff,%ebp
   180025c3a:	e8 c5 2a 01 00       	call   0x180038704
   180025c3f:	88 44 24 70          	mov    %al,0x70(%rsp)
   180025c43:	3c 10                	cmp    $0x10,%al
   180025c45:	74 22                	je     0x180025c69
   180025c47:	b9 28 00 00 00       	mov    $0x28,%ecx
   180025c4c:	e8 73 ed ff ff       	call   0x1800249c4
   180025c51:	48 85 c0             	test   %rax,%rax
   180025c54:	74 26                	je     0x180025c7c
   180025c56:	48 8d 8f 88 00 00 00 	lea    0x88(%rdi),%rcx
   180025c5d:	48 8b d0             	mov    %rax,%rdx
   180025c60:	48 89 70 10          	mov    %rsi,0x10(%rax)
   180025c64:	e8 07 cf 01 00       	call   0x180042b70
   180025c69:	48 8d 74 2e 07       	lea    0x7(%rsi,%rbp,1),%rsi
   180025c6e:	48 83 e6 f8          	and    $0xfffffffffffffff8,%rsi
   180025c72:	49 3b f4             	cmp    %r12,%rsi
   180025c75:	73 1b                	jae    0x180025c92
   180025c77:	e9 4f ff ff ff       	jmp    0x180025bcb
   180025c7c:	48 bb 09 00 00 00 00 	movabs $0x8000000000000009,%rbx
   180025c83:	00 00 80
   180025c86:	eb 0a                	jmp    0x180025c92
   180025c88:	48 bb 0a 00 00 00 00 	movabs $0x800000000000000a,%rbx
   180025c8f:	00 00 80
   180025c92:	48 be 00 00 00 00 00 	movabs $0x8000000000000000,%rsi
   180025c99:	00 00 80
   180025c9c:	48 85 de             	test   %rbx,%rsi
   180025c9f:	74 48                	je     0x180025ce9
   180025ca1:	48 8d af 88 00 00 00 	lea    0x88(%rdi),%rbp
   180025ca8:	48 8b 75 00          	mov    0x0(%rbp),%rsi
   180025cac:	48 3b f5             	cmp    %rbp,%rsi
   180025caf:	74 26                	je     0x180025cd7
   180025cb1:	48 8b 56 18          	mov    0x18(%rsi),%rdx
   180025cb5:	4c 8b 26             	mov    (%rsi),%r12
   180025cb8:	48 85 d2             	test   %rdx,%rdx
   180025cbb:	74 0a                	je     0x180025cc7
   180025cbd:	48 8b 46 20          	mov    0x20(%rsi),%rax
   180025cc1:	48 8b c8             	mov    %rax,%rcx
   180025cc4:	ff 50 10             	call   *0x10(%rax)
   180025cc7:	48 8b ce             	mov    %rsi,%rcx
   180025cca:	e8 fd d8 ff ff       	call   0x1800235cc
   180025ccf:	49 8b f4             	mov    %r12,%rsi
   180025cd2:	4c 3b e5             	cmp    %rbp,%r12
   180025cd5:	75 da                	jne    0x180025cb1
   180025cd7:	48 8b 4f 70          	mov    0x70(%rdi),%rcx
   180025cdb:	e8 ec d8 ff ff       	call   0x1800235cc
   180025ce0:	48 8b 4f 68          	mov    0x68(%rdi),%rcx
   180025ce4:	e8 e3 d8 ff ff       	call   0x1800235cc
   180025ce9:	48 8b c3             	mov    %rbx,%rax
   180025cec:	48 83 c4 30          	add    $0x30,%rsp
   180025cf0:	41 5e                	pop    %r14
   180025cf2:	41 5d                	pop    %r13
   180025cf4:	41 5c                	pop    %r12
   180025cf6:	5f                   	pop    %rdi
   180025cf7:	5e                   	pop    %rsi
   180025cf8:	5d                   	pop    %rbp
   180025cf9:	5b                   	pop    %rbx
   180025cfa:	c3                   	ret
   180025cfb:	cc                   	int3
   180025cfc:	4c 8b dc             	mov    %rsp,%r11
   180025cff:	49 89 5b 08          	mov    %rbx,0x8(%r11)
   180025d03:	49 89 7b 10          	mov    %rdi,0x10(%r11)
   180025d07:	41 54                	push   %r12
   180025d09:	48 83 ec 50          	sub    $0x50,%rsp
   180025d0d:	4c 8b 05 ac bc 02 00 	mov    0x2bcac(%rip),%r8        # 0x1800519c0
   180025d14:	33 d2                	xor    %edx,%edx
   180025d16:	49 8d 43 18          	lea    0x18(%r11),%rax
   180025d1a:	4d 8d 4b d8          	lea    -0x28(%r11),%r9
   180025d1e:	8d 4a 01             	lea    0x1(%rdx),%ecx
   180025d21:	49 c7 43 d8 08 00 00 	movq   $0x8,-0x28(%r11)
   180025d28:	00
   180025d29:	49 89 43 c8          	mov    %rax,-0x38(%r11)
   180025d2d:	e8 1e ad ff ff       	call   0x180020a50
   180025d32:	49 bc 0e 00 00 00 00 	movabs $0x800000000000000e,%r12
   180025d39:	00 00 80
   180025d3c:	49 3b c4             	cmp    %r12,%rax
   180025d3f:	0f 84 2f 01 00 00    	je     0x180025e74
   180025d45:	48 bf 00 00 00 00 00 	movabs $0x8000000000000000,%rdi
   180025d4c:	00 00 80
   180025d4f:	48 85 c7             	test   %rax,%rdi
   180025d52:	0f 85 ea 00 00 00    	jne    0x180025e42
   180025d58:	48 8b 4c 24 70       	mov    0x70(%rsp),%rcx
   180025d5d:	4c 8d 44 24 78       	lea    0x78(%rsp),%r8
   180025d62:	48 8d 15 77 a5 02 00 	lea    0x2a577(%rip),%rdx        # 0x1800502e0
   180025d69:	e8 3e a6 ff ff       	call   0x1800203ac
   180025d6e:	48 8b 4c 24 78       	mov    0x78(%rsp),%rcx
   180025d73:	48 8d 54 24 38       	lea    0x38(%rsp),%rdx
   180025d78:	e8 53 fc ff ff       	call   0x1800259d0
   180025d7d:	48 85 c7             	test   %rax,%rdi
   180025d80:	0f 85 ee 00 00 00    	jne    0x180025e74
   180025d86:	48 8b 5c 24 38       	mov    0x38(%rsp),%rbx
   180025d8b:	48 8b cb             	mov    %rbx,%rcx
   180025d8e:	e8 ad 29 01 00       	call   0x180038740
   180025d93:	84 c0                	test   %al,%al
   180025d95:	75 0d                	jne    0x180025da4
   180025d97:	48 8b cb             	mov    %rbx,%rcx
   180025d9a:	e8 2d d8 ff ff       	call   0x1800235cc
   180025d9f:	e9 9e 00 00 00       	jmp    0x180025e42
   180025da4:	48 8d 4b 10          	lea    0x10(%rbx),%rcx
   180025da8:	48 8d 15 61 89 02 00 	lea    0x28961(%rip),%rdx        # 0x18004e710
   180025daf:	e8 f4 b2 00 00       	call   0x1800310a8
   180025db4:	84 c0                	test   %al,%al
   180025db6:	0f 84 86 00 00 00    	je     0x180025e42
   180025dbc:	48 8b 4c 24 70       	mov    0x70(%rsp),%rcx
   180025dc1:	4c 8d 44 24 40       	lea    0x40(%rsp),%r8
   180025dc6:	48 8d 15 13 a4 02 00 	lea    0x2a413(%rip),%rdx        # 0x1800501e0
   180025dcd:	e8 da a5 ff ff       	call   0x1800203ac
   180025dd2:	48 85 c7             	test   %rax,%rdi
   180025dd5:	75 1a                	jne    0x180025df1
   180025dd7:	48 8b 4c 24 40       	mov    0x40(%rsp),%rcx
   180025ddc:	48 81 79 e8 5f 46 56 	cmpq   $0x5f56465f,-0x18(%rcx)
   180025de3:	5f
   180025de4:	75 5c                	jne    0x180025e42
   180025de6:	48 8b 44 24 78       	mov    0x78(%rsp),%rax
   180025deb:	48 89 41 f0          	mov    %rax,-0x10(%rcx)
   180025def:	eb 51                	jmp    0x180025e42
   180025df1:	48 8d 15 08 7e 02 00 	lea    0x27e08(%rip),%rdx        # 0x18004dc00
   180025df8:	b9 a0 00 00 00       	mov    $0xa0,%ecx
   180025dfd:	e8 0e ec ff ff       	call   0x180024a10
   180025e02:	48 85 c0             	test   %rax,%rax
   180025e05:	74 6d                	je     0x180025e74
   180025e07:	48 8b 4c 24 78       	mov    0x78(%rsp),%rcx
   180025e0c:	4c 8d 48 18          	lea    0x18(%rax),%r9
   180025e10:	45 33 c0             	xor    %r8d,%r8d
   180025e13:	48 89 48 08          	mov    %rcx,0x8(%rax)
   180025e17:	48 8b 4c 24 70       	mov    0x70(%rsp),%rcx
   180025e1c:	48 89 58 68          	mov    %rbx,0x68(%rax)
   180025e20:	48 89 48 10          	mov    %rcx,0x10(%rax)
   180025e24:	48 8b 4c 24 78       	mov    0x78(%rsp),%rcx
   180025e29:	48 8b 51 38          	mov    0x38(%rcx),%rdx
   180025e2d:	48 8d 4c 24 70       	lea    0x70(%rsp),%rcx
   180025e32:	48 89 50 50          	mov    %rdx,0x50(%rax)
   180025e36:	48 8d 15 a3 a3 02 00 	lea    0x2a3a3(%rip),%rdx        # 0x1800501e0
   180025e3d:	e8 7a a8 ff ff       	call   0x1800206bc
   180025e42:	4c 8b 05 77 bb 02 00 	mov    0x2bb77(%rip),%r8        # 0x1800519c0
   180025e49:	33 d2                	xor    %edx,%edx
   180025e4b:	48 8d 44 24 70       	lea    0x70(%rsp),%rax
   180025e50:	4c 8d 4c 24 30       	lea    0x30(%rsp),%r9
   180025e55:	8d 4a 01             	lea    0x1(%rdx),%ecx
   180025e58:	48 c7 44 24 30 08 00 	movq   $0x8,0x30(%rsp)
   180025e5f:	00 00
   180025e61:	48 89 44 24 20       	mov    %rax,0x20(%rsp)
   180025e66:	e8 e5 ab ff ff       	call   0x180020a50
   180025e6b:	49 3b c4             	cmp    %r12,%rax
   180025e6e:	0f 85 db fe ff ff    	jne    0x180025d4f
   180025e74:	48 8b 5c 24 60       	mov    0x60(%rsp),%rbx
   180025e79:	48 8b 7c 24 68       	mov    0x68(%rsp),%rdi
   180025e7e:	48 83 c4 50          	add    $0x50,%rsp
   180025e82:	41 5c                	pop    %r12
   180025e84:	c3                   	ret
   180025e85:	cc                   	int3
   180025e86:	cc                   	int3
   180025e87:	cc                   	int3
   180025e88:	48 83 ec 38          	sub    $0x38,%rsp
   180025e8c:	45 33 c9             	xor    %r9d,%r9d
   180025e8f:	48 8d 05 2a bb 02 00 	lea    0x2bb2a(%rip),%rax        # 0x1800519c0
   180025e96:	4c 8d 05 5f fe ff ff 	lea    -0x1a1(%rip),%r8        # 0x180025cfc
   180025e9d:	48 8d 0d 3c a4 02 00 	lea    0x2a43c(%rip),%rcx        # 0x1800502e0
   180025ea4:	41 8d 51 08          	lea    0x8(%r9),%edx
   180025ea8:	c6 44 24 28 01       	movb   $0x1,0x28(%rsp)
   180025ead:	48 89 44 24 20       	mov    %rax,0x20(%rsp)
   180025eb2:	e8 51 ed ff ff       	call   0x180024c08
   180025eb7:	48 89 05 0a bb 02 00 	mov    %rax,0x2bb0a(%rip)        # 0x1800519c8
   180025ebe:	33 c0                	xor    %eax,%eax
   180025ec0:	48 83 c4 38          	add    $0x38,%rsp
   180025ec4:	c3                   	ret
   180025ec5:	cc                   	int3
   180025ec6:	cc                   	int3
   180025ec7:	cc                   	int3
   180025ec8:	40 53                	rex push %rbx
   180025eca:	48 83 ec 20          	sub    $0x20,%rsp
   180025ece:	4c 8d 4c 24 30       	lea    0x30(%rsp),%r9
   180025ed3:	ba 04 00 00 00       	mov    $0x4,%edx
   180025ed8:	33 c9                	xor    %ecx,%ecx
   180025eda:	41 b8 01 04 00 00    	mov    $0x401,%r8d
   180025ee0:	e8 5b e2 ff ff       	call   0x180024140
   180025ee5:	48 bb 00 00 00 00 00 	movabs $0x8000000000000000,%rbx
   180025eec:	00 00 80
   180025eef:	48 85 c3             	test   %rax,%rbx
   180025ef2:	0f 85 80 00 00 00    	jne    0x180025f78
   180025ef8:	48 8b 4c 24 30       	mov    0x30(%rsp),%rcx
   180025efd:	ba 01 04 00 00       	mov    $0x401,%edx
   180025f02:	e8 51 e3 ff ff       	call   0x180024258
   180025f07:	48 85 c3             	test   %rax,%rbx
   180025f0a:	75 6c                	jne    0x180025f78
   180025f0c:	48 8b 44 24 30       	mov    0x30(%rsp),%rax
   180025f11:	ba 04 00 00 00       	mov    $0x4,%edx
   180025f16:	4c 8d 4c 24 30       	lea    0x30(%rsp),%r9
   180025f1b:	48 05 ff ff 3f 00    	add    $0x3fffff,%rax
   180025f21:	8d 4a fe             	lea    -0x2(%rdx),%ecx
   180025f24:	44 8d 42 fd          	lea    -0x3(%rdx),%r8d
   180025f28:	48 25 00 00 c0 ff    	and    $0xffffffffffc00000,%rax
   180025f2e:	48 89 44 24 30       	mov    %rax,0x30(%rsp)
   180025f33:	e8 08 e2 ff ff       	call   0x180024140
   180025f38:	48 85 c3             	test   %rax,%rbx
   180025f3b:	75 3b                	jne    0x180025f78
   180025f3d:	48 8b 4c 24 30       	mov    0x30(%rsp),%rcx
   180025f42:	48 b8 49 42 49 20 53 	movabs $0x5453595320494249,%rax
   180025f49:	59 53 54
   180025f4c:	48 8d 15 7d ad 02 00 	lea    0x2ad7d(%rip),%rdx        # 0x180050cd0
   180025f53:	48 89 01             	mov    %rax,(%rcx)
   180025f56:	48 8b 05 33 ab 02 00 	mov    0x2ab33(%rip),%rax        # 0x180050a90
   180025f5d:	83 61 10 00          	andl   $0x0,0x10(%rcx)
   180025f61:	48 89 41 08          	mov    %rax,0x8(%rcx)
   180025f65:	48 89 0d 74 ad 02 00 	mov    %rcx,0x2ad74(%rip)        # 0x180050ce0
   180025f6c:	48 8d 0d ad 87 02 00 	lea    0x287ad(%rip),%rcx        # 0x18004e720
   180025f73:	e8 ec ca ff ff       	call   0x180022a64
   180025f78:	48 83 c4 20          	add    $0x20,%rsp
   180025f7c:	5b                   	pop    %rbx
   180025f7d:	c3                   	ret
   180025f7e:	cc                   	int3
   180025f7f:	cc                   	int3
   180025f80:	48 8b 0d 59 ad 02 00 	mov    0x2ad59(%rip),%rcx        # 0x180050ce0
   180025f87:	ba 18 00 00 00       	mov    $0x18,%edx
   180025f8c:	4c 8d 41 10          	lea    0x10(%rcx),%r8
   180025f90:	41 83 20 00          	andl   $0x0,(%r8)
   180025f94:	48 8b 05 bd 5e 02 00 	mov    0x25ebd(%rip),%rax        # 0x18004be58
   180025f9b:	48 ff a0 58 01 00 00 	rex.W jmp *0x158(%rax)
   180025fa2:	cc                   	int3
   180025fa3:	cc                   	int3
   180025fa4:	48 8b c4             	mov    %rsp,%rax
   180025fa7:	48 89 58 08          	mov    %rbx,0x8(%rax)
   180025fab:	48 89 68 10          	mov    %rbp,0x10(%rax)
   180025faf:	48 89 70 18          	mov    %rsi,0x18(%rax)
   180025fb3:	48 89 78 20          	mov    %rdi,0x20(%rax)
   180025fb7:	41 54                	push   %r12
   180025fb9:	41 55                	push   %r13
   180025fbb:	41 56                	push   %r14
   180025fbd:	48 83 ec 20          	sub    $0x20,%rsp
   180025fc1:	83 0d 08 ad 02 00 01 	orl    $0x1,0x2ad08(%rip)        # 0x180050cd0
   180025fc8:	8b 05 06 ad 02 00    	mov    0x2ad06(%rip),%eax        # 0x180050cd4
   180025fce:	48 8b 3d 03 ad 02 00 	mov    0x2ad03(%rip),%rdi        # 0x180050cd8
   180025fd5:	33 db                	xor    %ebx,%ebx
   180025fd7:	4d 8b e0             	mov    %r8,%r12
   180025fda:	4c 8b ea             	mov    %rdx,%r13
   180025fdd:	44 8b f1             	mov    %ecx,%r14d
   180025fe0:	48 85 c0             	test   %rax,%rax
   180025fe3:	74 0f                	je     0x180025ff4
   180025fe5:	48 83 3c df 00       	cmpq   $0x0,(%rdi,%rbx,8)
   180025fea:	74 08                	je     0x180025ff4
   180025fec:	48 ff c3             	inc    %rbx
   180025fef:	48 3b d8             	cmp    %rax,%rbx
   180025ff2:	72 f1                	jb     0x180025fe5
   180025ff4:	48 3b d8             	cmp    %rax,%rbx
   180025ff7:	75 45                	jne    0x18002603e
   180025ff9:	48 8b e8             	mov    %rax,%rbp
   180025ffc:	48 c1 e5 03          	shl    $0x3,%rbp
   180026000:	48 8d 8d 00 10 00 00 	lea    0x1000(%rbp),%rcx
   180026007:	e8 b8 e9 ff ff       	call   0x1800249c4
   18002600c:	48 8b f0             	mov    %rax,%rsi
   18002600f:	48 85 c0             	test   %rax,%rax
   180026012:	74 50                	je     0x180026064
   180026014:	4c 8b c5             	mov    %rbp,%r8
   180026017:	48 8b d7             	mov    %rdi,%rdx
   18002601a:	48 8b c8             	mov    %rax,%rcx
   18002601d:	e8 06 96 ff ff       	call   0x18001f628
   180026022:	48 8b cf             	mov    %rdi,%rcx
   180026025:	e8 a2 d5 ff ff       	call   0x1800235cc
   18002602a:	81 05 a0 ac 02 00 00 	addl   $0x200,0x2aca0(%rip)        # 0x180050cd4
   180026031:	02 00 00
   180026034:	48 8b fe             	mov    %rsi,%rdi
   180026037:	48 89 35 9a ac 02 00 	mov    %rsi,0x2ac9a(%rip)        # 0x180050cd8
   18002603e:	b9 18 00 00 00       	mov    $0x18,%ecx
   180026043:	e8 7c e9 ff ff       	call   0x1800249c4
   180026048:	48 89 04 df          	mov    %rax,(%rdi,%rbx,8)
   18002604c:	48 85 c0             	test   %rax,%rax
   18002604f:	74 13                	je     0x180026064
   180026051:	4c 89 30             	mov    %r14,(%rax)
   180026054:	48 8b 04 df          	mov    (%rdi,%rbx,8),%rax
   180026058:	4c 89 68 08          	mov    %r13,0x8(%rax)
   18002605c:	48 8b 04 df          	mov    (%rdi,%rbx,8),%rax
   180026060:	4c 89 60 10          	mov    %r12,0x10(%rax)
   180026064:	83 25 65 ac 02 00 fe 	andl   $0xfffffffe,0x2ac65(%rip)        # 0x180050cd0
   18002606b:	48 8b 5c 24 40       	mov    0x40(%rsp),%rbx
   180026070:	48 8b 6c 24 48       	mov    0x48(%rsp),%rbp
   180026075:	48 8b 74 24 50       	mov    0x50(%rsp),%rsi
   18002607a:	48 8b 7c 24 58       	mov    0x58(%rsp),%rdi
   18002607f:	48 83 c4 20          	add    $0x20,%rsp
   180026083:	41 5e                	pop    %r14
   180026085:	41 5d                	pop    %r13
   180026087:	41 5c                	pop    %r12
   180026089:	c3                   	ret
   18002608a:	cc                   	int3
   18002608b:	cc                   	int3
   18002608c:	48 89 5c 24 08       	mov    %rbx,0x8(%rsp)
   180026091:	57                   	push   %rdi
   180026092:	48 83 ec 20          	sub    $0x20,%rsp
   180026096:	83 0d 33 ac 02 00 01 	orl    $0x1,0x2ac33(%rip)        # 0x180050cd0
   18002609d:	8b 15 31 ac 02 00    	mov    0x2ac31(%rip),%edx        # 0x180050cd4
   1800260a3:	33 db                	xor    %ebx,%ebx
   1800260a5:	48 85 d2             	test   %rdx,%rdx
   1800260a8:	74 2d                	je     0x1800260d7
   1800260aa:	48 8b 3d 27 ac 02 00 	mov    0x2ac27(%rip),%rdi        # 0x180050cd8
   1800260b1:	48 8b 04 df          	mov    (%rdi,%rbx,8),%rax
   1800260b5:	48 85 c0             	test   %rax,%rax
   1800260b8:	74 06                	je     0x1800260c0
   1800260ba:	48 39 48 10          	cmp    %rcx,0x10(%rax)
   1800260be:	74 0a                	je     0x1800260ca
   1800260c0:	48 ff c3             	inc    %rbx
   1800260c3:	48 3b da             	cmp    %rdx,%rbx
   1800260c6:	73 0f                	jae    0x1800260d7
   1800260c8:	eb e7                	jmp    0x1800260b1
   1800260ca:	48 8b c8             	mov    %rax,%rcx
   1800260cd:	e8 fa d4 ff ff       	call   0x1800235cc
   1800260d2:	48 83 24 df 00       	andq   $0x0,(%rdi,%rbx,8)
   1800260d7:	83 25 f2 ab 02 00 fe 	andl   $0xfffffffe,0x2abf2(%rip)        # 0x180050cd0
   1800260de:	48 8b 5c 24 30       	mov    0x30(%rsp),%rbx
   1800260e3:	48 83 c4 20          	add    $0x20,%rsp
   1800260e7:	5f                   	pop    %rdi
   1800260e8:	c3                   	ret
   1800260e9:	cc                   	int3
   1800260ea:	cc                   	int3
   1800260eb:	cc                   	int3
   1800260ec:	48 83 ec 28          	sub    $0x28,%rsp
   1800260f0:	48 8b 05 c9 a8 02 00 	mov    0x2a8c9(%rip),%rax        # 0x1800509c0
   1800260f7:	4c 8d 05 ea ab 02 00 	lea    0x2abea(%rip),%r8        # 0x180050ce8
   1800260fe:	48 8d 0d db 55 02 00 	lea    0x255db(%rip),%rcx        # 0x18004b6e0
   180026105:	33 d2                	xor    %edx,%edx
   180026107:	ff 90 40 01 00 00    	call   *0x140(%rax)
   18002610d:	48 b9 00 00 00 00 00 	movabs $0x8000000000000000,%rcx
   180026114:	00 00 80
   180026117:	48 85 c1             	test   %rax,%rcx
   18002611a:	0f b6 05 cf ab 02 00 	movzbl 0x2abcf(%rip),%eax        # 0x180050cf0
   180026121:	b9 01 00 00 00       	mov    $0x1,%ecx
   180026126:	0f 44 c1             	cmove  %ecx,%eax
   180026129:	88 05 c1 ab 02 00    	mov    %al,0x2abc1(%rip)        # 0x180050cf0
   18002612f:	48 83 c4 28          	add    $0x28,%rsp
   180026133:	c3                   	ret
   180026134:	4c 8b dc             	mov    %rsp,%r11
   180026137:	49 89 5b 08          	mov    %rbx,0x8(%r11)
   18002613b:	49 89 73 10          	mov    %rsi,0x10(%r11)
   18002613f:	57                   	push   %rdi
   180026140:	48 83 ec 40          	sub    $0x40,%rsp
   180026144:	49 83 63 f0 00       	andq   $0x0,-0x10(%r11)
   180026149:	48 8b 05 48 a9 02 00 	mov    0x2a948(%rip),%rax        # 0x180050a98
   180026150:	48 8b da             	mov    %rdx,%rbx
   180026153:	4c 8b 50 60          	mov    0x60(%rax),%r10
   180026157:	48 8d 05 aa b7 02 00 	lea    0x2b7aa(%rip),%rax        # 0x180051908
   18002615e:	48 8b f9             	mov    %rcx,%rdi
   180026161:	49 89 43 e8          	mov    %rax,-0x18(%r11)
   180026165:	48 8d 05 64 a2 02 00 	lea    0x2a264(%rip),%rax        # 0x1800503d0
   18002616c:	4c 8d 0d 4d a2 02 00 	lea    0x2a24d(%rip),%r9        # 0x1800503c0
   180026173:	49 89 43 e0          	mov    %rax,-0x20(%r11)
   180026177:	48 8d 05 5a b7 02 00 	lea    0x2b75a(%rip),%rax        # 0x1800518d8
   18002617e:	4c 8d 05 3b b7 02 00 	lea    0x2b73b(%rip),%r8        # 0x1800518c0
   180026185:	48 8d 15 24 a2 02 00 	lea    0x2a224(%rip),%rdx        # 0x1800503b0
   18002618c:	48 8b cb             	mov    %rbx,%rcx
   18002618f:	49 89 43 d8          	mov    %rax,-0x28(%r11)
   180026193:	41 ff 92 50 01 00 00 	call   *0x150(%r10)
   18002619a:	48 be 00 00 00 00 00 	movabs $0x8000000000000000,%rsi
   1800261a1:	00 00 80
   1800261a4:	48 85 c6             	test   %rax,%rsi
   1800261a7:	0f 85 93 00 00 00    	jne    0x180026240
   1800261ad:	48 8b 05 e4 a8 02 00 	mov    0x2a8e4(%rip),%rax        # 0x180050a98
   1800261b4:	4c 8b 47 28          	mov    0x28(%rdi),%r8
   1800261b8:	48 8d 15 41 54 02 00 	lea    0x25441(%rip),%rdx        # 0x18004b600
   1800261bf:	4c 8b 50 60          	mov    0x60(%rax),%r10
   1800261c3:	4c 8b cb             	mov    %rbx,%r9
   1800261c6:	48 8b cb             	mov    %rbx,%rcx
   1800261c9:	41 ff 92 20 01 00 00 	call   *0x120(%r10)
   1800261d0:	48 8b d8             	mov    %rax,%rbx
   1800261d3:	48 85 c6             	test   %rax,%rsi
   1800261d6:	75 68                	jne    0x180026240
   1800261d8:	48 8b 05 b9 a8 02 00 	mov    0x2a8b9(%rip),%rax        # 0x180050a98
   1800261df:	48 8b 0d ea b6 02 00 	mov    0x2b6ea(%rip),%rcx        # 0x1800518d0
   1800261e6:	48 8b 50 60          	mov    0x60(%rax),%rdx
   1800261ea:	ff 52 70             	call   *0x70(%rdx)
   1800261ed:	4c 8b 1d a4 a8 02 00 	mov    0x2a8a4(%rip),%r11        # 0x180050a98
   1800261f4:	48 8b 0d ed b6 02 00 	mov    0x2b6ed(%rip),%rcx        # 0x1800518e8
   1800261fb:	49 8b 43 60          	mov    0x60(%r11),%rax
   1800261ff:	ff 50 70             	call   *0x70(%rax)
   180026202:	4c 8b 1d 8f a8 02 00 	mov    0x2a88f(%rip),%r11        # 0x180050a98
   180026209:	48 8b 0d 08 b7 02 00 	mov    0x2b708(%rip),%rcx        # 0x180051918
   180026210:	49 8b 43 60          	mov    0x60(%r11),%rax
   180026214:	ff 50 70             	call   *0x70(%rax)
   180026217:	4c 8b 1d 7a a8 02 00 	mov    0x2a87a(%rip),%r11        # 0x180050a98
   18002621e:	48 8b 0d 73 b7 02 00 	mov    0x2b773(%rip),%rcx        # 0x180051998
   180026225:	49 8b 43 60          	mov    0x60(%r11),%rax
   180026229:	ff 50 70             	call   *0x70(%rax)
   18002622c:	48 8b 05 8d a7 02 00 	mov    0x2a78d(%rip),%rax        # 0x1800509c0
   180026233:	48 8b 0d 26 b7 02 00 	mov    0x2b726(%rip),%rcx        # 0x180051960
   18002623a:	ff 50 48             	call   *0x48(%rax)
   18002623d:	48 8b c3             	mov    %rbx,%rax
   180026240:	48 8b 5c 24 50       	mov    0x50(%rsp),%rbx
   180026245:	48 8b 74 24 58       	mov    0x58(%rsp),%rsi
   18002624a:	48 83 c4 40          	add    $0x40,%rsp
   18002624e:	5f                   	pop    %rdi
   18002624f:	c3                   	ret
   180026250:	48 83 ec 28          	sub    $0x28,%rsp
   180026254:	80 3d 77 ab 02 00 00 	cmpb   $0x0,0x2ab77(%rip)        # 0x180050dd2
   18002625b:	75 3a                	jne    0x180026297
   18002625d:	80 3d 8d aa 02 00 00 	cmpb   $0x0,0x2aa8d(%rip)        # 0x180050cf1
   180026264:	75 31                	jne    0x180026297
   180026266:	80 3d 85 aa 02 00 00 	cmpb   $0x0,0x2aa85(%rip)        # 0x180050cf2
   18002626d:	75 28                	jne    0x180026297
   18002626f:	80 3d 7d aa 02 00 00 	cmpb   $0x0,0x2aa7d(%rip)        # 0x180050cf3
   180026276:	75 1f                	jne    0x180026297
   180026278:	80 3d f9 b5 02 00 00 	cmpb   $0x0,0x2b5f9(%rip)        # 0x180051878
   18002627f:	75 16                	jne    0x180026297
   180026281:	48 8b ca             	mov    %rdx,%rcx
   180026284:	c6 05 66 aa 02 00 01 	movb   $0x1,0x2aa66(%rip)        # 0x180050cf1
   18002628b:	e8 f4 60 ff ff       	call   0x18001c384
   180026290:	c6 05 5a aa 02 00 00 	movb   $0x0,0x2aa5a(%rip)        # 0x180050cf1
   180026297:	48 83 c4 28          	add    $0x28,%rsp
   18002629b:	c3                   	ret
   18002629c:	48 89 5c 24 08       	mov    %rbx,0x8(%rsp)
   1800262a1:	48 89 6c 24 10       	mov    %rbp,0x10(%rsp)
   1800262a6:	48 89 74 24 18       	mov    %rsi,0x18(%rsp)
   1800262ab:	57                   	push   %rdi
   1800262ac:	41 54                	push   %r12
   1800262ae:	41 55                	push   %r13
   1800262b0:	41 56                	push   %r14
   1800262b2:	41 57                	push   %r15
   1800262b4:	48 83 ec 20          	sub    $0x20,%rsp
   1800262b8:	48 8b 1d e9 b6 02 00 	mov    0x2b6e9(%rip),%rbx        # 0x1800519a8
   1800262bf:	45 33 ff             	xor    %r15d,%r15d
   1800262c2:	48 8b f9             	mov    %rcx,%rdi
   1800262c5:	49 3b df             	cmp    %r15,%rbx
   1800262c8:	0f 84 eb 00 00 00    	je     0x1800263b9
   1800262ce:	45 8d 77 01          	lea    0x1(%r15),%r14d
   1800262d2:	0f b7 43 10          	movzwl 0x10(%rbx),%eax
   1800262d6:	41 8a ef             	mov    %r15b,%bpl
   1800262d9:	45 8a c7             	mov    %r15b,%r8b
   1800262dc:	45 8a cf             	mov    %r15b,%r9b
   1800262df:	45 8a d7             	mov    %r15b,%r10b
   1800262e2:	45 8a df             	mov    %r15b,%r11b
   1800262e5:	41 8a f7             	mov    %r15b,%sil
   1800262e8:	41 8a d7             	mov    %r15b,%dl
   1800262eb:	41 8a cf             	mov    %r15b,%cl
   1800262ee:	66 41 3b c7          	cmp    %r15w,%ax
   1800262f2:	74 05                	je     0x1800262f9
   1800262f4:	66 3b 07             	cmp    (%rdi),%ax
   1800262f7:	75 03                	jne    0x1800262fc
   1800262f9:	41 8a ee             	mov    %r14b,%bpl
   1800262fc:	0f b7 47 02          	movzwl 0x2(%rdi),%eax
   180026300:	45 0f b6 ef          	movzbl %r15b,%r13d
   180026304:	66 39 43 12          	cmp    %ax,0x12(%rbx)
   180026308:	8b 43 14             	mov    0x14(%rbx),%eax
   18002630b:	45 0f 44 ee          	cmove  %r14d,%r13d
   18002630f:	0f ba e0 1f          	bt     $0x1f,%eax
   180026313:	73 65                	jae    0x18002637a
   180026315:	a8 03                	test   $0x3,%al
   180026317:	74 06                	je     0x18002631f
   180026319:	f6 47 04 03          	testb  $0x3,0x4(%rdi)
   18002631d:	74 03                	je     0x180026322
   18002631f:	45 8a c6             	mov    %r14b,%r8b
   180026322:	a8 0c                	test   $0xc,%al
   180026324:	74 06                	je     0x18002632c
   180026326:	f6 47 04 0c          	testb  $0xc,0x4(%rdi)
   18002632a:	74 03                	je     0x18002632f
   18002632c:	45 8a ce             	mov    %r14b,%r9b
   18002632f:	a8 30                	test   $0x30,%al
   180026331:	74 06                	je     0x180026339
   180026333:	f6 47 04 30          	testb  $0x30,0x4(%rdi)
   180026337:	74 03                	je     0x18002633c
   180026339:	45 8a d6             	mov    %r14b,%r10b
   18002633c:	a8 c0                	test   $0xc0,%al
   18002633e:	74 06                	je     0x180026346
   180026340:	f6 47 04 c0          	testb  $0xc0,0x4(%rdi)
   180026344:	74 03                	je     0x180026349
   180026346:	45 8a de             	mov    %r14b,%r11b
   180026349:	0f ba e0 08          	bt     $0x8,%eax
   18002634d:	73 07                	jae    0x180026356
   18002634f:	0f ba 67 04 08       	btl    $0x8,0x4(%rdi)
   180026354:	73 03                	jae    0x180026359
   180026356:	41 8a f6             	mov    %r14b,%sil
   180026359:	0f ba e0 09          	bt     $0x9,%eax
   18002635d:	73 07                	jae    0x180026366
   18002635f:	0f ba 67 04 09       	btl    $0x9,0x4(%rdi)
   180026364:	73 03                	jae    0x180026369
   180026366:	41 8a d6             	mov    %r14b,%dl
   180026369:	40 22 d6             	and    %sil,%dl
   18002636c:	41 22 d3             	and    %r11b,%dl
   18002636f:	41 22 d2             	and    %r10b,%dl
   180026372:	41 22 d1             	and    %r9b,%dl
   180026375:	41 22 d0             	and    %r8b,%dl
   180026378:	eb 03                	jmp    0x18002637d
   18002637a:	41 8a d6             	mov    %r14b,%dl
   18002637d:	8a 43 18             	mov    0x18(%rbx),%al
   180026380:	84 c0                	test   %al,%al
   180026382:	79 05                	jns    0x180026389
   180026384:	3a 47 08             	cmp    0x8(%rdi),%al
   180026387:	75 03                	jne    0x18002638c
   180026389:	41 8a ce             	mov    %r14b,%cl
   18002638c:	22 ca                	and    %dl,%cl
   18002638e:	41 22 cd             	and    %r13b,%cl
   180026391:	40 84 cd             	test   %cl,%bpl
   180026394:	74 17                	je     0x1800263ad
   180026396:	48 8d 4b 10          	lea    0x10(%rbx),%rcx
   18002639a:	44 88 3d 50 a9 02 00 	mov    %r15b,0x2a950(%rip)        # 0x180050cf1
   1800263a1:	ff 53 20             	call   *0x20(%rbx)
   1800263a4:	66 44 89 3f          	mov    %r15w,(%rdi)
   1800263a8:	66 44 89 7f 02       	mov    %r15w,0x2(%rdi)
   1800263ad:	48 8b 1b             	mov    (%rbx),%rbx
   1800263b0:	49 3b df             	cmp    %r15,%rbx
   1800263b3:	0f 85 19 ff ff ff    	jne    0x1800262d2
   1800263b9:	48 8b 5c 24 50       	mov    0x50(%rsp),%rbx
   1800263be:	48 8b 6c 24 58       	mov    0x58(%rsp),%rbp
   1800263c3:	48 8b 74 24 60       	mov    0x60(%rsp),%rsi
   1800263c8:	33 c0                	xor    %eax,%eax
   1800263ca:	48 83 c4 20          	add    $0x20,%rsp
   1800263ce:	41 5f                	pop    %r15
   1800263d0:	41 5e                	pop    %r14
   1800263d2:	41 5d                	pop    %r13
   1800263d4:	41 5c                	pop    %r12
   1800263d6:	5f                   	pop    %rdi
   1800263d7:	c3                   	ret
   1800263d8:	48 89 5c 24 08       	mov    %rbx,0x8(%rsp)
   1800263dd:	48 89 74 24 10       	mov    %rsi,0x10(%rsp)
   1800263e2:	57                   	push   %rdi
   1800263e3:	48 83 ec 20          	sub    $0x20,%rsp
   1800263e7:	49 8b d9             	mov    %r9,%rbx
   1800263ea:	49 8b f8             	mov    %r8,%rdi
   1800263ed:	48 8b f2             	mov    %rdx,%rsi
   1800263f0:	48 85 d2             	test   %rdx,%rdx
   1800263f3:	0f 84 a4 00 00 00    	je     0x18002649d
   1800263f9:	4d 85 c0             	test   %r8,%r8
   1800263fc:	0f 84 9b 00 00 00    	je     0x18002649d
   180026402:	48 85 db             	test   %rbx,%rbx
   180026405:	0f 84 92 00 00 00    	je     0x18002649d
   18002640b:	48 8b 05 ae a5 02 00 	mov    0x2a5ae(%rip),%rax        # 0x1800509c0
   180026412:	ba 28 00 00 00       	mov    $0x28,%edx
   180026417:	4c 8d 05 5a b5 02 00 	lea    0x2b55a(%rip),%r8        # 0x180051978
   18002641e:	8d 4a de             	lea    -0x22(%rdx),%ecx
   180026421:	ff 50 40             	call   *0x40(%rax)
   180026424:	48 b9 00 00 00 00 00 	movabs $0x8000000000000000,%rcx
   18002642b:	00 00 80
   18002642e:	48 85 c1             	test   %rax,%rcx
   180026431:	75 74                	jne    0x1800264a7
   180026433:	8b 06                	mov    (%rsi),%eax
   180026435:	48 8b 0d 3c b5 02 00 	mov    0x2b53c(%rip),%rcx        # 0x180051978
   18002643c:	89 41 10             	mov    %eax,0x10(%rcx)
   18002643f:	8b 46 04             	mov    0x4(%rsi),%eax
   180026442:	89 41 14             	mov    %eax,0x14(%rcx)
   180026445:	8b 46 08             	mov    0x8(%rsi),%eax
   180026448:	89 41 18             	mov    %eax,0x18(%rcx)
   18002644b:	48 8b 05 26 b5 02 00 	mov    0x2b526(%rip),%rax        # 0x180051978
   180026452:	48 8d 0d 47 b5 02 00 	lea    0x2b547(%rip),%rcx        # 0x1800519a0
   180026459:	48 89 78 20          	mov    %rdi,0x20(%rax)
   18002645d:	48 8b 15 14 b5 02 00 	mov    0x2b514(%rip),%rdx        # 0x180051978
   180026464:	e8 df 20 fe ff       	call   0x180008548
   180026469:	4c 8b 1d 08 b5 02 00 	mov    0x2b508(%rip),%r11        # 0x180051978
   180026470:	4c 89 1b             	mov    %r11,(%rbx)
   180026473:	48 83 3d 25 b5 02 00 	cmpq   $0x1,0x2b525(%rip)        # 0x1800519a0
   18002647a:	01
   18002647b:	75 1c                	jne    0x180026499
   18002647d:	48 8b 05 3c a5 02 00 	mov    0x2a53c(%rip),%rax        # 0x1800509c0
   180026484:	48 8b 0d 0d b5 02 00 	mov    0x2b50d(%rip),%rcx        # 0x180051998
   18002648b:	ba 01 00 00 00       	mov    $0x1,%edx
   180026490:	41 b8 20 a1 07 00    	mov    $0x7a120,%r8d
   180026496:	ff 50 58             	call   *0x58(%rax)
   180026499:	33 c0                	xor    %eax,%eax
   18002649b:	eb 0a                	jmp    0x1800264a7
   18002649d:	48 b8 02 00 00 00 00 	movabs $0x8000000000000002,%rax
   1800264a4:	00 00 80
   1800264a7:	48 8b 5c 24 30       	mov    0x30(%rsp),%rbx
   1800264ac:	48 8b 74 24 38       	mov    0x38(%rsp),%rsi
   1800264b1:	48 83 c4 20          	add    $0x20,%rsp
   1800264b5:	5f                   	pop    %rdi
   1800264b6:	c3                   	ret
   1800264b7:	cc                   	int3
   1800264b8:	40 53                	rex push %rbx
   1800264ba:	48 83 ec 20          	sub    $0x20,%rsp
   1800264be:	48 85 d2             	test   %rdx,%rdx
   1800264c1:	74 16                	je     0x1800264d9
   1800264c3:	48 8b 1d de b4 02 00 	mov    0x2b4de(%rip),%rbx        # 0x1800519a8
   1800264ca:	eb 08                	jmp    0x1800264d4
   1800264cc:	48 3b da             	cmp    %rdx,%rbx
   1800264cf:	74 18                	je     0x1800264e9
   1800264d1:	48 8b 1b             	mov    (%rbx),%rbx
   1800264d4:	48 85 db             	test   %rbx,%rbx
   1800264d7:	75 f3                	jne    0x1800264cc
   1800264d9:	48 b8 02 00 00 00 00 	movabs $0x8000000000000002,%rax
   1800264e0:	00 00 80
   1800264e3:	48 83 c4 20          	add    $0x20,%rsp
   1800264e7:	5b                   	pop    %rbx
   1800264e8:	c3                   	ret
   1800264e9:	48 8d 0d b0 b4 02 00 	lea    0x2b4b0(%rip),%rcx        # 0x1800519a0
   1800264f0:	48 8b d3             	mov    %rbx,%rdx
   1800264f3:	e8 78 20 fe ff       	call   0x180008570
   1800264f8:	48 8b 05 c1 a4 02 00 	mov    0x2a4c1(%rip),%rax        # 0x1800509c0
   1800264ff:	48 8b cb             	mov    %rbx,%rcx
   180026502:	ff 50 48             	call   *0x48(%rax)
   180026505:	48 85 db             	test   %rbx,%rbx
   180026508:	74 cf                	je     0x1800264d9
   18002650a:	48 83 3d 8e b4 02 00 	cmpq   $0x0,0x2b48e(%rip)        # 0x1800519a0
   180026511:	00
   180026512:	75 16                	jne    0x18002652a
   180026514:	48 8b 05 a5 a4 02 00 	mov    0x2a4a5(%rip),%rax        # 0x1800509c0
   18002651b:	48 8b 0d 76 b4 02 00 	mov    0x2b476(%rip),%rcx        # 0x180051998
   180026522:	45 33 c0             	xor    %r8d,%r8d
   180026525:	33 d2                	xor    %edx,%edx
   180026527:	ff 50 58             	call   *0x58(%rax)
   18002652a:	33 c0                	xor    %eax,%eax
   18002652c:	eb b5                	jmp    0x1800264e3
   18002652e:	cc                   	int3
   18002652f:	cc                   	int3
   180026530:	80 f9 10             	cmp    $0x10,%cl
   180026533:	72 05                	jb     0x18002653a
   180026535:	80 f9 19             	cmp    $0x19,%cl
   180026538:	76 12                	jbe    0x18002654c
   18002653a:	80 f9 1e             	cmp    $0x1e,%cl
   18002653d:	72 05                	jb     0x180026544
   18002653f:	80 f9 26             	cmp    $0x26,%cl
   180026542:	76 08                	jbe    0x18002654c
   180026544:	80 e9 2c             	sub    $0x2c,%cl
   180026547:	80 f9 06             	cmp    $0x6,%cl
   18002654a:	77 03                	ja     0x18002654f
   18002654c:	b0 01                	mov    $0x1,%al
   18002654e:	c3                   	ret
   18002654f:	32 c0                	xor    %al,%al
   180026551:	c3                   	ret
   180026552:	cc                   	int3
   180026553:	cc                   	int3
   180026554:	48 8b c4             	mov    %rsp,%rax
   180026557:	48 89 58 08          	mov    %rbx,0x8(%rax)
   18002655b:	48 89 68 10          	mov    %rbp,0x10(%rax)
   18002655f:	48 89 70 18          	mov    %rsi,0x18(%rax)
   180026563:	48 89 78 20          	mov    %rdi,0x20(%rax)
   180026567:	41 54                	push   %r12
   180026569:	48 83 ec 20          	sub    $0x20,%rsp
   18002656d:	45 33 e4             	xor    %r12d,%r12d
   180026570:	48 8b d9             	mov    %rcx,%rbx
   180026573:	41 8a f0             	mov    %r8b,%sil
   180026576:	41 8d 6c 24 01       	lea    0x1(%r12),%ebp
   18002657b:	40 8a fa             	mov    %dl,%dil
   18002657e:	b9 96 04 00 00       	mov    $0x496,%ecx
   180026583:	66 44 89 63 78       	mov    %r12w,0x78(%rbx)
   180026588:	66 44 89 63 7a       	mov    %r12w,0x7a(%rbx)
   18002658d:	88 93 89 00 00 00    	mov    %dl,0x89(%rbx)
   180026593:	40 3a d5             	cmp    %bpl,%dl
   180026596:	75 16                	jne    0x1800265ae
   180026598:	8d 45 16             	lea    0x16(%rbp),%eax
   18002659b:	c7 83 84 00 00 00 59 	movl   $0x59,0x84(%rbx)
   1800265a2:	00 00 00
   1800265a5:	66 89 43 78          	mov    %ax,0x78(%rbx)
   1800265a9:	e9 5a 04 00 00       	jmp    0x180026a08
   1800265ae:	44 38 25 3b a7 02 00 	cmp    %r12b,0x2a73b(%rip)        # 0x180050cf0
   1800265b5:	74 0f                	je     0x1800265c6
   1800265b7:	8a 01                	mov    (%rcx),%al
   1800265b9:	a8 03                	test   $0x3,%al
   1800265bb:	74 09                	je     0x1800265c6
   1800265bd:	24 fc                	and    $0xfc,%al
   1800265bf:	88 01                	mov    %al,(%rcx)
   1800265c1:	e9 49 04 00 00       	jmp    0x180026a0f
   1800265c6:	40 0f b6 cf          	movzbl %dil,%ecx
   1800265ca:	b8 aa 00 00 00       	mov    $0xaa,%eax
   1800265cf:	3b c8                	cmp    %eax,%ecx
   1800265d1:	0f 8f 2a 02 00 00    	jg     0x180026801
   1800265d7:	0f 84 12 02 00 00    	je     0x1800267ef
   1800265dd:	83 f9 45             	cmp    $0x45,%ecx
   1800265e0:	0f 8f 5c 01 00 00    	jg     0x180026742
   1800265e6:	0f 84 30 01 00 00    	je     0x18002671c
   1800265ec:	83 e9 1d             	sub    $0x1d,%ecx
   1800265ef:	0f 84 0c 01 00 00    	je     0x180026701
   1800265f5:	83 e9 0d             	sub    $0xd,%ecx
   1800265f8:	0f 84 fa 00 00 00    	je     0x1800266f8
   1800265fe:	83 e9 0c             	sub    $0xc,%ecx
   180026601:	0f 84 e9 00 00 00    	je     0x1800266f0
   180026607:	2b cd                	sub    %ebp,%ecx
   180026609:	0f 84 ca 00 00 00    	je     0x1800266d9
   18002660f:	2b cd                	sub    %ebp,%ecx
   180026611:	0f 84 a7 00 00 00    	je     0x1800266be
   180026617:	83 e9 02             	sub    $0x2,%ecx
   18002661a:	75 28                	jne    0x180026644
   18002661c:	44 38 25 d3 a6 02 00 	cmp    %r12b,0x2a6d3(%rip)        # 0x180050cf6
   180026623:	75 0e                	jne    0x180026633
   180026625:	80 b3 80 00 00 00 04 	xorb   $0x4,0x80(%rbx)
   18002662c:	40 88 2d c3 a6 02 00 	mov    %bpl,0x2a6c3(%rip)        # 0x180050cf6
   180026633:	c7 83 84 00 00 00 1f 	movl   $0x1f,0x84(%rbx)
   18002663a:	00 00 00
   18002663d:	40 88 ab 8c 00 00 00 	mov    %bpl,0x8c(%rbx)
   180026644:	40 80 ff 3a          	cmp    $0x3a,%dil
   180026648:	0f 83 f0 02 00 00    	jae    0x18002693e
   18002664e:	8a 8b 8d 00 00 00    	mov    0x8d(%rbx),%cl
   180026654:	40 3a cd             	cmp    %bpl,%cl
   180026657:	75 0a                	jne    0x180026663
   180026659:	40 80 ff 37          	cmp    $0x37,%dil
   18002665d:	0f 84 db 02 00 00    	je     0x18002693e
   180026663:	8a 43 7c             	mov    0x7c(%rbx),%al
   180026666:	24 03                	and    $0x3,%al
   180026668:	40 3a cd             	cmp    %bpl,%cl
   18002666b:	40 8a cf             	mov    %dil,%cl
   18002666e:	44 0f b6 c0          	movzbl %al,%r8d
   180026672:	45 0f 44 c4          	cmove  %r12d,%r8d
   180026676:	e8 b5 fe ff ff       	call   0x180026530
   18002667b:	41 3a c4             	cmp    %r12b,%al
   18002667e:	74 1d                	je     0x18002669d
   180026680:	8a 93 80 00 00 00    	mov    0x80(%rbx),%dl
   180026686:	80 e2 04             	and    $0x4,%dl
   180026689:	45 3a c4             	cmp    %r12b,%r8b
   18002668c:	45 0f b6 c0          	movzbl %r8b,%r8d
   180026690:	0f 94 c0             	sete   %al
   180026693:	41 3a d4             	cmp    %r12b,%dl
   180026696:	0f b6 c8             	movzbl %al,%ecx
   180026699:	44 0f 45 c1          	cmovne %ecx,%r8d
   18002669d:	40 0f b6 cf          	movzbl %dil,%ecx
   1800266a1:	48 8d 15 58 99 fd ff 	lea    -0x266a8(%rip),%rdx        # 0x180000000
   1800266a8:	45 3a c4             	cmp    %r12b,%r8b
   1800266ab:	0f 84 63 02 00 00    	je     0x180026914
   1800266b1:	0f b6 84 11 80 dd 04 	movzbl 0x4dd80(%rcx,%rdx,1),%eax
   1800266b8:	00
   1800266b9:	e9 5e 02 00 00       	jmp    0x18002691c
   1800266be:	40 38 ab 8d 00 00 00 	cmp    %bpl,0x8d(%rbx)
   1800266c5:	75 09                	jne    0x1800266d0
   1800266c7:	83 4b 7c 10          	orl    $0x10,0x7c(%rbx)
   1800266cb:	e9 3f 03 00 00       	jmp    0x180026a0f
   1800266d0:	83 4b 7c 20          	orl    $0x20,0x7c(%rbx)
   1800266d4:	e9 36 03 00 00       	jmp    0x180026a0f
   1800266d9:	40 38 ab 8d 00 00 00 	cmp    %bpl,0x8d(%rbx)
   1800266e0:	0f 85 5e ff ff ff    	jne    0x180026644
   1800266e6:	0f ba 6b 7c 09       	btsl   $0x9,0x7c(%rbx)
   1800266eb:	e9 1f 03 00 00       	jmp    0x180026a0f
   1800266f0:	09 6b 7c             	or     %ebp,0x7c(%rbx)
   1800266f3:	e9 17 03 00 00       	jmp    0x180026a0f
   1800266f8:	83 4b 7c 02          	orl    $0x2,0x7c(%rbx)
   1800266fc:	e9 0e 03 00 00       	jmp    0x180026a0f
   180026701:	40 38 ab 8d 00 00 00 	cmp    %bpl,0x8d(%rbx)
   180026708:	75 09                	jne    0x180026713
   18002670a:	83 4b 7c 04          	orl    $0x4,0x7c(%rbx)
   18002670e:	e9 fc 02 00 00       	jmp    0x180026a0f
   180026713:	83 4b 7c 08          	orl    $0x8,0x7c(%rbx)
   180026717:	e9 f3 02 00 00       	jmp    0x180026a0f
   18002671c:	44 38 25 dd a5 02 00 	cmp    %r12b,0x2a5dd(%rip)        # 0x180050d00
   180026723:	75 0e                	jne    0x180026733
   180026725:	80 b3 80 00 00 00 02 	xorb   $0x2,0x80(%rbx)
   18002672c:	40 88 2d cd a5 02 00 	mov    %bpl,0x2a5cd(%rip)        # 0x180050d00
   180026733:	c7 83 84 00 00 00 55 	movl   $0x55,0x84(%rbx)
   18002673a:	00 00 00
   18002673d:	e9 fb fe ff ff       	jmp    0x18002663d
   180026742:	83 e9 46             	sub    $0x46,%ecx
   180026745:	74 75                	je     0x1800267bc
   180026747:	83 e9 15             	sub    $0x15,%ecx
   18002674a:	74 59                	je     0x1800267a5
   18002674c:	2b cd                	sub    %ebp,%ecx
   18002674e:	74 3f                	je     0x18002678f
   180026750:	2b cd                	sub    %ebp,%ecx
   180026752:	74 24                	je     0x180026778
   180026754:	83 e9 40             	sub    $0x40,%ecx
   180026757:	0f 85 e7 fe ff ff    	jne    0x180026644
   18002675d:	40 38 ab 8d 00 00 00 	cmp    %bpl,0x8d(%rbx)
   180026764:	75 09                	jne    0x18002676f
   180026766:	83 63 7c fb          	andl   $0xfffffffb,0x7c(%rbx)
   18002676a:	e9 a0 02 00 00       	jmp    0x180026a0f
   18002676f:	83 63 7c f7          	andl   $0xfffffff7,0x7c(%rbx)
   180026773:	e9 97 02 00 00       	jmp    0x180026a0f
   180026778:	40 38 ab 8d 00 00 00 	cmp    %bpl,0x8d(%rbx)
   18002677f:	0f 85 bf fe ff ff    	jne    0x180026644
   180026785:	0f ba 6b 7c 08       	btsl   $0x8,0x7c(%rbx)
   18002678a:	e9 80 02 00 00       	jmp    0x180026a0f
   18002678f:	40 38 ab 8d 00 00 00 	cmp    %bpl,0x8d(%rbx)
   180026796:	0f 85 a8 fe ff ff    	jne    0x180026644
   18002679c:	83 4b 7c 40          	orl    $0x40,0x7c(%rbx)
   1800267a0:	e9 6a 02 00 00       	jmp    0x180026a0f
   1800267a5:	40 38 ab 8d 00 00 00 	cmp    %bpl,0x8d(%rbx)
   1800267ac:	0f 85 92 fe ff ff    	jne    0x180026644
   1800267b2:	0f ba 6b 7c 07       	btsl   $0x7,0x7c(%rbx)
   1800267b7:	e9 53 02 00 00       	jmp    0x180026a0f
   1800267bc:	40 38 ab 8d 00 00 00 	cmp    %bpl,0x8d(%rbx)
   1800267c3:	0f 84 7b fe ff ff    	je     0x180026644
   1800267c9:	44 38 25 27 a5 02 00 	cmp    %r12b,0x2a527(%rip)        # 0x180050cf7
   1800267d0:	75 0e                	jne    0x1800267e0
   1800267d2:	40 30 ab 80 00 00 00 	xor    %bpl,0x80(%rbx)
   1800267d9:	40 88 2d 17 a5 02 00 	mov    %bpl,0x2a517(%rip)        # 0x180050cf7
   1800267e0:	c7 83 84 00 00 00 67 	movl   $0x67,0x84(%rbx)
   1800267e7:	00 00 00
   1800267ea:	e9 4e fe ff ff       	jmp    0x18002663d
   1800267ef:	41 3a f4             	cmp    %r12b,%sil
   1800267f2:	0f 85 17 02 00 00    	jne    0x180026a0f
   1800267f8:	83 63 7c fd          	andl   $0xfffffffd,0x7c(%rbx)
   1800267fc:	e9 0e 02 00 00       	jmp    0x180026a0f
   180026801:	b8 db 00 00 00       	mov    $0xdb,%eax
   180026806:	3b c8                	cmp    %eax,%ecx
   180026808:	0f 8f ab 00 00 00    	jg     0x1800268b9
   18002680e:	0f 84 8e 00 00 00    	je     0x1800268a2
   180026814:	81 e9 b6 00 00 00    	sub    $0xb6,%ecx
   18002681a:	74 7d                	je     0x180026899
   18002681c:	2b cd                	sub    %ebp,%ecx
   18002681e:	74 62                	je     0x180026882
   180026820:	2b cd                	sub    %ebp,%ecx
   180026822:	74 43                	je     0x180026867
   180026824:	83 e9 02             	sub    $0x2,%ecx
   180026827:	74 32                	je     0x18002685b
   180026829:	83 e9 0b             	sub    $0xb,%ecx
   18002682c:	74 21                	je     0x18002684f
   18002682e:	2b cd                	sub    %ebp,%ecx
   180026830:	0f 85 0e fe ff ff    	jne    0x180026644
   180026836:	40 38 ab 8d 00 00 00 	cmp    %bpl,0x8d(%rbx)
   18002683d:	0f 84 01 fe ff ff    	je     0x180026644
   180026843:	44 88 25 ad a4 02 00 	mov    %r12b,0x2a4ad(%rip)        # 0x180050cf7
   18002684a:	e9 f5 fd ff ff       	jmp    0x180026644
   18002684f:	44 88 25 aa a4 02 00 	mov    %r12b,0x2a4aa(%rip)        # 0x180050d00
   180026856:	e9 e9 fd ff ff       	jmp    0x180026644
   18002685b:	44 88 25 94 a4 02 00 	mov    %r12b,0x2a494(%rip)        # 0x180050cf6
   180026862:	e9 dd fd ff ff       	jmp    0x180026644
   180026867:	40 38 ab 8d 00 00 00 	cmp    %bpl,0x8d(%rbx)
   18002686e:	75 09                	jne    0x180026879
   180026870:	83 63 7c ef          	andl   $0xffffffef,0x7c(%rbx)
   180026874:	e9 96 01 00 00       	jmp    0x180026a0f
   180026879:	83 63 7c df          	andl   $0xffffffdf,0x7c(%rbx)
   18002687d:	e9 8d 01 00 00       	jmp    0x180026a0f
   180026882:	40 38 ab 8d 00 00 00 	cmp    %bpl,0x8d(%rbx)
   180026889:	0f 85 b5 fd ff ff    	jne    0x180026644
   18002688f:	0f ba 73 7c 09       	btrl   $0x9,0x7c(%rbx)
   180026894:	e9 76 01 00 00       	jmp    0x180026a0f
   180026899:	83 63 7c fe          	andl   $0xfffffffe,0x7c(%rbx)
   18002689d:	e9 6d 01 00 00       	jmp    0x180026a0f
   1800268a2:	40 38 ab 8d 00 00 00 	cmp    %bpl,0x8d(%rbx)
   1800268a9:	0f 85 95 fd ff ff    	jne    0x180026644
   1800268af:	0f ba 73 7c 07       	btrl   $0x7,0x7c(%rbx)
   1800268b4:	e9 56 01 00 00       	jmp    0x180026a0f
   1800268b9:	81 e9 dc 00 00 00    	sub    $0xdc,%ecx
   1800268bf:	74 3d                	je     0x1800268fe
   1800268c1:	2b cd                	sub    %ebp,%ecx
   1800268c3:	74 22                	je     0x1800268e7
   1800268c5:	83 e9 1d             	sub    $0x1d,%ecx
   1800268c8:	74 0d                	je     0x1800268d7
   1800268ca:	83 e9 04             	sub    $0x4,%ecx
   1800268cd:	74 08                	je     0x1800268d7
   1800268cf:	2b cd                	sub    %ebp,%ecx
   1800268d1:	0f 85 6d fd ff ff    	jne    0x180026644
   1800268d7:	40 8a d7             	mov    %dil,%dl
   1800268da:	48 8b cb             	mov    %rbx,%rcx
   1800268dd:	e8 2e 58 ff ff       	call   0x18001c110
   1800268e2:	e9 5d fd ff ff       	jmp    0x180026644
   1800268e7:	40 38 ab 8d 00 00 00 	cmp    %bpl,0x8d(%rbx)
   1800268ee:	0f 85 50 fd ff ff    	jne    0x180026644
   1800268f4:	0f ba 73 7c 08       	btrl   $0x8,0x7c(%rbx)
   1800268f9:	e9 11 01 00 00       	jmp    0x180026a0f
   1800268fe:	40 38 ab 8d 00 00 00 	cmp    %bpl,0x8d(%rbx)
   180026905:	0f 85 39 fd ff ff    	jne    0x180026644
   18002690b:	83 63 7c bf          	andl   $0xffffffbf,0x7c(%rbx)
   18002690f:	e9 fb 00 00 00       	jmp    0x180026a0f
   180026914:	0f b6 84 11 40 dd 04 	movzbl 0x4dd40(%rcx,%rdx,1),%eax
   18002691b:	00
   18002691c:	66 89 43 7a          	mov    %ax,0x7a(%rbx)
   180026920:	0f b6 84 11 c0 dd 04 	movzbl 0x4ddc0(%rcx,%rdx,1),%eax
   180026927:	00
   180026928:	89 83 84 00 00 00    	mov    %eax,0x84(%rbx)
   18002692e:	66 44 39 63 7a       	cmp    %r12w,0x7a(%rbx)
   180026933:	0f 84 d6 00 00 00    	je     0x180026a0f
   180026939:	e9 ca 00 00 00       	jmp    0x180026a08
   18002693e:	40 80 ff 56          	cmp    $0x56,%dil
   180026942:	75 35                	jne    0x180026979
   180026944:	8a 43 7c             	mov    0x7c(%rbx),%al
   180026947:	24 03                	and    $0x3,%al
   180026949:	40 38 ab 8d 00 00 00 	cmp    %bpl,0x8d(%rbx)
   180026950:	0f b6 c8             	movzbl %al,%ecx
   180026953:	b8 7c 00 00 00       	mov    $0x7c,%eax
   180026958:	41 0f 44 cc          	cmove  %r12d,%ecx
   18002695c:	41 3a cc             	cmp    %r12b,%cl
   18002695f:	75 05                	jne    0x180026966
   180026961:	b8 5c 00 00 00       	mov    $0x5c,%eax
   180026966:	66 89 43 7a          	mov    %ax,0x7a(%rbx)
   18002696a:	c7 83 84 00 00 00 0f 	movl   $0xf,0x84(%rbx)
   180026971:	00 00 00
   180026974:	e9 8f 00 00 00       	jmp    0x180026a08
   180026979:	40 38 ab 8d 00 00 00 	cmp    %bpl,0x8d(%rbx)
   180026980:	74 54                	je     0x1800269d6
   180026982:	8d 47 b9             	lea    -0x47(%rdi),%eax
   180026985:	3c 0c                	cmp    $0xc,%al
   180026987:	77 4d                	ja     0x1800269d6
   180026989:	41 3a f4             	cmp    %r12b,%sil
   18002698c:	75 48                	jne    0x1800269d6
   18002698e:	8a 83 80 00 00 00    	mov    0x80(%rbx),%al
   180026994:	24 02                	and    $0x2,%al
   180026996:	74 06                	je     0x18002699e
   180026998:	f6 43 7c 03          	testb  $0x3,0x7c(%rbx)
   18002699c:	74 17                	je     0x1800269b5
   18002699e:	41 3a c4             	cmp    %r12b,%al
   1800269a1:	75 06                	jne    0x1800269a9
   1800269a3:	f6 43 7c 03          	testb  $0x3,0x7c(%rbx)
   1800269a7:	75 0c                	jne    0x1800269b5
   1800269a9:	40 80 ff 4a          	cmp    $0x4a,%dil
   1800269ad:	74 06                	je     0x1800269b5
   1800269af:	40 80 ff 4e          	cmp    $0x4e,%dil
   1800269b3:	75 21                	jne    0x1800269d6
   1800269b5:	48 8d 15 44 96 fd ff 	lea    -0x269bc(%rip),%rdx        # 0x180000000
   1800269bc:	40 0f b6 cf          	movzbl %dil,%ecx
   1800269c0:	0f b6 84 11 01 de 04 	movzbl 0x4de01(%rcx,%rdx,1),%eax
   1800269c7:	00
   1800269c8:	66 89 43 7a          	mov    %ax,0x7a(%rbx)
   1800269cc:	0f b6 84 11 11 de 04 	movzbl 0x4de11(%rcx,%rdx,1),%eax
   1800269d3:	00
   1800269d4:	eb 2c                	jmp    0x180026a02
   1800269d6:	8a 05 24 74 02 00    	mov    0x27424(%rip),%al        # 0x18004de00
   1800269dc:	48 8d 0d 1d 74 02 00 	lea    0x2741d(%rip),%rcx        # 0x18004de00
   1800269e3:	eb 0b                	jmp    0x1800269f0
   1800269e5:	40 3a f8             	cmp    %al,%dil
   1800269e8:	74 0c                	je     0x1800269f6
   1800269ea:	48 83 c1 03          	add    $0x3,%rcx
   1800269ee:	8a 01                	mov    (%rcx),%al
   1800269f0:	3c ff                	cmp    $0xff,%al
   1800269f2:	75 f1                	jne    0x1800269e5
   1800269f4:	eb 19                	jmp    0x180026a0f
   1800269f6:	0f b6 41 01          	movzbl 0x1(%rcx),%eax
   1800269fa:	66 89 43 78          	mov    %ax,0x78(%rbx)
   1800269fe:	0f b6 41 02          	movzbl 0x2(%rcx),%eax
   180026a02:	89 83 84 00 00 00    	mov    %eax,0x84(%rbx)
   180026a08:	40 88 ab 8c 00 00 00 	mov    %bpl,0x8c(%rbx)
   180026a0f:	48 8b 5c 24 30       	mov    0x30(%rsp),%rbx
   180026a14:	48 8b 6c 24 38       	mov    0x38(%rsp),%rbp
   180026a19:	48 8b 74 24 40       	mov    0x40(%rsp),%rsi
   180026a1e:	48 8b 7c 24 48       	mov    0x48(%rsp),%rdi
   180026a23:	48 83 c4 20          	add    $0x20,%rsp
   180026a27:	41 5c                	pop    %r12
   180026a29:	c3                   	ret
   180026a2a:	cc                   	int3
   180026a2b:	cc                   	int3
   180026a2c:	48 89 5c 24 08       	mov    %rbx,0x8(%rsp)
   180026a31:	48 89 74 24 10       	mov    %rsi,0x10(%rsp)
   180026a36:	57                   	push   %rdi
   180026a37:	48 83 ec 20          	sub    $0x20,%rsp
   180026a3b:	48 8b b9 98 00 00 00 	mov    0x98(%rcx),%rdi
   180026a42:	48 8b d9             	mov    %rcx,%rbx
   180026a45:	48 8b ca             	mov    %rdx,%rcx
   180026a48:	48 8b f2             	mov    %rdx,%rsi
   180026a4b:	e8 4c f8 ff ff       	call   0x18002629c
   180026a50:	48 8b 8b 98 00 00 00 	mov    0x98(%rbx),%rcx
   180026a57:	48 8b 83 90 00 00 00 	mov    0x90(%rbx),%rax
   180026a5e:	48 3b c8             	cmp    %rax,%rcx
   180026a61:	74 25                	je     0x180026a88
   180026a63:	48 83 c7 14          	add    $0x14,%rdi
   180026a67:	48 3b bb a8 00 00 00 	cmp    0xa8(%rbx),%rdi
   180026a6e:	72 07                	jb     0x180026a77
   180026a70:	48 8b bb a0 00 00 00 	mov    0xa0(%rbx),%rdi
   180026a77:	48 3b c7             	cmp    %rdi,%rax
   180026a7a:	75 0c                	jne    0x180026a88
   180026a7c:	48 b8 04 00 00 00 00 	movabs $0x4,%rax
   180026a83:	00 00 00
   180026a86:	eb 36                	jmp    0x180026abe
   180026a88:	48 8b d6             	mov    %rsi,%rdx
   180026a8b:	41 b8 14 00 00 00    	mov    $0x14,%r8d
   180026a91:	e8 7a 30 fe ff       	call   0x180009b10
   180026a96:	48 83 83 98 00 00 00 	addq   $0x14,0x98(%rbx)
   180026a9d:	14
   180026a9e:	48 8b 83 98 00 00 00 	mov    0x98(%rbx),%rax
   180026aa5:	48 3b 83 a8 00 00 00 	cmp    0xa8(%rbx),%rax
   180026aac:	72 0e                	jb     0x180026abc
   180026aae:	48 8b 83 a0 00 00 00 	mov    0xa0(%rbx),%rax
   180026ab5:	48 89 83 98 00 00 00 	mov    %rax,0x98(%rbx)
   180026abc:	33 c0                	xor    %eax,%eax
   180026abe:	48 8b 5c 24 30       	mov    0x30(%rsp),%rbx
   180026ac3:	48 8b 74 24 38       	mov    0x38(%rsp),%rsi
   180026ac8:	48 83 c4 20          	add    $0x20,%rsp
   180026acc:	5f                   	pop    %rdi
   180026acd:	c3                   	ret
   180026ace:	cc                   	int3
   180026acf:	cc                   	int3
   180026ad0:	48 8b 81 98 00 00 00 	mov    0x98(%rcx),%rax
   180026ad7:	48 39 81 90 00 00 00 	cmp    %rax,0x90(%rcx)
   180026ade:	0f 95 c0             	setne  %al
   180026ae1:	c3                   	ret
   180026ae2:	cc                   	int3
   180026ae3:	cc                   	int3
   180026ae4:	40 53                	rex push %rbx
   180026ae6:	48 83 ec 20          	sub    $0x20,%rsp
   180026aea:	48 8b da             	mov    %rdx,%rbx
   180026aed:	48 8d 51 78          	lea    0x78(%rcx),%rdx
   180026af1:	45 33 c0             	xor    %r8d,%r8d
   180026af4:	66 44 39 02          	cmp    %r8w,(%rdx)
   180026af8:	75 39                	jne    0x180026b33
   180026afa:	66 44 39 41 7a       	cmp    %r8w,0x7a(%rcx)
   180026aff:	75 32                	jne    0x180026b33
   180026b01:	8b 41 7c             	mov    0x7c(%rcx),%eax
   180026b04:	0f ba f0 1f          	btr    $0x1f,%eax
   180026b08:	41 3b c0             	cmp    %r8d,%eax
   180026b0b:	74 26                	je     0x180026b33
   180026b0d:	48 8b 05 ac 9e 02 00 	mov    0x29eac(%rip),%rax        # 0x1800509c0
   180026b14:	41 b8 0c 00 00 00    	mov    $0xc,%r8d
   180026b1a:	48 8b cb             	mov    %rbx,%rcx
   180026b1d:	ff 90 60 01 00 00    	call   *0x160(%rax)
   180026b23:	80 4b 08 40          	orb    $0x40,0x8(%rbx)
   180026b27:	48 8b cb             	mov    %rbx,%rcx
   180026b2a:	e8 6d f7 ff ff       	call   0x18002629c
   180026b2f:	33 c0                	xor    %eax,%eax
   180026b31:	eb 0a                	jmp    0x180026b3d
   180026b33:	48 b8 06 00 00 00 00 	movabs $0x8000000000000006,%rax
   180026b3a:	00 00 80
   180026b3d:	48 83 c4 20          	add    $0x20,%rsp
   180026b41:	5b                   	pop    %rbx
   180026b42:	c3                   	ret
   180026b43:	cc                   	int3
   180026b44:	48 89 5c 24 08       	mov    %rbx,0x8(%rsp)
   180026b49:	57                   	push   %rdi
   180026b4a:	48 83 ec 20          	sub    $0x20,%rsp
   180026b4e:	80 b9 b2 00 00 00 01 	cmpb   $0x1,0xb2(%rcx)
   180026b55:	48 8b d9             	mov    %rcx,%rbx
   180026b58:	75 4f                	jne    0x180026ba9
   180026b5a:	e8 c5 51 ff ff       	call   0x18001bd24
   180026b5f:	bf e8 03 00 00       	mov    $0x3e8,%edi
   180026b64:	eb 0c                	jmp    0x180026b72
   180026b66:	a8 20                	test   $0x20,%al
   180026b68:	75 08                	jne    0x180026b72
   180026b6a:	33 c9                	xor    %ecx,%ecx
   180026b6c:	ff 15 be 63 02 00    	call   *0x263be(%rip)        # 0x18004cf30
   180026b72:	b9 64 00 00 00       	mov    $0x64,%ecx
   180026b77:	e8 44 31 fe ff       	call   0x180009cc0
   180026b7c:	a8 01                	test   $0x1,%al
   180026b7e:	75 e6                	jne    0x180026b66
   180026b80:	80 bb b2 00 00 00 00 	cmpb   $0x0,0xb2(%rbx)
   180026b87:	74 20                	je     0x180026ba9
   180026b89:	48 8b 05 08 9f 02 00 	mov    0x29f08(%rip),%rax        # 0x180050a98
   180026b90:	b9 e8 03 00 00       	mov    $0x3e8,%ecx
   180026b95:	48 8b 50 60          	mov    0x60(%rax),%rdx
   180026b99:	ff 92 f8 00 00 00    	call   *0xf8(%rdx)
   180026b9f:	83 c7 ff             	add    $0xffffffff,%edi
   180026ba2:	75 ce                	jne    0x180026b72
   180026ba4:	e8 cb 51 ff ff       	call   0x18001bd74
   180026ba9:	48 8b 5c 24 30       	mov    0x30(%rsp),%rbx
   180026bae:	48 83 c4 20          	add    $0x20,%rsp
   180026bb2:	5f                   	pop    %rdi
   180026bb3:	c3                   	ret
   180026bb4:	40 53                	rex push %rbx
   180026bb6:	48 83 ec 20          	sub    $0x20,%rsp
   180026bba:	48 8b 05 37 a1 02 00 	mov    0x2a137(%rip),%rax        # 0x180050cf8
   180026bc1:	48 8b d9             	mov    %rcx,%rbx
   180026bc4:	48 85 c0             	test   %rax,%rax
   180026bc7:	75 3f                	jne    0x180026c08
   180026bc9:	48 8b 05 f0 9d 02 00 	mov    0x29df0(%rip),%rax        # 0x1800509c0
   180026bd0:	4c 8d 05 21 a1 02 00 	lea    0x2a121(%rip),%r8        # 0x180050cf8
   180026bd7:	48 8d 0d 32 71 02 00 	lea    0x27132(%rip),%rcx        # 0x18004dd10
   180026bde:	33 d2                	xor    %edx,%edx
   180026be0:	ff 90 40 01 00 00    	call   *0x140(%rax)
   180026be6:	48 b9 00 00 00 00 00 	movabs $0x8000000000000000,%rcx
   180026bed:	00 00 80
   180026bf0:	48 85 c1             	test   %rax,%rcx
   180026bf3:	74 0c                	je     0x180026c01
   180026bf5:	48 b8 0e 00 00 00 00 	movabs $0x800000000000000e,%rax
   180026bfc:	00 00 80
   180026bff:	eb 0f                	jmp    0x180026c10
   180026c01:	48 8b 05 f0 a0 02 00 	mov    0x2a0f0(%rip),%rax        # 0x180050cf8
   180026c08:	48 8b d3             	mov    %rbx,%rdx
   180026c0b:	48 8b c8             	mov    %rax,%rcx
   180026c0e:	ff 10                	call   *(%rax)
   180026c10:	48 83 c4 20          	add    $0x20,%rsp
   180026c14:	5b                   	pop    %rbx
   180026c15:	c3                   	ret
   180026c16:	cc                   	int3
   180026c17:	cc                   	int3
   180026c18:	48 89 5c 24 08       	mov    %rbx,0x8(%rsp)
   180026c1d:	57                   	push   %rdi
   180026c1e:	48 83 ec 20          	sub    $0x20,%rsp
