# The sections that should be matched are
# 1800233ad - 1800233bb


moonbounce.bin:     file format pei-x86-64


Disassembly of section .text:

00000001800002c0 <.text>:
   18001d4c1:	49 85 c7             	test   %rax,%r15
   18001d4c4:	0f 85 bb 01 00 00    	jne    0x18001d685
   18001d4ca:	8d 43 04             	lea    0x4(%rbx),%eax
   18001d4cd:	48 8d 15 bc fa 02 00 	lea    0x2fabc(%rip),%rdx        # 0x18004cf90
   18001d4d4:	48 8d 4c 24 34       	lea    0x34(%rsp),%rcx
   18001d4d9:	66 89 44 24 30       	mov    %ax,0x30(%rsp)
   18001d4de:	8d 43 fc             	lea    -0x4(%rbx),%eax
   18001d4e1:	4c 8b c3             	mov    %rbx,%r8
   18001d4e4:	66 89 44 24 32       	mov    %ax,0x32(%rsp)
   18001d4e9:	e8 3a 21 00 00       	call   0x18001f628
   18001d4ee:	80 3d 65 37 03 00 00 	cmpb   $0x0,0x33765(%rip)        # 0x180050c5a
   18001d4f5:	74 0f                	je     0x18001d506
   18001d4f7:	48 b8 14 00 00 00 00 	movabs $0x8000000000000014,%rax
   18001d4fe:	00 00 80
   18001d501:	e9 7f 01 00 00       	jmp    0x18001d685
   18001d506:	c6 05 4d 37 03 00 01 	movb   $0x1,0x3374d(%rip)        # 0x180050c5a
   18001d50d:	48 bd 0e 00 00 00 00 	movabs $0x800000000000000e,%rbp
   18001d514:	00 00 80
   18001d517:	4c 8d 35 e2 fb 02 00 	lea    0x2fbe2(%rip),%r14        # 0x18004d100
   18001d51e:	eb 7a                	jmp    0x18001d59a
   18001d520:	48 8b 1d e9 fb 02 00 	mov    0x2fbe9(%rip),%rbx        # 0x18004d110
   18001d527:	48 8d 43 68          	lea    0x68(%rbx),%rax
   18001d52b:	48 83 38 00          	cmpq   $0x0,(%rax)
   18001d52f:	0f 85 88 00 00 00    	jne    0x18001d5bd
   18001d535:	4c 8b 43 28          	mov    0x28(%rbx),%r8
   18001d539:	48 8b 15 90 65 13 00 	mov    0x136590(%rip),%rdx        # 0x180153ad0
   18001d540:	48 89 44 24 28       	mov    %rax,0x28(%rsp)
   18001d545:	48 83 64 24 20 00    	andq   $0x0,0x20(%rsp)
   18001d54b:	45 33 c9             	xor    %r9d,%r9d
   18001d54e:	33 c9                	xor    %ecx,%ecx
   18001d550:	e8 97 51 00 00       	call   0x1800226ec
   18001d555:	48 8b f8             	mov    %rax,%rdi
   18001d558:	49 85 c7             	test   %rax,%r15
   18001d55b:	74 60                	je     0x18001d5bd
   18001d55d:	48 8d 0d cc fb 02 00 	lea    0x2fbcc(%rip),%rcx        # 0x18004d130
   18001d564:	e8 ab 75 00 00       	call   0x180024b14
   18001d569:	49 bb 1a 00 00 00 00 	movabs $0x800000000000001a,%r11
   18001d570:	00 00 80
   18001d573:	49 3b fb             	cmp    %r11,%rdi
   18001d576:	75 06                	jne    0x18001d57e
   18001d578:	c6 43 5f 01          	movb   $0x1,0x5f(%rbx)
   18001d57c:	eb 04                	jmp    0x18001d582
   18001d57e:	c6 43 60 01          	movb   $0x1,0x60(%rbx)
   18001d582:	48 8b cb             	mov    %rbx,%rcx
   18001d585:	c6 43 5e 00          	movb   $0x0,0x5e(%rbx)
   18001d589:	e8 d2 55 02 00       	call   0x180042b60
   18001d58e:	48 8d 0d 9b fb 02 00 	lea    0x2fb9b(%rip),%rcx        # 0x18004d130
   18001d595:	e8 82 75 00 00       	call   0x180024b1c
   18001d59a:	48 8d 0d 6f fb 02 00 	lea    0x2fb6f(%rip),%rcx        # 0x18004d110
   18001d5a1:	e8 b2 55 02 00       	call   0x180042b58
   18001d5a6:	84 c0                	test   %al,%al
   18001d5a8:	0f 84 72 ff ff ff    	je     0x18001d520
   18001d5ae:	48 8b 3d 4b fb 02 00 	mov    0x2fb4b(%rip),%rdi        # 0x18004d100
   18001d5b5:	40 32 f6             	xor    %sil,%sil
   18001d5b8:	e9 9e 00 00 00       	jmp    0x18001d65b
   18001d5bd:	48 8d 0d 6c fb 02 00 	lea    0x2fb6c(%rip),%rcx        # 0x18004d130
   18001d5c4:	e8 4b 75 00 00       	call   0x180024b14
   18001d5c9:	48 8b cb             	mov    %rbx,%rcx
   18001d5cc:	c6 43 5e 00          	movb   $0x0,0x5e(%rbx)
   18001d5d0:	c6 43 60 01          	movb   $0x1,0x60(%rbx)
   18001d5d4:	e8 87 55 02 00       	call   0x180042b60
   18001d5d9:	48 8d 0d 50 fb 02 00 	lea    0x2fb50(%rip),%rcx        # 0x18004d130
   18001d5e0:	e8 37 75 00 00       	call   0x180024b1c
   18001d5e5:	48 8d 53 68          	lea    0x68(%rbx),%rdx
   18001d5e9:	48 8d 4c 24 48       	lea    0x48(%rsp),%rcx
   18001d5ee:	41 b8 08 00 00 00    	mov    $0x8,%r8d
   18001d5f4:	e8 2f 20 00 00       	call   0x18001f628
   18001d5f9:	48 8b 53 68          	mov    0x68(%rbx),%rdx
   18001d5fd:	b9 02 00 04 03       	mov    $0x3040002,%ecx
   18001d602:	e8 1d 73 00 00       	call   0x180024924
   18001d607:	48 8b 4b 68          	mov    0x68(%rbx),%rcx
   18001d60b:	45 33 c0             	xor    %r8d,%r8d
   18001d60e:	33 d2                	xor    %edx,%edx
   18001d610:	e8 e7 51 00 00       	call   0x1800227fc
   18001d615:	48 8b 53 68          	mov    0x68(%rbx),%rdx
   18001d619:	b9 03 00 04 03       	mov    $0x3040003,%ecx
   18001d61e:	e8 01 73 00 00       	call   0x180024924
   18001d623:	33 ed                	xor    %ebp,%ebp
   18001d625:	e9 70 ff ff ff       	jmp    0x18001d59a
   18001d62a:	80 7f 71 00          	cmpb   $0x0,0x71(%rdi)
   18001d62e:	74 09                	je     0x18001d639
   18001d630:	48 8d 4f f8          	lea    -0x8(%rdi),%rcx
   18001d634:	e8 8b f5 ff ff       	call   0x18001cbc4
   18001d639:	80 7f 6c 00          	cmpb   $0x0,0x6c(%rdi)
   18001d63d:	74 19                	je     0x18001d658
   18001d63f:	48 8d 4f f8          	lea    -0x8(%rdi),%rcx
   18001d643:	e8 0c a4 01 00       	call   0x180037a54
   18001d648:	84 c0                	test   %al,%al
   18001d64a:	74 0c                	je     0x18001d658
   18001d64c:	48 8d 4f f8          	lea    -0x8(%rdi),%rcx
   18001d650:	e8 37 f7 ff ff       	call   0x18001cd8c
   18001d655:	40 b6 01             	mov    $0x1,%sil
   18001d658:	48 8b 3f             	mov    (%rdi),%rdi
   18001d65b:	49 3b fe             	cmp    %r14,%rdi
   18001d65e:	75 ca                	jne    0x18001d62a
   18001d660:	49 85 ef             	test   %rbp,%r15
   18001d663:	75 0d                	jne    0x18001d672
   18001d665:	48 8b 8c 24 20 01 00 	mov    0x120(%rsp),%rcx
   18001d66c:	00
   18001d66d:	e8 f2 1c 00 00       	call   0x18001f364
   18001d672:	40 84 f6             	test   %sil,%sil
   18001d675:	0f 85 1f ff ff ff    	jne    0x18001d59a
   18001d67b:	40 88 35 d8 35 03 00 	mov    %sil,0x335d8(%rip)        # 0x180050c5a
   18001d682:	48 8b c5             	mov    %rbp,%rax
   18001d685:	4c 8d 9c 24 00 01 00 	lea    0x100(%rsp),%r11
   18001d68c:	00
   18001d68d:	49 8b 5b 28          	mov    0x28(%r11),%rbx
   18001d691:	49 8b 6b 30          	mov    0x30(%r11),%rbp
   18001d695:	49 8b 73 38          	mov    0x38(%r11),%rsi
   18001d699:	49 8b e3             	mov    %r11,%rsp
   18001d69c:	41 5f                	pop    %r15
   18001d69e:	41 5e                	pop    %r14
   18001d6a0:	5f                   	pop    %rdi
   18001d6a1:	c3                   	ret
   18001d6a2:	cc                   	int3
   18001d6a3:	cc                   	int3
   18001d6a4:	48 8d 0d a5 fa 02 00 	lea    0x2faa5(%rip),%rcx        # 0x18004d150
   18001d6ab:	e9 64 74 00 00       	jmp    0x180024b14
   18001d6b0:	48 8d 0d 99 fa 02 00 	lea    0x2fa99(%rip),%rcx        # 0x18004d150
   18001d6b7:	e9 60 74 00 00       	jmp    0x180024b1c
   18001d6bc:	48 89 5c 24 08       	mov    %rbx,0x8(%rsp)
   18001d6c1:	57                   	push   %rdi
   18001d6c2:	48 83 ec 20          	sub    $0x20,%rsp
   18001d6c6:	48 8b f9             	mov    %rcx,%rdi
   18001d6c9:	b9 01 00 00 00       	mov    $0x1,%ecx
   18001d6ce:	41 8a d8             	mov    %r8b,%bl
   18001d6d1:	e8 7a 1f 00 00       	call   0x18001f650
   18001d6d6:	48 ff c8             	dec    %rax
   18001d6d9:	84 db                	test   %bl,%bl
   18001d6db:	74 03                	je     0x18001d6e0
   18001d6dd:	48 03 f8             	add    %rax,%rdi
   18001d6e0:	48 8b 5c 24 30       	mov    0x30(%rsp),%rbx
   18001d6e5:	48 f7 d0             	not    %rax
   18001d6e8:	48 23 c7             	and    %rdi,%rax
   18001d6eb:	48 83 c4 20          	add    $0x20,%rsp
   18001d6ef:	5f                   	pop    %rdi
   18001d6f0:	c3                   	ret
   18001d6f1:	cc                   	int3
   18001d6f2:	cc                   	int3
   18001d6f3:	cc                   	int3
   18001d6f4:	40 53                	rex push %rbx
   18001d6f6:	48 83 ec 20          	sub    $0x20,%rsp
   18001d6fa:	ba 0c 00 00 00       	mov    $0xc,%edx
   18001d6ff:	48 8b d9             	mov    %rcx,%rbx
   18001d702:	8d 4a f5             	lea    -0xb(%rdx),%ecx
   18001d705:	e8 46 1f 00 00       	call   0x18001f650
   18001d70a:	48 ff c8             	dec    %rax
   18001d70d:	48 f7 d0             	not    %rax
   18001d710:	48 23 c3             	and    %rbx,%rax
   18001d713:	48 83 c4 20          	add    $0x20,%rsp
   18001d717:	5b                   	pop    %rbx
   18001d718:	c3                   	ret
   18001d719:	cc                   	int3
   18001d71a:	cc                   	int3
   18001d71b:	cc                   	int3
   18001d71c:	48 89 5c 24 08       	mov    %rbx,0x8(%rsp)
   18001d721:	57                   	push   %rdi
   18001d722:	48 83 ec 20          	sub    $0x20,%rsp
   18001d726:	48 8b d9             	mov    %rcx,%rbx
   18001d729:	b9 50 00 00 00       	mov    $0x50,%ecx
   18001d72e:	48 8b fa             	mov    %rdx,%rdi
   18001d731:	e8 8e 72 00 00       	call   0x1800249c4
   18001d736:	48 89 03             	mov    %rax,(%rbx)
   18001d739:	48 85 c0             	test   %rax,%rax
   18001d73c:	75 0c                	jne    0x18001d74a
   18001d73e:	48 b8 09 00 00 00 00 	movabs $0x8000000000000009,%rax
   18001d745:	00 00 80
   18001d748:	eb 1e                	jmp    0x18001d768
   18001d74a:	b9 50 00 00 00       	mov    $0x50,%ecx
   18001d74f:	e8 70 72 00 00       	call   0x1800249c4
   18001d754:	48 89 07             	mov    %rax,(%rdi)
   18001d757:	48 85 c0             	test   %rax,%rax
   18001d75a:	75 0a                	jne    0x18001d766
   18001d75c:	48 8b 0b             	mov    (%rbx),%rcx
   18001d75f:	e8 68 5e 00 00       	call   0x1800235cc
   18001d764:	eb d8                	jmp    0x18001d73e
   18001d766:	33 c0                	xor    %eax,%eax
   18001d768:	48 8b 5c 24 30       	mov    0x30(%rsp),%rbx
   18001d76d:	48 83 c4 20          	add    $0x20,%rsp
   18001d771:	5f                   	pop    %rdi
   18001d772:	c3                   	ret
   18001d773:	cc                   	int3
   18001d774:	48 8b c4             	mov    %rsp,%rax
   18001d777:	48 89 58 08          	mov    %rbx,0x8(%rax)
   18001d77b:	48 89 68 10          	mov    %rbp,0x10(%rax)
   18001d77f:	48 89 70 18          	mov    %rsi,0x18(%rax)
   18001d783:	48 89 78 20          	mov    %rdi,0x20(%rax)
   18001d787:	41 54                	push   %r12
   18001d789:	48 83 ec 20          	sub    $0x20,%rsp
   18001d78d:	49 8b e9             	mov    %r9,%rbp
   18001d790:	49 8b f0             	mov    %r8,%rsi
   18001d793:	48 8b fa             	mov    %rdx,%rdi
   18001d796:	4c 8b e1             	mov    %rcx,%r12
   18001d799:	4c 3b 42 18          	cmp    0x18(%rdx),%r8
   18001d79d:	76 2b                	jbe    0x18001d7ca
   18001d79f:	48 8b 5c 24 58       	mov    0x58(%rsp),%rbx
   18001d7a4:	41 b8 50 00 00 00    	mov    $0x50,%r8d
   18001d7aa:	48 8b cb             	mov    %rbx,%rcx
   18001d7ad:	e8 76 1e 00 00       	call   0x18001f628
   18001d7b2:	48 8d 46 ff          	lea    -0x1(%rsi),%rax
   18001d7b6:	48 89 77 18          	mov    %rsi,0x18(%rdi)
   18001d7ba:	48 8d 53 08          	lea    0x8(%rbx),%rdx
   18001d7be:	49 8b cc             	mov    %r12,%rcx
   18001d7c1:	48 89 43 20          	mov    %rax,0x20(%rbx)
   18001d7c5:	e8 a6 53 02 00       	call   0x180042b70
   18001d7ca:	48 03 f5             	add    %rbp,%rsi
   18001d7cd:	48 8d 6e ff          	lea    -0x1(%rsi),%rbp
   18001d7d1:	48 3b 6f 20          	cmp    0x20(%rdi),%rbp
   18001d7d5:	73 2a                	jae    0x18001d801
   18001d7d7:	48 8b 5c 24 50       	mov    0x50(%rsp),%rbx
   18001d7dc:	41 b8 50 00 00 00    	mov    $0x50,%r8d
   18001d7e2:	48 8b d7             	mov    %rdi,%rdx
   18001d7e5:	48 8b cb             	mov    %rbx,%rcx
   18001d7e8:	e8 3b 1e 00 00       	call   0x18001f628
   18001d7ed:	48 89 73 18          	mov    %rsi,0x18(%rbx)
   18001d7f1:	48 8d 53 08          	lea    0x8(%rbx),%rdx
   18001d7f5:	49 8b cc             	mov    %r12,%rcx
   18001d7f8:	48 89 6f 20          	mov    %rbp,0x20(%rdi)
   18001d7fc:	e8 83 53 02 00       	call   0x180042b84
   18001d801:	48 8b 5c 24 30       	mov    0x30(%rsp),%rbx
   18001d806:	48 8b 6c 24 38       	mov    0x38(%rsp),%rbp
   18001d80b:	48 8b 74 24 40       	mov    0x40(%rsp),%rsi
   18001d810:	48 8b 7c 24 48       	mov    0x48(%rsp),%rdi
   18001d815:	33 c0                	xor    %eax,%eax
   18001d817:	48 83 c4 20          	add    $0x20,%rsp
   18001d81b:	41 5c                	pop    %r12
   18001d81d:	c3                   	ret
   18001d81e:	cc                   	int3
   18001d81f:	cc                   	int3
   18001d820:	40 53                	rex push %rbx
   18001d822:	48 83 ec 20          	sub    $0x20,%rsp
   18001d826:	84 d2                	test   %dl,%dl
   18001d828:	74 05                	je     0x18001d82f
   18001d82a:	4c 8b 09             	mov    (%rcx),%r9
   18001d82d:	eb 04                	jmp    0x18001d833
   18001d82f:	4c 8b 49 08          	mov    0x8(%rcx),%r9
   18001d833:	4d 3b c8             	cmp    %r8,%r9
   18001d836:	74 6e                	je     0x18001d8a6
   18001d838:	49 8d 59 f8          	lea    -0x8(%r9),%rbx
   18001d83c:	48 8b 43 28          	mov    0x28(%rbx),%rax
   18001d840:	48 39 41 20          	cmp    %rax,0x20(%rcx)
   18001d844:	74 0c                	je     0x18001d852
   18001d846:	48 b8 03 00 00 00 00 	movabs $0x8000000000000003,%rax
   18001d84d:	00 00 80
   18001d850:	eb 56                	jmp    0x18001d8a8
   18001d852:	48 8b 43 30          	mov    0x30(%rbx),%rax
   18001d856:	48 39 41 28          	cmp    %rax,0x28(%rcx)
   18001d85a:	75 ea                	jne    0x18001d846
   18001d85c:	8b 43 38             	mov    0x38(%rbx),%eax
   18001d85f:	39 41 30             	cmp    %eax,0x30(%rcx)
   18001d862:	75 e2                	jne    0x18001d846
   18001d864:	8b 43 3c             	mov    0x3c(%rbx),%eax
   18001d867:	39 41 34             	cmp    %eax,0x34(%rcx)
   18001d86a:	75 da                	jne    0x18001d846
   18001d86c:	48 8b 43 40          	mov    0x40(%rbx),%rax
   18001d870:	48 39 41 38          	cmp    %rax,0x38(%rcx)
   18001d874:	75 d0                	jne    0x18001d846
   18001d876:	48 8b 43 48          	mov    0x48(%rbx),%rax
   18001d87a:	48 39 41 40          	cmp    %rax,0x40(%rcx)
   18001d87e:	75 c6                	jne    0x18001d846
   18001d880:	84 d2                	test   %dl,%dl
   18001d882:	74 0a                	je     0x18001d88e
   18001d884:	48 8b 43 20          	mov    0x20(%rbx),%rax
   18001d888:	48 89 41 18          	mov    %rax,0x18(%rcx)
   18001d88c:	eb 08                	jmp    0x18001d896
   18001d88e:	48 8b 43 18          	mov    0x18(%rbx),%rax
   18001d892:	48 89 41 10          	mov    %rax,0x10(%rcx)
   18001d896:	49 8b c9             	mov    %r9,%rcx
   18001d899:	e8 c2 52 02 00       	call   0x180042b60
   18001d89e:	48 8b cb             	mov    %rbx,%rcx
   18001d8a1:	e8 26 5d 00 00       	call   0x1800235cc
   18001d8a6:	33 c0                	xor    %eax,%eax
   18001d8a8:	48 83 c4 20          	add    $0x20,%rsp
   18001d8ac:	5b                   	pop    %rbx
   18001d8ad:	c3                   	ret
   18001d8ae:	cc                   	int3
   18001d8af:	cc                   	int3
   18001d8b0:	48 89 5c 24 08       	mov    %rbx,0x8(%rsp)
   18001d8b5:	48 89 74 24 10       	mov    %rsi,0x10(%rsp)
   18001d8ba:	57                   	push   %rdi
   18001d8bb:	48 83 ec 20          	sub    $0x20,%rsp
   18001d8bf:	48 83 39 00          	cmpq   $0x0,(%rcx)
   18001d8c3:	49 8b f9             	mov    %r9,%rdi
   18001d8c6:	49 8b d8             	mov    %r8,%rbx
   18001d8c9:	48 8b f2             	mov    %rdx,%rsi
   18001d8cc:	75 05                	jne    0x18001d8d3
   18001d8ce:	e8 f9 5c 00 00       	call   0x1800235cc
   18001d8d3:	48 83 3e 00          	cmpq   $0x0,(%rsi)
   18001d8d7:	75 17                	jne    0x18001d8f0
   18001d8d9:	48 8b ce             	mov    %rsi,%rcx
   18001d8dc:	e8 eb 5c 00 00       	call   0x1800235cc
   18001d8e1:	eb 0d                	jmp    0x18001d8f0
   18001d8e3:	33 d2                	xor    %edx,%edx
   18001d8e5:	48 8b cb             	mov    %rbx,%rcx
   18001d8e8:	e8 33 ff ff ff       	call   0x18001d820
   18001d8ed:	48 8b 1b             	mov    (%rbx),%rbx
   18001d8f0:	4c 8b 44 24 50       	mov    0x50(%rsp),%r8
   18001d8f5:	48 3b 1f             	cmp    (%rdi),%rbx
   18001d8f8:	75 e9                	jne    0x18001d8e3
   18001d8fa:	b2 01                	mov    $0x1,%dl
   18001d8fc:	48 8b cf             	mov    %rdi,%rcx
   18001d8ff:	e8 1c ff ff ff       	call   0x18001d820
   18001d904:	48 8b 5c 24 30       	mov    0x30(%rsp),%rbx
   18001d909:	48 8b 74 24 38       	mov    0x38(%rsp),%rsi
   18001d90e:	33 c0                	xor    %eax,%eax
   18001d910:	48 83 c4 20          	add    $0x20,%rsp
   18001d914:	5f                   	pop    %rdi
   18001d915:	c3                   	ret
   18001d916:	cc                   	int3
   18001d917:	cc                   	int3
   18001d918:	49 83 20 00          	andq   $0x0,(%r8)
   18001d91c:	4c 8b 5c 24 28       	mov    0x28(%rsp),%r11
   18001d921:	49 83 21 00          	andq   $0x0,(%r9)
   18001d925:	49 8b 03             	mov    (%r11),%rax
   18001d928:	4c 8b d1             	mov    %rcx,%r10
   18001d92b:	49 3b c3             	cmp    %r11,%rax
   18001d92e:	74 31                	je     0x18001d961
   18001d930:	4c 3b 50 10          	cmp    0x10(%rax),%r10
   18001d934:	72 09                	jb     0x18001d93f
   18001d936:	4c 3b 50 18          	cmp    0x18(%rax),%r10
   18001d93a:	77 03                	ja     0x18001d93f
   18001d93c:	49 89 00             	mov    %rax,(%r8)
   18001d93f:	49 83 38 00          	cmpq   $0x0,(%r8)
   18001d943:	74 11                	je     0x18001d956
   18001d945:	49 8d 4c 12 ff       	lea    -0x1(%r10,%rdx,1),%rcx
   18001d94a:	48 3b 48 10          	cmp    0x10(%rax),%rcx
   18001d94e:	72 06                	jb     0x18001d956
   18001d950:	48 3b 48 18          	cmp    0x18(%rax),%rcx
   18001d954:	76 05                	jbe    0x18001d95b
   18001d956:	48 8b 00             	mov    (%rax),%rax
   18001d959:	eb d0                	jmp    0x18001d92b
   18001d95b:	49 89 01             	mov    %rax,(%r9)
   18001d95e:	33 c0                	xor    %eax,%eax
   18001d960:	c3                   	ret
   18001d961:	48 b8 0e 00 00 00 00 	movabs $0x800000000000000e,%rax
   18001d968:	00 00 80
   18001d96b:	c3                   	ret
   18001d96c:	b8 01 00 00 00       	mov    $0x1,%eax
   18001d971:	84 c8                	test   %cl,%al
   18001d973:	75 2e                	jne    0x18001d9a3
   18001d975:	b8 02 00 00 00       	mov    $0x2,%eax
   18001d97a:	84 c8                	test   %cl,%al
   18001d97c:	75 25                	jne    0x18001d9a3
   18001d97e:	b8 04 00 00 00       	mov    $0x4,%eax
   18001d983:	84 c8                	test   %cl,%al
   18001d985:	75 1c                	jne    0x18001d9a3
   18001d987:	b8 08 00 00 00       	mov    $0x8,%eax
   18001d98c:	84 c8                	test   %cl,%al
   18001d98e:	75 13                	jne    0x18001d9a3
   18001d990:	b8 ff ff ff ff       	mov    $0xffffffff,%eax
   18001d995:	ba 00 10 00 00       	mov    $0x1000,%edx
   18001d99a:	48 0f ba e1 0c       	bt     $0xc,%rcx
   18001d99f:	48 0f 42 c2          	cmovb  %rdx,%rax
   18001d9a3:	c3                   	ret
   18001d9a4:	4c 89 4c 24 20       	mov    %r9,0x20(%rsp)
   18001d9a9:	44 89 44 24 18       	mov    %r8d,0x18(%rsp)
   18001d9ae:	89 54 24 10          	mov    %edx,0x10(%rsp)
   18001d9b2:	53                   	push   %rbx
   18001d9b3:	55                   	push   %rbp
   18001d9b4:	56                   	push   %rsi
   18001d9b5:	57                   	push   %rdi
   18001d9b6:	41 54                	push   %r12
   18001d9b8:	41 55                	push   %r13
   18001d9ba:	41 57                	push   %r15
   18001d9bc:	48 83 ec 70          	sub    $0x70,%rsp
   18001d9c0:	33 ed                	xor    %ebp,%ebp
   18001d9c2:	49 8b f1             	mov    %r9,%rsi
   18001d9c5:	4c 8b e1             	mov    %rcx,%r12
   18001d9c8:	48 39 ac 24 d0 00 00 	cmp    %rbp,0xd0(%rsp)
   18001d9cf:	00
   18001d9d0:	75 0f                	jne    0x18001d9e1
   18001d9d2:	48 b8 02 00 00 00 00 	movabs $0x8000000000000002,%rax
   18001d9d9:	00 00 80
   18001d9dc:	e9 37 03 00 00       	jmp    0x18001dd18
   18001d9e1:	48 8b c1             	mov    %rcx,%rax
   18001d9e4:	4c 8b ed             	mov    %rbp,%r13
   18001d9e7:	48 89 6c 24 38       	mov    %rbp,0x38(%rsp)
   18001d9ec:	83 e0 20             	and    $0x20,%eax
   18001d9ef:	48 89 44 24 68       	mov    %rax,0x68(%rsp)
   18001d9f4:	74 18                	je     0x18001da0e
   18001d9f6:	48 8d 0d 53 f7 02 00 	lea    0x2f753(%rip),%rcx        # 0x18004d150
   18001d9fd:	e8 12 71 00 00       	call   0x180024b14
   18001da02:	4c 8d 2d 77 f7 02 00 	lea    0x2f777(%rip),%r13        # 0x18004d180
   18001da09:	4c 89 6c 24 38       	mov    %r13,0x38(%rsp)
   18001da0e:	49 8b fc             	mov    %r12,%rdi
   18001da11:	83 e7 40             	and    $0x40,%edi
   18001da14:	48 89 7c 24 60       	mov    %rdi,0x60(%rsp)
   18001da19:	74 18                	je     0x18001da33
   18001da1b:	48 8d 0d 46 f7 02 00 	lea    0x2f746(%rip),%rcx        # 0x18004d168
   18001da22:	e8 ed 70 00 00       	call   0x180024b14
   18001da27:	4c 8d 2d 62 f7 02 00 	lea    0x2f762(%rip),%r13        # 0x18004d190
   18001da2e:	4c 89 6c 24 38       	mov    %r13,0x38(%rsp)
   18001da33:	48 8b 94 24 d0 00 00 	mov    0xd0(%rsp),%rdx
   18001da3a:	00
   18001da3b:	4c 8d 4c 24 30       	lea    0x30(%rsp),%r9
   18001da40:	4c 8d 44 24 40       	lea    0x40(%rsp),%r8
   18001da45:	48 8b ce             	mov    %rsi,%rcx
   18001da48:	4c 89 6c 24 20       	mov    %r13,0x20(%rsp)
   18001da4d:	e8 c6 fe ff ff       	call   0x18001d918
   18001da52:	48 bb 00 00 00 00 00 	movabs $0x8000000000000000,%rbx
   18001da59:	00 00 80
   18001da5c:	48 85 c3             	test   %rax,%rbx
   18001da5f:	74 0f                	je     0x18001da70
   18001da61:	48 bb 03 00 00 00 00 	movabs $0x8000000000000003,%rbx
   18001da68:	00 00 80
   18001da6b:	e9 81 02 00 00       	jmp    0x18001dcf1
   18001da70:	4c 8b 7c 24 40       	mov    0x40(%rsp),%r15
   18001da75:	48 8b 54 24 30       	mov    0x30(%rsp),%rdx
   18001da7a:	49 8b cf             	mov    %r15,%rcx
   18001da7d:	4c 3b 3a             	cmp    (%rdx),%r15
   18001da80:	0f 84 9e 00 00 00    	je     0x18001db24
   18001da86:	41 b9 ff 0f 00 00    	mov    $0xfff,%r9d
   18001da8c:	49 8b c4             	mov    %r12,%rax
   18001da8f:	48 83 e8 20          	sub    $0x20,%rax
   18001da93:	74 78                	je     0x18001db0d
   18001da95:	48 83 e8 02          	sub    $0x2,%rax
   18001da99:	74 6a                	je     0x18001db05
   18001da9b:	48 83 e8 01          	sub    $0x1,%rax
   18001da9f:	74 5f                	je     0x18001db00
   18001daa1:	48 83 e8 01          	sub    $0x1,%rax
   18001daa5:	74 2b                	je     0x18001dad2
   18001daa7:	48 83 e8 1c          	sub    $0x1c,%rax
   18001daab:	74 20                	je     0x18001dacd
   18001daad:	48 83 e8 02          	sub    $0x2,%rax
   18001dab1:	74 52                	je     0x18001db05
   18001dab3:	48 83 f8 01          	cmp    $0x1,%rax
   18001dab7:	75 5f                	jne    0x18001db18
   18001dab9:	39 69 34             	cmp    %ebp,0x34(%rcx)
   18001dabc:	75 54                	jne    0x18001db12
   18001dabe:	48 bb 0e 00 00 00 00 	movabs $0x800000000000000e,%rbx
   18001dac5:	00 00 80
   18001dac8:	e9 24 02 00 00       	jmp    0x18001dcf1
   18001dacd:	39 69 34             	cmp    %ebp,0x34(%rcx)
   18001dad0:	eb 3e                	jmp    0x18001db10
   18001dad2:	4c 8b 84 24 e0 00 00 	mov    0xe0(%rsp),%r8
   18001dad9:	00
   18001dada:	4c 85 c3             	test   %r8,%rbx
   18001dadd:	74 0f                	je     0x18001daee
   18001dadf:	49 85 f1             	test   %rsi,%r9
   18001dae2:	75 63                	jne    0x18001db47
   18001dae4:	4c 85 8c 24 d0 00 00 	test   %r9,0xd0(%rsp)
   18001daeb:	00
   18001daec:	75 59                	jne    0x18001db47
   18001daee:	48 8b 41 20          	mov    0x20(%rcx),%rax
   18001daf2:	49 23 c0             	and    %r8,%rax
   18001daf5:	49 3b c0             	cmp    %r8,%rax
   18001daf8:	0f 85 63 ff ff ff    	jne    0x18001da61
   18001dafe:	eb 18                	jmp    0x18001db18
   18001db00:	39 69 30             	cmp    %ebp,0x30(%rcx)
   18001db03:	eb b7                	jmp    0x18001dabc
   18001db05:	48 39 69 38          	cmp    %rbp,0x38(%rcx)
   18001db09:	74 b3                	je     0x18001dabe
   18001db0b:	eb 0b                	jmp    0x18001db18
   18001db0d:	39 69 30             	cmp    %ebp,0x30(%rcx)
   18001db10:	75 44                	jne    0x18001db56
   18001db12:	48 39 69 38          	cmp    %rbp,0x38(%rcx)
   18001db16:	75 3e                	jne    0x18001db56
   18001db18:	48 8b 09             	mov    (%rcx),%rcx
   18001db1b:	48 3b 0a             	cmp    (%rdx),%rcx
   18001db1e:	0f 85 68 ff ff ff    	jne    0x18001da8c
   18001db24:	48 8d 54 24 50       	lea    0x50(%rsp),%rdx
   18001db29:	48 8d 4c 24 58       	lea    0x58(%rsp),%rcx
   18001db2e:	e8 e9 fb ff ff       	call   0x18001d71c
   18001db33:	48 85 c3             	test   %rax,%rbx
   18001db36:	74 2d                	je     0x18001db65
   18001db38:	48 bb 09 00 00 00 00 	movabs $0x8000000000000009,%rbx
   18001db3f:	00 00 80
   18001db42:	e9 aa 01 00 00       	jmp    0x18001dcf1
   18001db47:	48 bb 02 00 00 00 00 	movabs $0x8000000000000002,%rbx
   18001db4e:	00 00 80
   18001db51:	e9 9b 01 00 00       	jmp    0x18001dcf1
   18001db56:	48 bb 0f 00 00 00 00 	movabs $0x800000000000000f,%rbx
   18001db5d:	00 00 80
   18001db60:	e9 8c 01 00 00       	jmp    0x18001dcf1
   18001db65:	49 83 fc 24          	cmp    $0x24,%r12
   18001db69:	75 74                	jne    0x18001dbdf
   18001db6b:	48 8b 8c 24 e0 00 00 	mov    0xe0(%rsp),%rcx
   18001db72:	00
   18001db73:	e8 f4 fd ff ff       	call   0x18001d96c
   18001db78:	48 8b d8             	mov    %rax,%rbx
   18001db7b:	b8 ff ff ff ff       	mov    $0xffffffff,%eax
   18001db80:	48 3b d8             	cmp    %rax,%rbx
   18001db83:	74 5a                	je     0x18001dbdf
   18001db85:	4c 8b 0d cc e2 02 00 	mov    0x2e2cc(%rip),%r9        # 0x18004be58
   18001db8c:	4c 8d 44 24 48       	lea    0x48(%rsp),%r8
   18001db91:	48 8d 0d a8 25 03 00 	lea    0x325a8(%rip),%rcx        # 0x180050140
   18001db98:	33 d2                	xor    %edx,%edx
   18001db9a:	41 ff 91 40 01 00 00 	call   *0x140(%r9)
   18001dba1:	48 b9 00 00 00 00 00 	movabs $0x8000000000000000,%rcx
   18001dba8:	00 00 80
   18001dbab:	48 85 c1             	test   %rax,%rcx
   18001dbae:	75 a6                	jne    0x18001db56
   18001dbb0:	48 8b 44 24 48       	mov    0x48(%rsp),%rax
   18001dbb5:	4c 8b 84 24 d0 00 00 	mov    0xd0(%rsp),%r8
   18001dbbc:	00
   18001dbbd:	4c 8b cb             	mov    %rbx,%r9
   18001dbc0:	48 8b c8             	mov    %rax,%rcx
   18001dbc3:	48 8b d6             	mov    %rsi,%rdx
   18001dbc6:	ff 50 38             	call   *0x38(%rax)
   18001dbc9:	48 8b d8             	mov    %rax,%rbx
   18001dbcc:	48 b8 00 00 00 00 00 	movabs $0x8000000000000000,%rax
   18001dbd3:	00 00 80
   18001dbd6:	48 85 d8             	test   %rbx,%rax
   18001dbd9:	0f 85 12 01 00 00    	jne    0x18001dcf1
   18001dbdf:	4c 8b 4c 24 30       	mov    0x30(%rsp),%r9
   18001dbe4:	48 8b 74 24 50       	mov    0x50(%rsp),%rsi
   18001dbe9:	48 8b 6c 24 58       	mov    0x58(%rsp),%rbp
   18001dbee:	49 8b ff             	mov    %r15,%rdi
   18001dbf1:	4d 3b 39             	cmp    (%r9),%r15
   18001dbf4:	0f 84 da 00 00 00    	je     0x18001dcd4
   18001dbfa:	4c 8b ac 24 e0 00 00 	mov    0xe0(%rsp),%r13
   18001dc01:	00
   18001dc02:	4d 8b f9             	mov    %r9,%r15
   18001dc05:	4c 8b 8c 24 d0 00 00 	mov    0xd0(%rsp),%r9
   18001dc0c:	00
   18001dc0d:	4c 8b 84 24 c8 00 00 	mov    0xc8(%rsp),%r8
   18001dc14:	00
   18001dc15:	48 8d 57 f8          	lea    -0x8(%rdi),%rdx
   18001dc19:	48 8b cf             	mov    %rdi,%rcx
   18001dc1c:	48 89 74 24 28       	mov    %rsi,0x28(%rsp)
   18001dc21:	48 89 6c 24 20       	mov    %rbp,0x20(%rsp)
   18001dc26:	e8 49 fb ff ff       	call   0x18001d774
   18001dc2b:	4d 8b dc             	mov    %r12,%r11
   18001dc2e:	49 83 eb 20          	sub    $0x20,%r11
   18001dc32:	74 53                	je     0x18001dc87
   18001dc34:	49 83 eb 02          	sub    $0x2,%r11
   18001dc38:	74 41                	je     0x18001dc7b
   18001dc3a:	49 83 eb 01          	sub    $0x1,%r11
   18001dc3e:	74 30                	je     0x18001dc70
   18001dc40:	49 83 eb 01          	sub    $0x1,%r11
   18001dc44:	74 24                	je     0x18001dc6a
   18001dc46:	49 83 eb 1c          	sub    $0x1c,%r11
   18001dc4a:	74 12                	je     0x18001dc5e
   18001dc4c:	49 83 eb 02          	sub    $0x2,%r11
   18001dc50:	74 29                	je     0x18001dc7b
   18001dc52:	49 83 fb 01          	cmp    $0x1,%r11
   18001dc56:	75 61                	jne    0x18001dcb9
   18001dc58:	83 67 34 00          	andl   $0x0,0x34(%rdi)
   18001dc5c:	eb 5b                	jmp    0x18001dcb9
   18001dc5e:	8b 84 24 c0 00 00 00 	mov    0xc0(%rsp),%eax
   18001dc65:	89 47 34             	mov    %eax,0x34(%rdi)
   18001dc68:	eb 4f                	jmp    0x18001dcb9
   18001dc6a:	4c 89 6f 28          	mov    %r13,0x28(%rdi)
   18001dc6e:	eb 49                	jmp    0x18001dcb9
   18001dc70:	83 67 30 00          	andl   $0x0,0x30(%rdi)
   18001dc74:	48 83 67 20 00       	andq   $0x0,0x20(%rdi)
   18001dc79:	eb 3e                	jmp    0x18001dcb9
   18001dc7b:	48 83 67 38 00       	andq   $0x0,0x38(%rdi)
   18001dc80:	48 83 67 40 00       	andq   $0x0,0x40(%rdi)
   18001dc85:	eb 32                	jmp    0x18001dcb9
   18001dc87:	8b 84 24 b8 00 00 00 	mov    0xb8(%rsp),%eax
   18001dc8e:	48 b9 00 00 00 00 00 	movabs $0xc000000000000000,%rcx
   18001dc95:	00 00 c0
   18001dc98:	89 47 30             	mov    %eax,0x30(%rdi)
   18001dc9b:	83 f8 03             	cmp    $0x3,%eax
   18001dc9e:	48 8b 84 24 d8 00 00 	mov    0xd8(%rsp),%rax
   18001dca5:	00
   18001dca6:	74 0a                	je     0x18001dcb2
   18001dca8:	48 b9 00 00 00 00 00 	movabs $0x8000000000000000,%rcx
   18001dcaf:	00 00 80
   18001dcb2:	48 0b c1             	or     %rcx,%rax
   18001dcb5:	48 89 47 20          	mov    %rax,0x20(%rdi)
   18001dcb9:	48 8b 3f             	mov    (%rdi),%rdi
   18001dcbc:	49 3b 3f             	cmp    (%r15),%rdi
   18001dcbf:	0f 85 40 ff ff ff    	jne    0x18001dc05
   18001dcc5:	4c 8b 6c 24 38       	mov    0x38(%rsp),%r13
   18001dcca:	4c 8b 7c 24 40       	mov    0x40(%rsp),%r15
   18001dccf:	4c 8b 4c 24 30       	mov    0x30(%rsp),%r9
   18001dcd4:	4d 8b c7             	mov    %r15,%r8
   18001dcd7:	48 8b d6             	mov    %rsi,%rdx
   18001dcda:	48 8b cd             	mov    %rbp,%rcx
   18001dcdd:	4c 89 6c 24 20       	mov    %r13,0x20(%rsp)
   18001dce2:	e8 c9 fb ff ff       	call   0x18001d8b0
   18002323b:	48 c1 e3 07          	shl    $0x7,%rbx
   18002323f:	4c 8b f0             	mov    %rax,%r14
   180023242:	4c 8d 3c 0b          	lea    (%rbx,%rcx,1),%r15
   180023246:	eb 20                	jmp    0x180023268
   180023248:	4a 8d 54 31 08       	lea    0x8(%rcx,%r14,1),%rdx
   18002324d:	42 c7 04 31 70 66 72 	movl   $0x30726670,(%rcx,%r14,1)
   180023254:	30
   180023255:	42 89 74 31 04       	mov    %esi,0x4(%rcx,%r14,1)
   18002325a:	48 8b cd             	mov    %rbp,%rcx
   18002325d:	e8 22 f9 01 00       	call   0x180042b84
   180023262:	49 8b cf             	mov    %r15,%rcx
   180023265:	4c 03 fb             	add    %rbx,%r15
   180023268:	4d 3b fd             	cmp    %r13,%r15
   18002326b:	76 db                	jbe    0x180023248
   18002326d:	48 ff ce             	dec    %rsi
   180023270:	48 83 c3 80          	add    $0xffffffffffffff80,%rbx
   180023274:	48 83 ed 10          	sub    $0x10,%rbp
   180023278:	49 3b cd             	cmp    %r13,%rcx
   18002327b:	72 c5                	jb     0x180023242
   18002327d:	48 8b b4 24 98 00 00 	mov    0x98(%rsp),%rsi
   180023284:	00
   180023285:	48 8b 6c 24 20       	mov    0x20(%rsp),%rbp
   18002328a:	44 8b bc 24 80 00 00 	mov    0x80(%rsp),%r15d
   180023291:	00
   180023292:	48 03 f6             	add    %rsi,%rsi
   180023295:	49 8b 5c f4 18       	mov    0x18(%r12,%rsi,8),%rbx
   18002329a:	48 83 eb 08          	sub    $0x8,%rbx
   18002329e:	48 8d 4b 08          	lea    0x8(%rbx),%rcx
   1800232a2:	e8 b9 f8 01 00       	call   0x180042b60
   1800232a7:	48 3b df             	cmp    %rdi,%rbx
   1800232aa:	74 24                	je     0x1800232d0
   1800232ac:	c7 03 70 68 64 30    	movl   $0x30646870,(%rbx)
   1800232b2:	89 6b 04             	mov    %ebp,0x4(%rbx)
   1800232b5:	44 89 7b 08          	mov    %r15d,0x8(%rbx)
   1800232b9:	8b c5                	mov    %ebp,%eax
   1800232bb:	48 8d 7b 18          	lea    0x18(%rbx),%rdi
   1800232bf:	c7 44 18 f8 70 74 61 	movl   $0x6c617470,-0x8(%rax,%rbx,1)
   1800232c6:	6c
   1800232c7:	89 6c 18 fc          	mov    %ebp,-0x4(%rax,%rbx,1)
   1800232cb:	49 01 6c 24 08       	add    %rbp,0x8(%r12)
   1800232d0:	48 8b c7             	mov    %rdi,%rax
   1800232d3:	48 83 c4 38          	add    $0x38,%rsp
   1800232d7:	41 5f                	pop    %r15
   1800232d9:	41 5e                	pop    %r14
   1800232db:	41 5d                	pop    %r13
   1800232dd:	41 5c                	pop    %r12
   1800232df:	5f                   	pop    %rdi
   1800232e0:	5e                   	pop    %rsi
   1800232e1:	5d                   	pop    %rbp
   1800232e2:	5b                   	pop    %rbx
   1800232e3:	c3                   	ret
   1800232e4:	48 89 5c 24 08       	mov    %rbx,0x8(%rsp)
   1800232e9:	48 89 6c 24 10       	mov    %rbp,0x10(%rsp)
   1800232ee:	48 89 74 24 18       	mov    %rsi,0x18(%rsp)
   1800232f3:	57                   	push   %rdi
   1800232f4:	48 83 ec 20          	sub    $0x20,%rsp
   1800232f8:	48 63 d9             	movslq %ecx,%rbx
   1800232fb:	85 c9                	test   %ecx,%ecx
   1800232fd:	78 1b                	js     0x18002331a
   1800232ff:	83 fb 0e             	cmp    $0xe,%ebx
   180023302:	7d 4d                	jge    0x180023351
   180023304:	48 8b c3             	mov    %rbx,%rax
   180023307:	48 8d 0d 52 e8 02 00 	lea    0x2e852(%rip),%rcx        # 0x180051b60
   18002330e:	48 69 c0 28 02 00 00 	imul   $0x228,%rax,%rax
   180023315:	48 03 c1             	add    %rcx,%rax
   180023318:	eb 7f                	jmp    0x180023399
   18002331a:	48 8b 05 6f 06 03 00 	mov    0x3066f(%rip),%rax        # 0x180053990
   180023321:	48 8d 2d 68 06 03 00 	lea    0x30668(%rip),%rbp        # 0x180053990
   180023328:	eb 0b                	jmp    0x180023335
   18002332a:	39 98 f8 fd ff ff    	cmp    %ebx,-0x208(%rax)
   180023330:	74 23                	je     0x180023355
   180023332:	48 8b 00             	mov    (%rax),%rax
   180023335:	48 3b c5             	cmp    %rbp,%rax
   180023338:	75 f0                	jne    0x18002332a
   18002333a:	ba 28 02 00 00       	mov    $0x228,%edx
   18002333f:	b9 04 00 00 00       	mov    $0x4,%ecx
   180023344:	e8 13 fe ff ff       	call   0x18002315c
   180023349:	48 8b f8             	mov    %rax,%rdi
   18002334c:	48 85 c0             	test   %rax,%rax
   18002334f:	75 0c                	jne    0x18002335d
   180023351:	33 c0                	xor    %eax,%eax
   180023353:	eb 44                	jmp    0x180023399
   180023355:	48 05 e8 fd ff ff    	add    $0xfffffffffffffde8,%rax
   18002335b:	eb 3c                	jmp    0x180023399
   18002335d:	48 83 60 08 00       	andq   $0x0,0x8(%rax)
   180023362:	89 58 10             	mov    %ebx,0x10(%rax)
   180023365:	48 c7 00 70 6c 73 74 	movq   $0x74736c70,(%rax)
   18002336c:	48 8d 58 18          	lea    0x18(%rax),%rbx
   180023370:	be 20 00 00 00       	mov    $0x20,%esi
   180023375:	48 8b cb             	mov    %rbx,%rcx
   180023378:	e8 d3 f7 01 00       	call   0x180042b50
   18002337d:	48 83 c3 10          	add    $0x10,%rbx
   180023381:	48 83 ee 01          	sub    $0x1,%rsi
   180023385:	75 ee                	jne    0x180023375
   180023387:	48 8d 97 18 02 00 00 	lea    0x218(%rdi),%rdx
   18002338e:	48 8b cd             	mov    %rbp,%rcx
   180023391:	e8 ee f7 01 00       	call   0x180042b84
   180023396:	48 8b c7             	mov    %rdi,%rax
   180023399:	48 8b 5c 24 30       	mov    0x30(%rsp),%rbx
   18002339e:	48 8b 6c 24 38       	mov    0x38(%rsp),%rbp
   1800233a3:	48 8b 74 24 40       	mov    0x40(%rsp),%rsi
   1800233a8:	48 83 c4 20          	add    $0x20,%rsp
   1800233ac:	5f                   	pop    %rdi
   1800233ad:	c3                   	ret
   1800233ae:	cc                   	int3
   1800233af:	cc                   	int3
   1800233b0:	e8 4b 43 13 00       	call   0x180157700
   1800233b5:	48 89 74 24 10       	mov    %rsi,0x10(%rsp)
   1800233ba:	57                   	push   %rdi
   1800233bb:	48 83 ec 20          	sub    $0x20,%rsp
   1800233bf:	83 f9 0e             	cmp    $0xe,%ecx
   1800233c2:	49 8b f8             	mov    %r8,%rdi
   1800233c5:	48 8b f2             	mov    %rdx,%rsi
   1800233c8:	8b d9                	mov    %ecx,%ebx
   1800233ca:	7c 08                	jl     0x1800233d4
   1800233cc:	81 f9 ff ff ff 7f    	cmp    $0x7fffffff,%ecx
   1800233d2:	7e 05                	jle    0x1800233d9
   1800233d4:	83 f9 07             	cmp    $0x7,%ecx
   1800233d7:	75 0c                	jne    0x1800233e5
   1800233d9:	48 b8 02 00 00 00 00 	movabs $0x8000000000000002,%rax
   1800233e0:	00 00 80
   1800233e3:	eb 65                	jmp    0x18002344a
   1800233e5:	4d 85 c0             	test   %r8,%r8
   1800233e8:	74 ef                	je     0x1800233d9
   1800233ea:	49 83 20 00          	andq   $0x0,(%r8)
   1800233ee:	b8 df ff ff ff       	mov    $0xffffffdf,%eax
   1800233f3:	48 3b d0             	cmp    %rax,%rdx
   1800233f6:	76 0c                	jbe    0x180023404
   1800233f8:	48 b8 09 00 00 00 00 	movabs $0x8000000000000009,%rax
   1800233ff:	00 00 80
   180023402:	eb 46                	jmp    0x18002344a
   180023404:	48 8d 0d b5 b2 02 00 	lea    0x2b2b5(%rip),%rcx        # 0x18004e6c0
   18002340b:	e8 d0 16 00 00       	call   0x180024ae0
   180023410:	48 b9 00 00 00 00 00 	movabs $0x8000000000000000,%rcx
   180023417:	00 00 80
   18002341a:	48 85 c1             	test   %rax,%rcx
   18002341d:	75 d9                	jne    0x1800233f8
   18002341f:	48 8b d6             	mov    %rsi,%rdx
   180023422:	8b cb                	mov    %ebx,%ecx
   180023424:	e8 33 fd ff ff       	call   0x18002315c
   180023429:	48 89 07             	mov    %rax,(%rdi)
   18002342c:	e8 df 01 00 00       	call   0x180023610
   180023431:	4c 8b 1f             	mov    (%rdi),%r11
   180023434:	49 f7 db             	neg    %r11
   180023437:	48 b9 09 00 00 00 00 	movabs $0x8000000000000009,%rcx
   18002343e:	00 00 80
   180023441:	48 1b c0             	sbb    %rax,%rax
   180023444:	48 f7 d0             	not    %rax
   180023447:	48 23 c1             	and    %rcx,%rax
   18002344a:	48 8b 5c 24 30       	mov    0x30(%rsp),%rbx
   18002344f:	48 8b 74 24 38       	mov    0x38(%rsp),%rsi
   180023454:	48 83 c4 20          	add    $0x20,%rsp
   180023458:	5f                   	pop    %rdi
   180023459:	c3                   	ret
   18002345a:	cc                   	int3
   18002345b:	cc                   	int3
   18002345c:	48 89 5c 24 08       	mov    %rbx,0x8(%rsp)
   180023461:	48 89 6c 24 10       	mov    %rbp,0x10(%rsp)
   180023466:	48 89 74 24 18       	mov    %rsi,0x18(%rsp)
   18002346b:	57                   	push   %rdi
   18002346c:	48 83 ec 20          	sub    $0x20,%rsp
   180023470:	48 8d 59 e8          	lea    -0x18(%rcx),%rbx
   180023474:	81 3b 70 68 64 30    	cmpl   $0x30646870,(%rbx)
   18002347a:	74 0f                	je     0x18002348b
   18002347c:	48 b8 02 00 00 00 00 	movabs $0x8000000000000002,%rax
   180023483:	00 00 80
   180023486:	e9 2a 01 00 00       	jmp    0x1800235b5
   18002348b:	8b 7b 04             	mov    0x4(%rbx),%edi
   18002348e:	81 7c 1f f8 70 74 61 	cmpl   $0x6c617470,-0x8(%rdi,%rbx,1)
   180023495:	6c
   180023496:	75 e4                	jne    0x18002347c
   180023498:	3b 7c 1f fc          	cmp    -0x4(%rdi,%rbx,1),%edi
   18002349c:	75 de                	jne    0x18002347c
   18002349e:	8b 4b 08             	mov    0x8(%rbx),%ecx
   1800234a1:	e8 3e fe ff ff       	call   0x1800232e4
   1800234a6:	33 c9                	xor    %ecx,%ecx
   1800234a8:	48 8b f0             	mov    %rax,%rsi
   1800234ab:	48 3b c1             	cmp    %rcx,%rax
   1800234ae:	74 cc                	je     0x18002347c
   1800234b0:	48 29 78 08          	sub    %rdi,0x8(%rax)
   1800234b4:	48 8b c7             	mov    %rdi,%rax
   1800234b7:	48 c1 e8 07          	shr    $0x7,%rax
   1800234bb:	48 83 f8 20          	cmp    $0x20,%rax
   1800234bf:	72 19                	jb     0x1800234da
   1800234c1:	48 f7 c7 ff 0f 00 00 	test   $0xfff,%rdi
   1800234c8:	48 8b d1             	mov    %rcx,%rdx
   1800234cb:	0f 95 c2             	setne  %dl
   1800234ce:	48 c1 ef 0c          	shr    $0xc,%rdi
   1800234d2:	48 03 d7             	add    %rdi,%rdx
   1800234d5:	e9 ae 00 00 00       	jmp    0x180023588
   1800234da:	89 43 04             	mov    %eax,0x4(%rbx)
   1800234dd:	48 03 c0             	add    %rax,%rax
   1800234e0:	48 8d 53 08          	lea    0x8(%rbx),%rdx
   1800234e4:	48 8d 4c c6 18       	lea    0x18(%rsi,%rax,8),%rcx
   1800234e9:	bf 70 66 72 30       	mov    $0x30726670,%edi
   1800234ee:	89 3b                	mov    %edi,(%rbx)
   1800234f0:	e8 8f f6 01 00       	call   0x180042b84
   1800234f5:	48 81 e3 00 f0 ff ff 	and    $0xfffffffffffff000,%rbx
   1800234fc:	39 3b                	cmp    %edi,(%rbx)
   1800234fe:	0f 85 8c 00 00 00    	jne    0x180023590
   180023504:	8b 7b 04             	mov    0x4(%rbx),%edi
   180023507:	45 33 c9             	xor    %r9d,%r9d
   18002350a:	b1 01                	mov    $0x1,%cl
   18002350c:	48 8d 47 01          	lea    0x1(%rdi),%rax
   180023510:	49 8b d1             	mov    %r9,%rdx
   180023513:	41 ba 00 10 00 00    	mov    $0x1000,%r10d
   180023519:	48 c1 e0 07          	shl    $0x7,%rax
   18002351d:	41 3a c9             	cmp    %r9b,%cl
   180023520:	74 71                	je     0x180023593
   180023522:	4c 8d 04 10          	lea    (%rax,%rdx,1),%r8
   180023526:	eb 14                	jmp    0x18002353c
   180023528:	81 3c 1a 70 66 72 30 	cmpl   $0x30726670,(%rdx,%rbx,1)
   18002352f:	0f b6 c9             	movzbl %cl,%ecx
   180023532:	49 8b d0             	mov    %r8,%rdx
   180023535:	41 0f 45 c9          	cmovne %r9d,%ecx
   180023539:	4c 03 c0             	add    %rax,%r8
   18002353c:	4d 3b c2             	cmp    %r10,%r8
   18002353f:	76 e7                	jbe    0x180023528
   180023541:	48 83 c0 80          	add    $0xffffffffffffff80,%rax
   180023545:	49 3b d2             	cmp    %r10,%rdx
   180023548:	72 d3                	jb     0x18002351d
   18002354a:	41 3a c9             	cmp    %r9b,%cl
   18002354d:	74 44                	je     0x180023593
   18002354f:	48 ff c7             	inc    %rdi
   180023552:	49 8b c1             	mov    %r9,%rax
   180023555:	48 c1 e7 07          	shl    $0x7,%rdi
   180023559:	48 8d 2c 07          	lea    (%rdi,%rax,1),%rbp
   18002355d:	eb 16                	jmp    0x180023575
   18002355f:	48 8d 4c 03 08       	lea    0x8(%rbx,%rax,1),%rcx
   180023564:	e8 f7 f5 01 00       	call   0x180042b60
   180023569:	48 8b c5             	mov    %rbp,%rax
   18002356c:	48 03 ef             	add    %rdi,%rbp
   18002356f:	41 ba 00 10 00 00    	mov    $0x1000,%r10d
   180023575:	49 3b ea             	cmp    %r10,%rbp
   180023578:	76 e5                	jbe    0x18002355f
   18002357a:	48 83 c7 80          	add    $0xffffffffffffff80,%rdi
   18002357e:	49 3b c2             	cmp    %r10,%rax
   180023581:	72 d6                	jb     0x180023559
   180023583:	ba 01 00 00 00       	mov    $0x1,%edx
   180023588:	48 8b cb             	mov    %rbx,%rcx
   18002358b:	e8 60 0d 00 00       	call   0x1800242f0
   180023590:	45 33 c9             	xor    %r9d,%r9d
   180023593:	44 39 4e 10          	cmp    %r9d,0x10(%rsi)
   180023597:	7d 1a                	jge    0x1800235b3
   180023599:	4c 39 4e 08          	cmp    %r9,0x8(%rsi)
   18002359d:	75 14                	jne    0x1800235b3
   18002359f:	48 8d 8e 18 02 00 00 	lea    0x218(%rsi),%rcx
   1800235a6:	e8 b5 f5 01 00       	call   0x180042b60
   1800235ab:	48 8b ce             	mov    %rsi,%rcx
   1800235ae:	e8 a9 fe ff ff       	call   0x18002345c
   1800235b3:	33 c0                	xor    %eax,%eax
   1800235b5:	48 8b 5c 24 30       	mov    0x30(%rsp),%rbx
   1800235ba:	48 8b 6c 24 38       	mov    0x38(%rsp),%rbp
   1800235bf:	48 8b 74 24 40       	mov    0x40(%rsp),%rsi
   1800235c4:	48 83 c4 20          	add    $0x20,%rsp
   1800235c8:	5f                   	pop    %rdi
   1800235c9:	c3                   	ret
   1800235ca:	cc                   	int3
   1800235cb:	cc                   	int3
   1800235cc:	40 53                	rex push %rbx
   1800235ce:	48 83 ec 20          	sub    $0x20,%rsp
   1800235d2:	48 8b d9             	mov    %rcx,%rbx
   1800235d5:	48 85 c9             	test   %rcx,%rcx
   1800235d8:	75 0c                	jne    0x1800235e6
   1800235da:	48 b8 02 00 00 00 00 	movabs $0x8000000000000002,%rax
   1800235e1:	00 00 80
   1800235e4:	eb 18                	jmp    0x1800235fe
   1800235e6:	e8 19 00 00 00       	call   0x180023604
   1800235eb:	48 8b cb             	mov    %rbx,%rcx
   1800235ee:	e8 69 fe ff ff       	call   0x18002345c
   1800235f3:	48 8b d8             	mov    %rax,%rbx
   1800235f6:	e8 15 00 00 00       	call   0x180023610
   1800235fb:	48 8b c3             	mov    %rbx,%rax
   1800235fe:	48 83 c4 20          	add    $0x20,%rsp
   180023602:	5b                   	pop    %rbx
   180023603:	c3                   	ret
   180023604:	48 8d 0d b5 b0 02 00 	lea    0x2b0b5(%rip),%rcx        # 0x18004e6c0
   18002360b:	e9 04 15 00 00       	jmp    0x180024b14
   180023610:	48 8d 0d a9 b0 02 00 	lea    0x2b0a9(%rip),%rcx        # 0x18004e6c0
   180023617:	e9 00 15 00 00       	jmp    0x180024b1c
   18002361c:	48 89 5c 24 08       	mov    %rbx,0x8(%rsp)
   180023621:	57                   	push   %rdi
   180023622:	48 83 ec 20          	sub    $0x20,%rsp
   180023626:	48 8b d9             	mov    %rcx,%rbx
   180023629:	48 83 c1 08          	add    $0x8,%rcx
   18002362d:	e8 2e f5 01 00       	call   0x180042b60
   180023632:	48 83 63 08 00       	andq   $0x0,0x8(%rbx)
   180023637:	80 7b 18 00          	cmpb   $0x0,0x18(%rbx)
   18002363b:	74 10                	je     0x18002364d
   18002363d:	48 8d 53 08          	lea    0x8(%rbx),%rdx
   180023641:	48 8d 0d 68 9f 02 00 	lea    0x29f68(%rip),%rcx        # 0x18004d5b0
   180023648:	e8 23 f5 01 00       	call   0x180042b70
   18002364d:	48 8b 5c 24 30       	mov    0x30(%rsp),%rbx
   180023652:	48 83 c4 20          	add    $0x20,%rsp
   180023656:	5f                   	pop    %rdi
   180023657:	c3                   	ret
   180023658:	48 89 5c 24 08       	mov    %rbx,0x8(%rsp)
   18002365d:	48 89 6c 24 10       	mov    %rbp,0x10(%rsp)
   180023662:	48 89 74 24 18       	mov    %rsi,0x18(%rsp)
   180023667:	57                   	push   %rdi
   180023668:	48 83 ec 20          	sub    $0x20,%rsp
   18002366c:	be ff 0f 00 00       	mov    $0xfff,%esi
   180023671:	49 8b f9             	mov    %r9,%rdi
   180023674:	4c 8b c2             	mov    %rdx,%r8
   180023677:	48 8b d9             	mov    %rcx,%rbx
   18002367a:	48 3b ce             	cmp    %rsi,%rcx
   18002367d:	0f 82 a0 00 00 00    	jb     0x180023723
   180023683:	33 ed                	xor    %ebp,%ebp
   180023685:	48 3b d5             	cmp    %rbp,%rdx
   180023688:	0f 84 95 00 00 00    	je     0x180023723
   18002368e:	48 8b c1             	mov    %rcx,%rax
   180023691:	48 23 c6             	and    %rsi,%rax
   180023694:	48 3b c6             	cmp    %rsi,%rax
   180023697:	74 0a                	je     0x1800236a3
   180023699:	48 81 c3 00 f0 ff ff 	add    $0xfffffffffffff000,%rbx
   1800236a0:	48 0b de             	or     %rsi,%rbx
   1800236a3:	ba 0c 00 00 00       	mov    $0xc,%edx
   1800236a8:	49 8b c8             	mov    %r8,%rcx
   1800236ab:	e8 a0 bf ff ff       	call   0x18001f650
   1800236b0:	48 8b 15 21 b0 02 00 	mov    0x2b021(%rip),%rdx        # 0x18004e6d8
   1800236b7:	48 8b cd             	mov    %rbp,%rcx
   1800236ba:	4c 8d 15 17 b0 02 00 	lea    0x2b017(%rip),%r10        # 0x18004e6d8
   1800236c1:	41 b8 01 00 00 00    	mov    $0x1,%r8d
   1800236c7:	4c 8b d8             	mov    %rax,%r11
   1800236ca:	eb 40                	jmp    0x18002370c
   1800236cc:	83 7a 14 07          	cmpl   $0x7,0x14(%rdx)
   1800236d0:	75 37                	jne    0x180023709
   1800236d2:	48 8b 42 20          	mov    0x20(%rdx),%rax
   1800236d6:	48 39 5a 18          	cmp    %rbx,0x18(%rdx)
   1800236da:	73 2d                	jae    0x180023709
   1800236dc:	48 3b c3             	cmp    %rbx,%rax
   1800236df:	4c 8d 4f ff          	lea    -0x1(%rdi),%r9
   1800236e3:	48 0f 43 c3          	cmovae %rbx,%rax
   1800236e7:	49 f7 d1             	not    %r9
   1800236ea:	48 ff c0             	inc    %rax
   1800236ed:	4c 23 c8             	and    %rax,%r9
   1800236f0:	4d 2b c8             	sub    %r8,%r9
   1800236f3:	49 8b c1             	mov    %r9,%rax
   1800236f6:	48 2b 42 18          	sub    0x18(%rdx),%rax
   1800236fa:	49 03 c0             	add    %r8,%rax
   1800236fd:	49 3b c3             	cmp    %r11,%rax
   180023700:	72 07                	jb     0x180023709
   180023702:	4c 3b c9             	cmp    %rcx,%r9
   180023705:	49 0f 47 c9          	cmova  %r9,%rcx
   180023709:	48 8b 12             	mov    (%rdx),%rdx
   18002370c:	49 3b d2             	cmp    %r10,%rdx
   18002370f:	75 bb                	jne    0x1800236cc
   180023711:	4d 2b c3             	sub    %r11,%r8
   180023714:	49 03 c8             	add    %r8,%rcx
   180023717:	48 85 ce             	test   %rcx,%rsi
   18002371a:	48 0f 45 cd          	cmovne %rbp,%rcx
   18002371e:	48 8b c1             	mov    %rcx,%rax
   180023721:	eb 02                	jmp    0x180023725
   180023723:	33 c0                	xor    %eax,%eax
   180023725:	48 8b 5c 24 30       	mov    0x30(%rsp),%rbx
   18002372a:	48 8b 6c 24 38       	mov    0x38(%rsp),%rbp
   18002372f:	48 8b 74 24 40       	mov    0x40(%rsp),%rsi
   180023734:	48 83 c4 20          	add    $0x20,%rsp
   180023738:	5f                   	pop    %rdi
   180023739:	c3                   	ret
   18002373a:	cc                   	int3
   18002373b:	cc                   	int3
   18002373c:	48 8b c4             	mov    %rsp,%rax
   18002373f:	48 89 58 08          	mov    %rbx,0x8(%rax)
   180023743:	48 89 68 10          	mov    %rbp,0x10(%rax)
   180023747:	48 89 70 20          	mov    %rsi,0x20(%rax)
   18002374b:	4c 89 40 18          	mov    %r8,0x18(%rax)
   18002374f:	57                   	push   %rdi
   180023750:	41 54                	push   %r12
   180023752:	41 57                	push   %r15
   180023754:	48 83 ec 20          	sub    $0x20,%rsp
   180023758:	49 8b f1             	mov    %r9,%rsi
   18002375b:	4d 8b e0             	mov    %r8,%r12
   18002375e:	48 8b da             	mov    %rdx,%rbx
   180023761:	48 8b e9             	mov    %rcx,%rbp
   180023764:	48 85 c9             	test   %rcx,%rcx
   180023767:	75 0f                	jne    0x180023778
   180023769:	48 b8 02 00 00 00 00 	movabs $0x8000000000000002,%rax
   180023770:	00 00 80
   180023773:	e9 7c 02 00 00       	jmp    0x1800239f4
   180023778:	e8 27 9f ff ff       	call   0x18001d6a4
   18002377d:	48 8b 0d fc 99 02 00 	mov    0x299fc(%rip),%rcx        # 0x18004d180
   180023784:	33 ff                	xor    %edi,%edi
   180023786:	48 8d 15 f3 99 02 00 	lea    0x299f3(%rip),%rdx        # 0x18004d180
   18002378d:	49 b8 00 00 00 00 00 	movabs $0x8000000000000000,%r8
   180023794:	00 00 80
   180023797:	eb 1e                	jmp    0x1800237b7
   180023799:	83 79 30 01          	cmpl   $0x1,0x30(%rcx)
   18002379d:	74 06                	je     0x1800237a5
   18002379f:	83 79 30 03          	cmpl   $0x3,0x30(%rcx)
   1800237a3:	75 0f                	jne    0x1800237b4
   1800237a5:	48 8b 41 28          	mov    0x28(%rcx),%rax
   1800237a9:	49 23 c0             	and    %r8,%rax
   1800237ac:	49 3b c0             	cmp    %r8,%rax
   1800237af:	75 03                	jne    0x1800237b4
   1800237b1:	48 ff c7             	inc    %rdi
   1800237b4:	48 8b 09             	mov    (%rcx),%rcx
   1800237b7:	48 3b ca             	cmp    %rdx,%rcx
   1800237ba:	75 dd                	jne    0x180023799
   1800237bc:	48 85 f6             	test   %rsi,%rsi
   1800237bf:	74 07                	je     0x1800237c8
   1800237c1:	48 c7 06 30 00 00 00 	movq   $0x30,(%rsi)
   1800237c8:	48 8b 44 24 60       	mov    0x60(%rsp),%rax
   1800237cd:	48 85 c0             	test   %rax,%rax
   1800237d0:	74 06                	je     0x1800237d8
   1800237d2:	c7 00 01 00 00 00    	movl   $0x1,(%rax)
   1800237d8:	48 8d 0d e1 ae 02 00 	lea    0x2aee1(%rip),%rcx        # 0x18004e6c0
   1800237df:	e8 30 13 00 00       	call   0x180024b14
   1800237e4:	48 8b 05 ed ae 02 00 	mov    0x2aeed(%rip),%rax        # 0x18004e6d8
   1800237eb:	48 8d 34 7f          	lea    (%rdi,%rdi,2),%rsi
   1800237ef:	48 c1 e6 04          	shl    $0x4,%rsi
   1800237f3:	4c 8d 3d de ae 02 00 	lea    0x2aede(%rip),%r15        # 0x18004e6d8
   1800237fa:	eb 07                	jmp    0x180023803
   1800237fc:	48 8b 00             	mov    (%rax),%rax
   1800237ff:	48 83 c6 30          	add    $0x30,%rsi
   180023803:	49 3b c7             	cmp    %r15,%rax
   180023806:	75 f4                	jne    0x1800237fc
   180023808:	48 39 75 00          	cmp    %rsi,0x0(%rbp)
   18002380c:	73 0f                	jae    0x18002381d
   18002380e:	48 bb 05 00 00 00 00 	movabs $0x8000000000000005,%rbx
   180023815:	00 00 80
   180023818:	e9 af 01 00 00       	jmp    0x1800239cc
   18002381d:	48 85 db             	test   %rbx,%rbx
   180023820:	75 0f                	jne    0x180023831
   180023822:	48 bb 02 00 00 00 00 	movabs $0x8000000000000002,%rbx
   180023829:	00 00 80
   18002382c:	e9 9b 01 00 00       	jmp    0x1800239cc
   180023831:	48 8b d6             	mov    %rsi,%rdx
   180023834:	48 8b cb             	mov    %rbx,%rcx
   180023837:	e8 f4 bd ff ff       	call   0x18001f630
   18002383c:	48 8b 3d 95 ae 02 00 	mov    0x2ae95(%rip),%rdi        # 0x18004e6d8
   180023843:	49 3b ff             	cmp    %r15,%rdi
   180023846:	0f 84 ad 00 00 00    	je     0x1800238f9
   18002384c:	49 bc 00 00 00 00 00 	movabs $0x8000000000000000,%r12
   180023853:	00 00 80
   180023856:	8b 47 14             	mov    0x14(%rdi),%eax
   180023859:	ba 0c 00 00 00       	mov    $0xc,%edx
   18002385e:	89 03                	mov    %eax,(%rbx)
   180023860:	48 8b 47 18          	mov    0x18(%rdi),%rax
   180023864:	48 89 43 08          	mov    %rax,0x8(%rbx)
   180023868:	48 8b 47 28          	mov    0x28(%rdi),%rax
   18002386c:	48 89 43 10          	mov    %rax,0x10(%rbx)
   180023870:	48 8b 4f 20          	mov    0x20(%rdi),%rcx
   180023874:	48 2b 4f 18          	sub    0x18(%rdi),%rcx
   180023878:	48 ff c1             	inc    %rcx
   18002387b:	e8 c8 bd ff ff       	call   0x18001f648
   180023880:	83 3b 07             	cmpl   $0x7,(%rbx)
   180023883:	48 89 43 18          	mov    %rax,0x18(%rbx)
   180023887:	75 36                	jne    0x1800238bf
   180023889:	33 d2                	xor    %edx,%edx
   18002388b:	48 8d 0d 46 9d 02 00 	lea    0x29d46(%rip),%rcx        # 0x18004d5d8
   180023892:	80 79 10 00          	cmpb   $0x0,0x10(%rcx)
   180023896:	74 1c                	je     0x1800238b4
   180023898:	48 83 39 00          	cmpq   $0x0,(%rcx)
   18002389c:	76 16                	jbe    0x1800238b4
   18002389e:	48 8b 41 e8          	mov    -0x18(%rcx),%rax
   1800238a2:	48 39 47 18          	cmp    %rax,0x18(%rdi)
   1800238a6:	72 0c                	jb     0x1800238b4
   1800238a8:	48 8b 41 f0          	mov    -0x10(%rcx),%rax
   1800238ac:	48 39 47 20          	cmp    %rax,0x20(%rdi)
   1800238b0:	77 02                	ja     0x1800238b4
   1800238b2:	89 13                	mov    %edx,(%rbx)
   1800238b4:	ff c2                	inc    %edx
   1800238b6:	48 83 c1 30          	add    $0x30,%rcx
   1800238ba:	83 fa 0e             	cmp    $0xe,%edx
   1800238bd:	7c d3                	jl     0x180023892
   1800238bf:	8b 03                	mov    (%rbx),%eax
   1800238c1:	48 8b 57 30          	mov    0x30(%rdi),%rdx
   1800238c5:	48 8d 0c 40          	lea    (%rax,%rax,2),%rcx
   1800238c9:	48 8d 05 19 9d 02 00 	lea    0x29d19(%rip),%rax        # 0x18004d5e9
   1800238d0:	48 89 53 20          	mov    %rdx,0x20(%rbx)
   1800238d4:	48 03 c9             	add    %rcx,%rcx
   1800238d7:	80 3c c8 00          	cmpb   $0x0,(%rax,%rcx,8)
   1800238db:	74 07                	je     0x1800238e4
   1800238dd:	49 0b d4             	or     %r12,%rdx
   1800238e0:	48 89 53 20          	mov    %rdx,0x20(%rbx)
   1800238e4:	48 8b 3f             	mov    (%rdi),%rdi
   1800238e7:	48 83 c3 30          	add    $0x30,%rbx
   1800238eb:	49 3b ff             	cmp    %r15,%rdi
   1800238ee:	0f 85 62 ff ff ff    	jne    0x180023856
   1800238f4:	4c 8b 64 24 50       	mov    0x50(%rsp),%r12
   1800238f9:	48 8b 3d 80 98 02 00 	mov    0x29880(%rip),%rdi        # 0x18004d180
   180023900:	48 8d 0d 79 98 02 00 	lea    0x29879(%rip),%rcx        # 0x18004d180
   180023907:	48 3b f9             	cmp    %rcx,%rdi
   18002390a:	0f 84 ba 00 00 00    	je     0x1800239ca
   180023910:	49 bf 00 00 00 00 00 	movabs $0x4000000000000000,%r15
   180023917:	00 00 40
   18002391a:	49 bc 00 00 00 00 00 	movabs $0x8000000000000000,%r12
   180023921:	00 00 80
   180023924:	83 7f 30 01          	cmpl   $0x1,0x30(%rdi)
   180023928:	74 0a                	je     0x180023934
   18002392a:	83 7f 30 03          	cmpl   $0x3,0x30(%rdi)
   18002392e:	0f 85 85 00 00 00    	jne    0x1800239b9
   180023934:	48 8b 47 28          	mov    0x28(%rdi),%rax
   180023938:	49 23 c4             	and    %r12,%rax
   18002393b:	49 3b c4             	cmp    %r12,%rax
   18002393e:	75 79                	jne    0x1800239b9
   180023940:	48 8b 47 10          	mov    0x10(%rdi),%rax
   180023944:	48 83 63 10 00       	andq   $0x0,0x10(%rbx)
   180023949:	ba 0c 00 00 00       	mov    $0xc,%edx
   18002394e:	48 89 43 08          	mov    %rax,0x8(%rbx)
   180023952:	48 8b 4f 18          	mov    0x18(%rdi),%rcx
   180023956:	48 2b 4f 10          	sub    0x10(%rdi),%rcx
   18002395a:	48 ff c1             	inc    %rcx
   18002395d:	e8 e6 bc ff ff       	call   0x18001f648
   180023962:	48 b9 ff ff ff ff ff 	movabs $0xbfffffffffffffff,%rcx
   180023969:	ff ff bf
   18002396c:	48 89 43 18          	mov    %rax,0x18(%rbx)
   180023970:	48 8b 47 28          	mov    0x28(%rdi),%rax
   180023974:	48 23 c1             	and    %rcx,%rax
   180023977:	48 89 43 20          	mov    %rax,0x20(%rbx)
   18002397b:	83 7f 30 01          	cmpl   $0x1,0x30(%rdi)
   18002397f:	75 13                	jne    0x180023994
   180023981:	83 23 00             	andl   $0x0,(%rbx)
   180023984:	48 b8 ff ff ff ff ff 	movabs $0x7fffffffffffffff,%rax
   18002398b:	ff ff 7f
   18002398e:	48 21 43 20          	and    %rax,0x20(%rbx)
   180023992:	eb 1a                	jmp    0x1800239ae
   180023994:	83 7f 30 03          	cmpl   $0x3,0x30(%rdi)
   180023998:	75 14                	jne    0x1800239ae
   18002399a:	48 8b 47 28          	mov    0x28(%rdi),%rax
   18002399e:	49 23 c7             	and    %r15,%rax
   1800239a1:	49 2b c7             	sub    %r15,%rax
   1800239a4:	48 f7 d8             	neg    %rax
   1800239a7:	1b c0                	sbb    %eax,%eax
   1800239a9:	83 c0 0c             	add    $0xc,%eax
   1800239ac:	89 03                	mov    %eax,(%rbx)
   1800239ae:	48 83 c3 30          	add    $0x30,%rbx
   1800239b2:	48 8d 0d c7 97 02 00 	lea    0x297c7(%rip),%rcx        # 0x18004d180
   1800239b9:	48 8b 3f             	mov    (%rdi),%rdi
   1800239bc:	48 3b f9             	cmp    %rcx,%rdi
   1800239bf:	0f 85 5f ff ff ff    	jne    0x180023924
   1800239c5:	4c 8b 64 24 50       	mov    0x50(%rsp),%r12
   1800239ca:	33 db                	xor    %ebx,%ebx
   1800239cc:	48 8d 0d ed ac 02 00 	lea    0x2aced(%rip),%rcx        # 0x18004e6c0
   1800239d3:	e8 44 11 00 00       	call   0x180024b1c
   1800239d8:	e8 d3 9c ff ff       	call   0x18001d6b0
   1800239dd:	4d 85 e4             	test   %r12,%r12
   1800239e0:	74 0b                	je     0x1800239ed
   1800239e2:	48 8b 0d bf d2 02 00 	mov    0x2d2bf(%rip),%rcx        # 0x180050ca8
   1800239e9:	49 89 0c 24          	mov    %rcx,(%r12)
   1800239ed:	48 89 75 00          	mov    %rsi,0x0(%rbp)
   1800239f1:	48 8b c3             	mov    %rbx,%rax
   1800239f4:	48 8b 5c 24 40       	mov    0x40(%rsp),%rbx
   1800239f9:	48 8b 6c 24 48       	mov    0x48(%rsp),%rbp
   1800239fe:	48 8b 74 24 58       	mov    0x58(%rsp),%rsi
   180023a03:	48 83 c4 20          	add    $0x20,%rsp
   180023a07:	41 5f                	pop    %r15
   180023a09:	41 5c                	pop    %r12
   180023a0b:	5f                   	pop    %rdi
   180023a0c:	c3                   	ret
   180023a0d:	cc                   	int3
   180023a0e:	cc                   	int3
   180023a0f:	cc                   	int3
   180023a10:	48 89 5c 24 08       	mov    %rbx,0x8(%rsp)
   180023a15:	57                   	push   %rdi
   180023a16:	48 83 ec 20          	sub    $0x20,%rsp
   180023a1a:	48 8b d9             	mov    %rcx,%rbx
   180023a1d:	48 8d 0d 9c ac 02 00 	lea    0x2ac9c(%rip),%rcx        # 0x18004e6c0
   180023a24:	33 ff                	xor    %edi,%edi
   180023a26:	e8 e9 10 00 00       	call   0x180024b14
   180023a2b:	48 3b 1d 76 d2 02 00 	cmp    0x2d276(%rip),%rbx        # 0x180050ca8
   180023a32:	75 6b                	jne    0x180023a9f
   180023a34:	48 8b 0d 9d ac 02 00 	mov    0x2ac9d(%rip),%rcx        # 0x18004e6d8
   180023a3b:	48 8d 15 96 ac 02 00 	lea    0x2ac96(%rip),%rdx        # 0x18004e6d8
   180023a42:	48 3b ca             	cmp    %rdx,%rcx
   180023a45:	74 62                	je     0x180023aa9
   180023a47:	41 b8 ff 0f 00 00    	mov    $0xfff,%r8d
   180023a4d:	48 b8 00 00 00 00 00 	movabs $0x8000000000000000,%rax
   180023a54:	00 00 80
   180023a57:	48 85 41 30          	test   %rax,0x30(%rcx)
   180023a5b:	74 20                	je     0x180023a7d
   180023a5d:	83 79 14 09          	cmpl   $0x9,0x14(%rcx)
   180023a61:	74 24                	je     0x180023a87
   180023a63:	83 79 14 0a          	cmpl   $0xa,0x14(%rcx)
   180023a67:	74 1e                	je     0x180023a87
   180023a69:	8b 41 18             	mov    0x18(%rcx),%eax
   180023a6c:	49 85 c0             	test   %rax,%r8
   180023a6f:	75 16                	jne    0x180023a87
   180023a71:	48 8b 41 20          	mov    0x20(%rcx),%rax
   180023a75:	48 ff c0             	inc    %rax
   180023a78:	49 85 c0             	test   %rax,%r8
   180023a7b:	75 22                	jne    0x180023a9f
   180023a7d:	48 8b 09             	mov    (%rcx),%rcx
   180023a80:	48 3b ca             	cmp    %rdx,%rcx
   180023a83:	74 24                	je     0x180023aa9
   180023a85:	eb c6                	jmp    0x180023a4d
   180023a87:	48 8d 0d 32 ac 02 00 	lea    0x2ac32(%rip),%rcx        # 0x18004e6c0
   180023a8e:	e8 89 10 00 00       	call   0x180024b1c
   180023a93:	48 b8 02 00 00 00 00 	movabs $0x8000000000000002,%rax
   180023a9a:	00 00 80
   180023a9d:	eb 19                	jmp    0x180023ab8
   180023a9f:	48 bf 02 00 00 00 00 	movabs $0x8000000000000002,%rdi
   180023aa6:	00 00 80
   180023aa9:	48 8d 0d 10 ac 02 00 	lea    0x2ac10(%rip),%rcx        # 0x18004e6c0
   180023ab0:	e8 67 10 00 00       	call   0x180024b1c
   180023ab5:	48 8b c7             	mov    %rdi,%rax
   180023ab8:	48 8b 5c 24 30       	mov    0x30(%rsp),%rbx
   180023abd:	48 83 c4 20          	add    $0x20,%rsp
   180023ac1:	5f                   	pop    %rdi
   180023ac2:	c3                   	ret
   180023ac3:	cc                   	int3
   180023ac4:	48 89 5c 24 08       	mov    %rbx,0x8(%rsp)
   180023ac9:	48 89 6c 24 10       	mov    %rbp,0x10(%rsp)
   180023ace:	48 89 74 24 18       	mov    %rsi,0x18(%rsp)
   180023ad3:	57                   	push   %rdi
   180023ad4:	41 54                	push   %r12
   180023ad6:	41 55                	push   %r13
   180023ad8:	48 83 ec 20          	sub    $0x20,%rsp
   180023adc:	48 ff 05 c5 d1 02 00 	incq   0x2d1c5(%rip)        # 0x180050ca8
   180023ae3:	48 8b 1d ee ab 02 00 	mov    0x2abee(%rip),%rbx        # 0x18004e6d8
   180023aea:	49 8b e9             	mov    %r9,%rbp
   180023aed:	49 8b f0             	mov    %r8,%rsi
   180023af0:	48 8b fa             	mov    %rdx,%rdi
   180023af3:	44 8b e1             	mov    %ecx,%r12d
   180023af6:	4c 8d 2d db ab 02 00 	lea    0x2abdb(%rip),%r13        # 0x18004e6d8
   180023afd:	eb 38                	jmp    0x180023b37
   180023aff:	48 8d 4b f8          	lea    -0x8(%rbx),%rcx
   180023b03:	48 8b 1b             	mov    (%rbx),%rbx
   180023b06:	44 39 61 1c          	cmp    %r12d,0x1c(%rcx)
   180023b0a:	75 2b                	jne    0x180023b37
   180023b0c:	48 39 69 38          	cmp    %rbp,0x38(%rcx)
   180023b10:	75 25                	jne    0x180023b37
   180023b12:	48 8b 51 28          	mov    0x28(%rcx),%rdx
   180023b16:	48 8d 42 01          	lea    0x1(%rdx),%rax
   180023b1a:	48 3b c7             	cmp    %rdi,%rax
   180023b1d:	75 06                	jne    0x180023b25
   180023b1f:	48 8b 79 20          	mov    0x20(%rcx),%rdi
   180023b23:	eb 0d                	jmp    0x180023b32
   180023b25:	48 8d 46 01          	lea    0x1(%rsi),%rax
   180023b29:	48 39 41 20          	cmp    %rax,0x20(%rcx)
   180023b2d:	75 08                	jne    0x180023b37
   180023b2f:	48 8b f2             	mov    %rdx,%rsi
   180023b32:	e8 e5 fa ff ff       	call   0x18002361c
   180023b37:	49 3b dd             	cmp    %r13,%rbx
   180023b3a:	75 c3                	jne    0x180023aff
   180023b3c:	48 8b 05 6d d1 02 00 	mov    0x2d16d(%rip),%rax        # 0x180050cb0
   180023b43:	48 8d 15 96 de 02 00 	lea    0x2de96(%rip),%rdx        # 0x1800519e0
   180023b4a:	49 8b cd             	mov    %r13,%rcx
   180023b4d:	48 c1 e0 06          	shl    $0x6,%rax
   180023b51:	48 c7 04 10 6d 6d 61 	movq   $0x70616d6d,(%rax,%rdx,1)
   180023b58:	70
   180023b59:	c6 44 10 18 00       	movb   $0x0,0x18(%rax,%rdx,1)
   180023b5e:	44 89 64 10 1c       	mov    %r12d,0x1c(%rax,%rdx,1)
   180023b63:	48 89 7c 10 20       	mov    %rdi,0x20(%rax,%rdx,1)
   180023b68:	48 89 74 10 28       	mov    %rsi,0x28(%rax,%rdx,1)
   180023b6d:	48 83 64 10 30 00    	andq   $0x0,0x30(%rax,%rdx,1)
   180023b73:	48 89 6c 10 38       	mov    %rbp,0x38(%rax,%rdx,1)
   180023b78:	48 8d 54 10 08       	lea    0x8(%rax,%rdx,1),%rdx
   180023b7d:	e8 ee ef 01 00       	call   0x180042b70
   180023b82:	48 ff 05 27 d1 02 00 	incq   0x2d127(%rip)        # 0x180050cb0
   180023b89:	48 8b 5c 24 40       	mov    0x40(%rsp),%rbx
   180023b8e:	48 8b 6c 24 48       	mov    0x48(%rsp),%rbp
   180023b93:	48 8b 74 24 50       	mov    0x50(%rsp),%rsi
   180023b98:	48 83 c4 20          	add    $0x20,%rsp
   180023b9c:	41 5d                	pop    %r13
   180023b9e:	41 5c                	pop    %r12
   180023ba0:	5f                   	pop    %rdi
   180023ba1:	c3                   	ret
   180023ba2:	cc                   	int3
   180023ba3:	cc                   	int3
   180023ba4:	48 89 5c 24 08       	mov    %rbx,0x8(%rsp)
   180023ba9:	57                   	push   %rdi
   180023baa:	48 83 ec 20          	sub    $0x20,%rsp
   180023bae:	e8 f1 9a ff ff       	call   0x18001d6a4
   180023bb3:	48 8b 1d c6 95 02 00 	mov    0x295c6(%rip),%rbx        # 0x18004d180
   180023bba:	48 8d 3d bf 95 02 00 	lea    0x295bf(%rip),%rdi        # 0x18004d180
   180023bc1:	e9 a6 00 00 00       	jmp    0x180023c6c
   180023bc6:	83 7b 30 01          	cmpl   $0x1,0x30(%rbx)
   180023bca:	0f 85 99 00 00 00    	jne    0x180023c69
   180023bd0:	4c 8b 43 18          	mov    0x18(%rbx),%r8
   180023bd4:	b8 ff ff ff ff       	mov    $0xffffffff,%eax
   180023bd9:	4c 3b c0             	cmp    %rax,%r8
   180023bdc:	0f 83 87 00 00 00    	jae    0x180023c69
   180023be2:	4c 8b 4b 20          	mov    0x20(%rbx),%r9
   180023be6:	48 b9 00 00 00 00 00 	movabs $0x700000000000000,%rcx
   180023bed:	00 00 07
   180023bf0:	49 8b c1             	mov    %r9,%rax
   180023bf3:	48 23 c1             	and    %rcx,%rax
   180023bf6:	48 b9 00 00 00 00 00 	movabs $0x300000000000000,%rcx
   180023bfd:	00 00 03
   180023c00:	48 3b c1             	cmp    %rcx,%rax
   180023c03:	75 64                	jne    0x180023c69
   180023c05:	48 8b 53 10          	mov    0x10(%rbx),%rdx
   180023c09:	48 b8 00 00 00 00 00 	movabs $0x400000000000000,%rax
   180023c10:	00 00 04
   180023c13:	c7 43 30 02 00 00 00 	movl   $0x2,0x30(%rbx)
   180023c1a:	4c 0b c8             	or     %rax,%r9
   180023c1d:	b9 07 00 00 00       	mov    $0x7,%ecx
   180023c22:	4c 89 4b 20          	mov    %r9,0x20(%rbx)
   180023c26:	48 8b 05 a3 fe 12 00 	mov    0x12fea3(%rip),%rax        # 0x180153ad0
   180023c2d:	48 83 63 40 00       	andq   $0x0,0x40(%rbx)
   180023c32:	48 89 43 38          	mov    %rax,0x38(%rbx)
   180023c36:	48 b8 ff ff ff ff ff 	movabs $0x78ffffffffffffff,%rax
   180023c3d:	ff ff 78
   180023c40:	4c 23 c8             	and    %rax,%r9
   180023c43:	e8 7c fe ff ff       	call   0x180023ac4
   180023c48:	48 8b 4b 18          	mov    0x18(%rbx),%rcx
   180023c4c:	ba 0c 00 00 00       	mov    $0xc,%edx
   180023c51:	48 2b 4b 10          	sub    0x10(%rbx),%rcx
   180023c55:	48 ff c1             	inc    %rcx
   180023c58:	e8 eb b9 ff ff       	call   0x18001f648
   180023c5d:	48 01 05 bc 9a 02 00 	add    %rax,0x29abc(%rip)        # 0x18004d720
   180023c64:	e8 87 01 00 00       	call   0x180023df0
   180023c69:	48 8b 1b             	mov    (%rbx),%rbx
   180023c6c:	48 3b df             	cmp    %rdi,%rbx
   180023c6f:	0f 85 51 ff ff ff    	jne    0x180023bc6
   180023c75:	48 8b 5c 24 30       	mov    0x30(%rsp),%rbx
   180023c7a:	48 83 c4 20          	add    $0x20,%rsp
   180023c7e:	5f                   	pop    %rdi
   180023c7f:	e9 2c 9a ff ff       	jmp    0x18001d6b0
   180023c84:	48 89 5c 24 08       	mov    %rbx,0x8(%rsp)
   180023c89:	48 89 6c 24 10       	mov    %rbp,0x10(%rsp)
   180023c8e:	48 89 74 24 18       	mov    %rsi,0x18(%rsp)
   180023c93:	57                   	push   %rdi
   180023c94:	48 83 ec 20          	sub    $0x20,%rsp
   180023c98:	49 63 f8             	movslq %r8d,%rdi
   180023c9b:	49 8b f1             	mov    %r9,%rsi
   180023c9e:	48 8b ea             	mov    %rdx,%rbp
   180023ca1:	48 8b d9             	mov    %rcx,%rbx
   180023ca4:	83 ff 0d             	cmp    $0xd,%edi
   180023ca7:	77 17                	ja     0x180023cc0
   180023ca9:	4c 8d 14 7f          	lea    (%rdi,%rdi,2),%r10
   180023cad:	48 8d 0d 14 99 02 00 	lea    0x29914(%rip),%rcx        # 0x18004d5c8
   180023cb4:	4d 03 d2             	add    %r10,%r10
   180023cb7:	4a 8b 0c d1          	mov    (%rcx,%r10,8),%rcx
   180023cbb:	48 3b d9             	cmp    %rcx,%rbx
   180023cbe:	73 11                	jae    0x180023cd1
   180023cc0:	48 8b 05 c9 9b 02 00 	mov    0x29bc9(%rip),%rax        # 0x18004d890
   180023cc7:	48 8b cb             	mov    %rbx,%rcx
   180023cca:	48 3b d8             	cmp    %rax,%rbx
   180023ccd:	48 0f 47 c8          	cmova  %rax,%rcx
   180023cd1:	44 8b c7             	mov    %edi,%r8d
   180023cd4:	e8 7f f9 ff ff       	call   0x180023658
   180023cd9:	48 85 c0             	test   %rax,%rax
   180023cdc:	75 2c                	jne    0x180023d0a
   180023cde:	4c 8b ce             	mov    %rsi,%r9
   180023ce1:	44 8b c7             	mov    %edi,%r8d
   180023ce4:	48 8b d5             	mov    %rbp,%rdx
   180023ce7:	48 8b cb             	mov    %rbx,%rcx
   180023cea:	e8 69 f9 ff ff       	call   0x180023658
   180023cef:	48 85 c0             	test   %rax,%rax
   180023cf2:	75 16                	jne    0x180023d0a
   180023cf4:	e8 ab fe ff ff       	call   0x180023ba4
   180023cf9:	4c 8b ce             	mov    %rsi,%r9
   180023cfc:	44 8b c7             	mov    %edi,%r8d
   180023cff:	48 8b d5             	mov    %rbp,%rdx
   180023d02:	48 8b cb             	mov    %rbx,%rcx
   180023d05:	e8 4e f9 ff ff       	call   0x180023658
   180023d0a:	48 8b 5c 24 30       	mov    0x30(%rsp),%rbx
   180023d0f:	48 8b 6c 24 38       	mov    0x38(%rsp),%rbp
   180023d14:	48 8b 74 24 40       	mov    0x40(%rsp),%rsi
   180023d19:	48 83 c4 20          	add    $0x20,%rsp
   180023d1d:	5f                   	pop    %rdi
   180023d1e:	c3                   	ret
   180023d1f:	cc                   	int3
   180023d20:	48 89 5c 24 08       	mov    %rbx,0x8(%rsp)
   180023d25:	48 89 74 24 10       	mov    %rsi,0x10(%rsp)
   180023d2a:	57                   	push   %rdi
   180023d2b:	48 83 ec 20          	sub    $0x20,%rsp
   180023d2f:	4d 8b c8             	mov    %r8,%r9
   180023d32:	8b f1                	mov    %ecx,%esi
   180023d34:	44 8b c1             	mov    %ecx,%r8d
   180023d37:	b9 ff ff ff ff       	mov    $0xffffffff,%ecx
   180023d3c:	48 8b fa             	mov    %rdx,%rdi
   180023d3f:	e8 40 ff ff ff       	call   0x180023c84
   180023d44:	48 8b d8             	mov    %rax,%rbx
   180023d47:	48 85 c0             	test   %rax,%rax
   180023d4a:	74 0e                	je     0x180023d5a
   180023d4c:	44 8b c6             	mov    %esi,%r8d
   180023d4f:	48 8b d7             	mov    %rdi,%rdx
   180023d52:	48 8b c8             	mov    %rax,%rcx
   180023d55:	e8 96 01 00 00       	call   0x180023ef0
   180023d5a:	48 8b 74 24 38       	mov    0x38(%rsp),%rsi
   180023d5f:	48 8b c3             	mov    %rbx,%rax
   180023d62:	48 8b 5c 24 30       	mov    0x30(%rsp),%rbx
   180023d67:	48 83 c4 20          	add    $0x20,%rsp
   180023d6b:	5f                   	pop    %rdi
   180023d6c:	c3                   	ret
   180023d6d:	cc                   	int3
   180023d6e:	cc                   	int3
   180023d6f:	cc                   	int3
   180023d70:	48 89 5c 24 08       	mov    %rbx,0x8(%rsp)
   180023d75:	57                   	push   %rdi
   180023d76:	48 83 ec 20          	sub    $0x20,%rsp
   180023d7a:	48 8d 0d 2f 98 02 00 	lea    0x2982f(%rip),%rcx        # 0x18004d5b0
   180023d81:	e8 d2 ed 01 00       	call   0x180042b58
   180023d86:	84 c0                	test   %al,%al
   180023d88:	74 41                	je     0x180023dcb
   180023d8a:	ba 01 00 00 00       	mov    $0x1,%edx
   180023d8f:	41 b8 00 10 00 00    	mov    $0x1000,%r8d
   180023d95:	8d 4a 03             	lea    0x3(%rdx),%ecx
   180023d98:	e8 83 ff ff ff       	call   0x180023d20
   180023d9d:	48 8b d8             	mov    %rax,%rbx
   180023da0:	48 85 c0             	test   %rax,%rax
   180023da3:	74 44                	je     0x180023de9
   180023da5:	bf 40 00 00 00       	mov    $0x40,%edi
   180023daa:	48 8d 53 08          	lea    0x8(%rbx),%rdx
   180023dae:	48 8d 0d fb 97 02 00 	lea    0x297fb(%rip),%rcx        # 0x18004d5b0
   180023db5:	48 c7 03 6d 6d 61 70 	movq   $0x70616d6d,(%rbx)
   180023dbc:	e8 af ed 01 00       	call   0x180042b70
   180023dc1:	48 83 c3 40          	add    $0x40,%rbx
   180023dc5:	48 83 ef 01          	sub    $0x1,%rdi
   180023dc9:	75 df                	jne    0x180023daa
   180023dcb:	48 8b 1d de 97 02 00 	mov    0x297de(%rip),%rbx        # 0x18004d5b0
   180023dd2:	48 8b cb             	mov    %rbx,%rcx
   180023dd5:	e8 86 ed 01 00       	call   0x180042b60
   180023dda:	48 8d 43 f8          	lea    -0x8(%rbx),%rax
   180023dde:	48 8b 5c 24 30       	mov    0x30(%rsp),%rbx
   180023de3:	48 83 c4 20          	add    $0x20,%rsp
   180023de7:	5f                   	pop    %rdi
   180023de8:	c3                   	ret
   180023de9:	33 c0                	xor    %eax,%eax
   180023deb:	eb f1                	jmp    0x180023dde
   180023ded:	cc                   	int3
   180023dee:	cc                   	int3
   180023def:	cc                   	int3
   180023df0:	48 89 5c 24 08       	mov    %rbx,0x8(%rsp)
   180023df5:	48 89 6c 24 10       	mov    %rbp,0x10(%rsp)
   180023dfa:	56                   	push   %rsi
   180023dfb:	48 83 ec 20          	sub    $0x20,%rsp
   180023dff:	48 83 3d b1 ce 02 00 	cmpq   $0x0,0x2ceb1(%rip)        # 0x180050cb8
   180023e06:	00
   180023e07:	0f 85 d2 00 00 00    	jne    0x180023edf
   180023e0d:	48 83 3d 9b ce 02 00 	cmpq   $0x0,0x2ce9b(%rip)        # 0x180050cb0
   180023e14:	00
   180023e15:	b8 01 00 00 00       	mov    $0x1,%eax
   180023e1a:	48 89 05 97 ce 02 00 	mov    %rax,0x2ce97(%rip)        # 0x180050cb8
   180023e21:	0f 84 ae 00 00 00    	je     0x180023ed5
   180023e27:	48 8d 2d b2 db 02 00 	lea    0x2dbb2(%rip),%rbp        # 0x1800519e0
   180023e2e:	48 8d 35 a3 a8 02 00 	lea    0x2a8a3(%rip),%rsi        # 0x18004e6d8
   180023e35:	e8 36 ff ff ff       	call   0x180023d70
   180023e3a:	48 8b 0d 6f ce 02 00 	mov    0x2ce6f(%rip),%rcx        # 0x180050cb0
   180023e41:	48 ff c9             	dec    %rcx
   180023e44:	48 8b d8             	mov    %rax,%rbx
   180023e47:	48 89 0d 62 ce 02 00 	mov    %rcx,0x2ce62(%rip)        # 0x180050cb0
   180023e4e:	48 c1 e1 06          	shl    $0x6,%rcx
   180023e52:	48 8d 4c 29 08       	lea    0x8(%rcx,%rbp,1),%rcx
   180023e57:	48 83 39 00          	cmpq   $0x0,(%rcx)
   180023e5b:	74 53                	je     0x180023eb0
   180023e5d:	e8 fe ec 01 00       	call   0x180042b60
   180023e62:	4c 8b 1d 47 ce 02 00 	mov    0x2ce47(%rip),%r11        # 0x180050cb0
   180023e69:	48 8b cb             	mov    %rbx,%rcx
   180023e6c:	49 c1 e3 06          	shl    $0x6,%r11
   180023e70:	41 b8 40 00 00 00    	mov    $0x40,%r8d
   180023e76:	49 83 64 2b 08 00    	andq   $0x0,0x8(%r11,%rbp,1)
   180023e7c:	49 8d 14 2b          	lea    (%r11,%rbp,1),%rdx
   180023e80:	e8 8b 5c fe ff       	call   0x180009b10
   180023e85:	c6 43 18 01          	movb   $0x1,0x18(%rbx)
   180023e89:	48 8b 0d 48 a8 02 00 	mov    0x2a848(%rip),%rcx        # 0x18004e6d8
   180023e90:	eb 13                	jmp    0x180023ea5
   180023e92:	80 79 10 00          	cmpb   $0x0,0x10(%rcx)
   180023e96:	74 0a                	je     0x180023ea2
   180023e98:	48 8b 43 20          	mov    0x20(%rbx),%rax
   180023e9c:	48 39 41 18          	cmp    %rax,0x18(%rcx)
   180023ea0:	77 08                	ja     0x180023eaa
   180023ea2:	48 8b 09             	mov    (%rcx),%rcx
   180023ea5:	48 3b ce             	cmp    %rsi,%rcx
   180023ea8:	75 e8                	jne    0x180023e92
   180023eaa:	48 8d 53 08          	lea    0x8(%rbx),%rdx
   180023eae:	eb 0b                	jmp    0x180023ebb
   180023eb0:	48 8d 50 08          	lea    0x8(%rax),%rdx
   180023eb4:	48 8d 0d f5 96 02 00 	lea    0x296f5(%rip),%rcx        # 0x18004d5b0
   180023ebb:	e8 b0 ec 01 00       	call   0x180042b70
   180023ec0:	48 83 3d e8 cd 02 00 	cmpq   $0x0,0x2cde8(%rip)        # 0x180050cb0
   180023ec7:	00
   180023ec8:	0f 85 67 ff ff ff    	jne    0x180023e35
   180023ece:	48 8b 05 e3 cd 02 00 	mov    0x2cde3(%rip),%rax        # 0x180050cb8
   180023ed5:	48 ff c8             	dec    %rax
   180023ed8:	48 89 05 d9 cd 02 00 	mov    %rax,0x2cdd9(%rip)        # 0x180050cb8
   180023edf:	48 8b 5c 24 30       	mov    0x30(%rsp),%rbx
   180023ee4:	48 8b 6c 24 38       	mov    0x38(%rsp),%rbp
   180023ee9:	48 83 c4 20          	add    $0x20,%rsp
   180023eed:	5e                   	pop    %rsi
   180023eee:	c3                   	ret
   180023eef:	cc                   	int3
   180023ef0:	48 89 5c 24 08       	mov    %rbx,0x8(%rsp)
   180023ef5:	48 89 6c 24 10       	mov    %rbp,0x10(%rsp)
   180023efa:	48 89 74 24 18       	mov    %rsi,0x18(%rsp)
   180023eff:	57                   	push   %rdi
   180023f00:	41 54                	push   %r12
   180023f02:	41 55                	push   %r13
   180023f04:	41 56                	push   %r14
   180023f06:	41 57                	push   %r15
   180023f08:	48 83 ec 20          	sub    $0x20,%rsp
   180023f0c:	48 8b da             	mov    %rdx,%rbx
   180023f0f:	48 8b f9             	mov    %rcx,%rdi
   180023f12:	ba 0c 00 00 00       	mov    $0xc,%edx
   180023f17:	48 8b cb             	mov    %rbx,%rcx
   180023f1a:	4d 63 e0             	movslq %r8d,%r12
   180023f1d:	e8 2e b7 ff ff       	call   0x18001f650
   180023f22:	48 8d 0c 38          	lea    (%rax,%rdi,1),%rcx
   180023f26:	48 8d 69 ff          	lea    -0x1(%rcx),%rbp
   180023f2a:	48 85 db             	test   %rbx,%rbx
   180023f2d:	0f 84 e5 01 00 00    	je     0x180024118
   180023f33:	48 f7 c7 ff 0f 00 00 	test   $0xfff,%rdi
   180023f3a:	0f 85 d8 01 00 00    	jne    0x180024118
   180023f40:	48 3b f9             	cmp    %rcx,%rdi
   180023f43:	0f 87 cf 01 00 00    	ja     0x180024118
   180023f49:	48 3b fd             	cmp    %rbp,%rdi
   180023f4c:	0f 83 b6 01 00 00    	jae    0x180024108
   180023f52:	4c 8d 35 7f a7 02 00 	lea    0x2a77f(%rip),%r14        # 0x18004e6d8
   180023f59:	4c 8d 3d a0 c0 fd ff 	lea    -0x23f60(%rip),%r15        # 0x180000000
   180023f60:	4c 8d 2d 79 da 02 00 	lea    0x2da79(%rip),%r13        # 0x1800519e0
   180023f67:	48 8b 05 6a a7 02 00 	mov    0x2a76a(%rip),%rax        # 0x18004e6d8
   180023f6e:	49 3b c6             	cmp    %r14,%rax
   180023f71:	0f 84 95 01 00 00    	je     0x18002410c
   180023f77:	48 8d 58 f8          	lea    -0x8(%rax),%rbx
   180023f7b:	48 39 7b 20          	cmp    %rdi,0x20(%rbx)
   180023f7f:	77 06                	ja     0x180023f87
   180023f81:	48 39 7b 28          	cmp    %rdi,0x28(%rbx)
   180023f85:	77 08                	ja     0x180023f8f
   180023f87:	48 8b 00             	mov    (%rax),%rax
   180023f8a:	49 3b c6             	cmp    %r14,%rax
   180023f8d:	75 e8                	jne    0x180023f77
   180023f8f:	49 3b c6             	cmp    %r14,%rax
   180023f92:	0f 84 74 01 00 00    	je     0x18002410c
   180023f98:	48 39 6b 28          	cmp    %rbp,0x28(%rbx)
   180023f9c:	48 8b f5             	mov    %rbp,%rsi
   180023f9f:	48 0f 42 73 28       	cmovb  0x28(%rbx),%rsi
   180023fa4:	33 c9                	xor    %ecx,%ecx
   180023fa6:	83 7b 1c 07          	cmpl   $0x7,0x1c(%rbx)
   180023faa:	0f 94 c1             	sete   %cl
   180023fad:	33 c0                	xor    %eax,%eax
   180023faf:	41 83 fc 07          	cmp    $0x7,%r12d
   180023fb3:	0f 95 c0             	setne  %al
   180023fb6:	33 c8                	xor    %eax,%ecx
   180023fb8:	0f 85 4e 01 00 00    	jne    0x18002410c
   180023fbe:	48 8b ce             	mov    %rsi,%rcx
   180023fc1:	ba 0c 00 00 00       	mov    $0xc,%edx
   180023fc6:	48 2b cf             	sub    %rdi,%rcx
   180023fc9:	48 ff c1             	inc    %rcx
   180023fcc:	e8 77 b6 ff ff       	call   0x18001f648
   180023fd1:	48 63 4b 1c          	movslq 0x1c(%rbx),%rcx
   180023fd5:	4c 8b d8             	mov    %rax,%r11
   180023fd8:	85 c9                	test   %ecx,%ecx
   180023fda:	78 37                	js     0x180024013
   180023fdc:	83 f9 0e             	cmp    $0xe,%ecx
   180023fdf:	7d 32                	jge    0x180024013
   180023fe1:	48 8d 14 49          	lea    (%rcx,%rcx,2),%rdx
   180023fe5:	48 03 d2             	add    %rdx,%rdx
   180023fe8:	49 29 84 d7 d0 d5 04 	sub    %rax,0x4d5d0(%r15,%rdx,8)
   180023fef:	00
   180023ff0:	48 63 43 1c          	movslq 0x1c(%rbx),%rax
   180023ff4:	48 8d 14 40          	lea    (%rax,%rax,2),%rdx
   180023ff8:	48 03 d2             	add    %rdx,%rdx
   180023ffb:	49 8b 8c d7 e0 d5 04 	mov    0x4d5e0(%r15,%rdx,8),%rcx
   180024002:	00
   180024003:	41 8b 84 d7 d0 d5 04 	mov    0x4d5d0(%r15,%rdx,8),%eax
   18002400a:	00
   18002400b:	41 89 84 cf a4 d8 04 	mov    %eax,0x4d8a4(%r15,%rcx,8)
   180024012:	00
   180024013:	41 83 fc 0d          	cmp    $0xd,%r12d
   180024017:	77 27                	ja     0x180024040
   180024019:	4b 8d 14 64          	lea    (%r12,%r12,2),%rdx
   18002401d:	48 03 d2             	add    %rdx,%rdx
   180024020:	4d 01 9c d7 d0 d5 04 	add    %r11,0x4d5d0(%r15,%rdx,8)
   180024027:	00
   180024028:	49 8b 8c d7 e0 d5 04 	mov    0x4d5e0(%r15,%rdx,8),%rcx
   18002402f:	00
   180024030:	41 8b 84 d7 d0 d5 04 	mov    0x4d5d0(%r15,%rdx,8),%eax
   180024037:	00
   180024038:	41 89 84 cf a4 d8 04 	mov    %eax,0x4d8a4(%r15,%rcx,8)
   18002403f:	00
   180024040:	48 39 7b 20          	cmp    %rdi,0x20(%rbx)
   180024044:	75 0a                	jne    0x180024050
   180024046:	48 8d 46 01          	lea    0x1(%rsi),%rax
   18002404a:	48 89 43 20          	mov    %rax,0x20(%rbx)
   18002404e:	eb 75                	jmp    0x1800240c5
   180024050:	48 39 73 28          	cmp    %rsi,0x28(%rbx)
   180024054:	75 0a                	jne    0x180024060
   180024056:	48 8d 47 ff          	lea    -0x1(%rdi),%rax
   18002405a:	48 89 43 28          	mov    %rax,0x28(%rbx)
   18002405e:	eb 65                	jmp    0x1800240c5
   180024060:	48 8b 0d 49 cc 02 00 	mov    0x2cc49(%rip),%rcx        # 0x180050cb0
   180024067:	48 c1 e1 06          	shl    $0x6,%rcx
   18002406b:	4a c7 04 29 6d 6d 61 	movq   $0x70616d6d,(%rcx,%r13,1)
   180024072:	70
   180024073:	42 c6 44 29 18 00    	movb   $0x0,0x18(%rcx,%r13,1)
   180024079:	8b 43 1c             	mov    0x1c(%rbx),%eax
   18002407c:	42 89 44 29 1c       	mov    %eax,0x1c(%rcx,%r13,1)
   180024081:	48 8d 46 01          	lea    0x1(%rsi),%rax
   180024085:	4a 89 44 29 20       	mov    %rax,0x20(%rcx,%r13,1)
   18002408a:	48 8b 43 28          	mov    0x28(%rbx),%rax
   18002408e:	4a 89 44 29 28       	mov    %rax,0x28(%rcx,%r13,1)
   180024093:	48 8b 43 38          	mov    0x38(%rbx),%rax
   180024097:	4a 89 44 29 38       	mov    %rax,0x38(%rcx,%r13,1)
   18002409c:	48 8d 47 ff          	lea    -0x1(%rdi),%rax
   1800240a0:	49 8b ce             	mov    %r14,%rcx
   1800240a3:	48 89 43 28          	mov    %rax,0x28(%rbx)
   1800240a7:	48 8b 1d 02 cc 02 00 	mov    0x2cc02(%rip),%rbx        # 0x180050cb0
   1800240ae:	48 c1 e3 06          	shl    $0x6,%rbx
   1800240b2:	49 03 dd             	add    %r13,%rbx
   1800240b5:	48 8d 53 08          	lea    0x8(%rbx),%rdx
   1800240b9:	e8 b2 ea 01 00       	call   0x180042b70
   1800240be:	48 ff 05 eb cb 02 00 	incq   0x2cbeb(%rip)        # 0x180050cb0
   1800240c5:	48 8b 43 28          	mov    0x28(%rbx),%rax
   1800240c9:	4c 8b 6b 38          	mov    0x38(%rbx),%r13
   1800240cd:	48 ff c0             	inc    %rax
   1800240d0:	48 39 43 20          	cmp    %rax,0x20(%rbx)
   1800240d4:	75 08                	jne    0x1800240de
   1800240d6:	48 8b cb             	mov    %rbx,%rcx
   1800240d9:	e8 3e f5 ff ff       	call   0x18002361c
   1800240de:	4d 8b cd             	mov    %r13,%r9
   1800240e1:	4c 8b c6             	mov    %rsi,%r8
   1800240e4:	48 8b d7             	mov    %rdi,%rdx
   1800240e7:	41 8b cc             	mov    %r12d,%ecx
   1800240ea:	e8 d5 f9 ff ff       	call   0x180023ac4
   1800240ef:	e8 fc fc ff ff       	call   0x180023df0
   1800240f4:	48 8d 7e 01          	lea    0x1(%rsi),%rdi
   1800240f8:	4c 8d 2d e1 d8 02 00 	lea    0x2d8e1(%rip),%r13        # 0x1800519e0
   1800240ff:	48 3b fd             	cmp    %rbp,%rdi
   180024102:	0f 82 5f fe ff ff    	jb     0x180023f67
   180024108:	33 c0                	xor    %eax,%eax
   18002410a:	eb 16                	jmp    0x180024122
   18002410c:	48 b8 0e 00 00 00 00 	movabs $0x800000000000000e,%rax
   180024113:	00 00 80
   180024116:	eb 0a                	jmp    0x180024122
   180024118:	48 b8 02 00 00 00 00 	movabs $0x8000000000000002,%rax
   18002411f:	00 00 80
   180024122:	48 8b 5c 24 50       	mov    0x50(%rsp),%rbx
   180024127:	48 8b 6c 24 58       	mov    0x58(%rsp),%rbp
   18002412c:	48 8b 74 24 60       	mov    0x60(%rsp),%rsi
   180024131:	48 83 c4 20          	add    $0x20,%rsp
   180024135:	41 5f                	pop    %r15
   180024137:	41 5e                	pop    %r14
   180024139:	41 5d                	pop    %r13
   18002413b:	41 5c                	pop    %r12
   18002413d:	5f                   	pop    %rdi
   18002413e:	c3                   	ret
   18002413f:	cc                   	int3
   180024140:	48 89 5c 24 08       	mov    %rbx,0x8(%rsp)
   180024145:	48 89 6c 24 10       	mov    %rbp,0x10(%rsp)
   18002414a:	48 89 74 24 18       	mov    %rsi,0x18(%rsp)
   18002414f:	57                   	push   %rdi
   180024150:	41 54                	push   %r12
   180024152:	41 55                	push   %r13
   180024154:	48 83 ec 20          	sub    $0x20,%rsp
   180024158:	49 8b f9             	mov    %r9,%rdi
   18002415b:	4d 8b e0             	mov    %r8,%r12
   18002415e:	8b da                	mov    %edx,%ebx
   180024160:	8b f1                	mov    %ecx,%esi
   180024162:	85 c9                	test   %ecx,%ecx
   180024164:	0f 88 c8 00 00 00    	js     0x180024232
   18002416a:	83 f9 03             	cmp    $0x3,%ecx
   18002416d:	0f 83 bf 00 00 00    	jae    0x180024232
   180024173:	83 fa 0e             	cmp    $0xe,%edx
   180024176:	7c 0c                	jl     0x180024184
   180024178:	81 fa ff ff ff 7f    	cmp    $0x7fffffff,%edx
   18002417e:	0f 8e ae 00 00 00    	jle    0x180024232
   180024184:	83 fa 07             	cmp    $0x7,%edx
   180024187:	0f 84 a5 00 00 00    	je     0x180024232
   18002418d:	4d 85 c9             	test   %r9,%r9
   180024190:	0f 84 9c 00 00 00    	je     0x180024232
   180024196:	83 f9 02             	cmp    $0x2,%ecx
   180024199:	75 1a                	jne    0x1800241b5
   18002419b:	41 8b 01             	mov    (%r9),%eax
   18002419e:	48 a9 ff 0f 00 00    	test   $0xfff,%rax
   1800241a4:	74 0f                	je     0x1800241b5
   1800241a6:	48 b8 0e 00 00 00 00 	movabs $0x800000000000000e,%rax
   1800241ad:	00 00 80
   1800241b0:	e9 87 00 00 00       	jmp    0x18002423c
   1800241b5:	49 8b 29             	mov    (%r9),%rbp
   1800241b8:	83 f9 01             	cmp    $0x1,%ecx
   1800241bb:	48 8d 0d fe a4 02 00 	lea    0x2a4fe(%rip),%rcx        # 0x18004e6c0
   1800241c2:	41 bd ff ff ff ff    	mov    $0xffffffff,%r13d
   1800241c8:	4c 0f 44 ed          	cmove  %rbp,%r13
   1800241cc:	e8 43 09 00 00       	call   0x180024b14
   1800241d1:	83 fe 02             	cmp    $0x2,%esi
   1800241d4:	74 28                	je     0x1800241fe
   1800241d6:	41 b9 00 10 00 00    	mov    $0x1000,%r9d
   1800241dc:	44 8b c3             	mov    %ebx,%r8d
   1800241df:	49 8b d4             	mov    %r12,%rdx
   1800241e2:	49 8b cd             	mov    %r13,%rcx
   1800241e5:	e8 9a fa ff ff       	call   0x180023c84
   1800241ea:	48 8b e8             	mov    %rax,%rbp
   1800241ed:	48 85 c0             	test   %rax,%rax
   1800241f0:	75 0c                	jne    0x1800241fe
   1800241f2:	48 bb 09 00 00 00 00 	movabs $0x8000000000000009,%rbx
   1800241f9:	00 00 80
   1800241fc:	eb 11                	jmp    0x18002420f
   1800241fe:	44 8b c3             	mov    %ebx,%r8d
   180024201:	49 8b d4             	mov    %r12,%rdx
   180024204:	48 8b cd             	mov    %rbp,%rcx
   180024207:	e8 e4 fc ff ff       	call   0x180023ef0
   18002420c:	48 8b d8             	mov    %rax,%rbx
   18002420f:	48 8d 0d aa a4 02 00 	lea    0x2a4aa(%rip),%rcx        # 0x18004e6c0
   180024216:	e8 01 09 00 00       	call   0x180024b1c
   18002421b:	48 b8 00 00 00 00 00 	movabs $0x8000000000000000,%rax
   180024222:	00 00 80
   180024225:	48 85 d8             	test   %rbx,%rax
   180024228:	75 03                	jne    0x18002422d
   18002422a:	48 89 2f             	mov    %rbp,(%rdi)
   18002422d:	48 8b c3             	mov    %rbx,%rax
   180024230:	eb 0a                	jmp    0x18002423c
   180024232:	48 b8 02 00 00 00 00 	movabs $0x8000000000000002,%rax
   180024239:	00 00 80
   18002423c:	48 8b 5c 24 40       	mov    0x40(%rsp),%rbx
   180024241:	48 8b 6c 24 48       	mov    0x48(%rsp),%rbp
   180024246:	48 8b 74 24 50       	mov    0x50(%rsp),%rsi
   18002424b:	48 83 c4 20          	add    $0x20,%rsp
   18002424f:	41 5d                	pop    %r13
   180024251:	41 5c                	pop    %r12
   180024253:	5f                   	pop    %rdi
   180024254:	c3                   	ret
   180024255:	cc                   	int3
   180024256:	cc                   	int3
   180024257:	cc                   	int3
   180024258:	48 89 5c 24 08       	mov    %rbx,0x8(%rsp)
   18002425d:	57                   	push   %rdi
   18002425e:	48 83 ec 20          	sub    $0x20,%rsp
   180024262:	48 8b d9             	mov    %rcx,%rbx
   180024265:	48 8d 0d 54 a4 02 00 	lea    0x2a454(%rip),%rcx        # 0x18004e6c0
   18002426c:	48 8b fa             	mov    %rdx,%rdi
   18002426f:	e8 a0 08 00 00       	call   0x180024b14
   180024274:	4c 8b 1d 5d a4 02 00 	mov    0x2a45d(%rip),%r11        # 0x18004e6d8
   18002427b:	48 8d 05 56 a4 02 00 	lea    0x2a456(%rip),%rax        # 0x18004e6d8
   180024282:	4c 3b d8             	cmp    %rax,%r11
   180024285:	74 44                	je     0x1800242cb
   180024287:	49 39 5b 18          	cmp    %rbx,0x18(%r11)
   18002428b:	77 06                	ja     0x180024293
   18002428d:	49 39 5b 20          	cmp    %rbx,0x20(%r11)
   180024291:	77 08                	ja     0x18002429b
   180024293:	4d 8b 1b             	mov    (%r11),%r11
   180024296:	4c 3b d8             	cmp    %rax,%r11
   180024299:	75 ec                	jne    0x180024287
   18002429b:	4c 3b d8             	cmp    %rax,%r11
   18002429e:	74 2b                	je     0x1800242cb
   1800242a0:	48 f7 c3 ff 0f 00 00 	test   $0xfff,%rbx
   1800242a7:	74 0c                	je     0x1800242b5
   1800242a9:	48 bb 02 00 00 00 00 	movabs $0x8000000000000002,%rbx
   1800242b0:	00 00 80
   1800242b3:	eb 20                	jmp    0x1800242d5
   1800242b5:	41 b8 07 00 00 00    	mov    $0x7,%r8d
   1800242bb:	48 8b d7             	mov    %rdi,%rdx
   1800242be:	48 8b cb             	mov    %rbx,%rcx
   1800242c1:	e8 2a fc ff ff       	call   0x180023ef0
   1800242c6:	48 8b d8             	mov    %rax,%rbx
   1800242c9:	eb 0a                	jmp    0x1800242d5
   1800242cb:	48 bb 0e 00 00 00 00 	movabs $0x800000000000000e,%rbx
   1800242d2:	00 00 80
   1800242d5:	48 8d 0d e4 a3 02 00 	lea    0x2a3e4(%rip),%rcx        # 0x18004e6c0
   1800242dc:	e8 3b 08 00 00       	call   0x180024b1c
   1800242e1:	48 8b c3             	mov    %rbx,%rax
   1800242e4:	48 8b 5c 24 30       	mov    0x30(%rsp),%rbx
   1800242e9:	48 83 c4 20          	add    $0x20,%rsp
   1800242ed:	5f                   	pop    %rdi
   1800242ee:	c3                   	ret
   1800242ef:	cc                   	int3
   1800242f0:	41 b8 07 00 00 00    	mov    $0x7,%r8d
   1800242f6:	e9 f5 fb ff ff       	jmp    0x180023ef0
   1800242fb:	cc                   	int3
   1800242fc:	48 f7 c2 ff 0f 00 00 	test   $0xfff,%rdx
   180024303:	0f 85 fd 01 00 00    	jne    0x180024506
   180024309:	48 89 5c 24 08       	mov    %rbx,0x8(%rsp)
   18002430e:	48 89 6c 24 10       	mov    %rbp,0x10(%rsp)
   180024313:	48 89 74 24 18       	mov    %rsi,0x18(%rsp)
   180024318:	57                   	push   %rdi
   180024319:	41 55                	push   %r13
   18002431b:	41 57                	push   %r15
   18002431d:	48 83 ec 20          	sub    $0x20,%rsp
   180024321:	48 63 d9             	movslq %ecx,%rbx
   180024324:	49 8b e9             	mov    %r9,%rbp
   180024327:	49 8b f0             	mov    %r8,%rsi
   18002432a:	83 fb 0e             	cmp    $0xe,%ebx
   18002432d:	48 8b fa             	mov    %rdx,%rdi
   180024330:	7c 0c                	jl     0x18002433e
   180024332:	81 fb ff ff ff 7f    	cmp    $0x7fffffff,%ebx
   180024338:	0f 8e b0 01 00 00    	jle    0x1800244ee
   18002433e:	48 8d 0d 7b a3 02 00 	lea    0x2a37b(%rip),%rcx        # 0x18004e6c0
   180024345:	e8 ca 07 00 00       	call   0x180024b14
   18002434a:	ba 0c 00 00 00       	mov    $0xc,%edx
   18002434f:	48 8b ce             	mov    %rsi,%rcx
   180024352:	e8 f9 b2 ff ff       	call   0x18001f650
   180024357:	4c 8b cd             	mov    %rbp,%r9
   18002435a:	48 8b d7             	mov    %rdi,%rdx
   18002435d:	4c 8d 44 38 ff       	lea    -0x1(%rax,%rdi,1),%r8
   180024362:	8b cb                	mov    %ebx,%ecx
   180024364:	e8 5b f7 ff ff       	call   0x180023ac4
   180024369:	48 8d 04 5b          	lea    (%rbx,%rbx,2),%rax
   18002436d:	4c 8d 3d 4c 92 02 00 	lea    0x2924c(%rip),%r15        # 0x18004d5c0
   180024374:	48 03 c0             	add    %rax,%rax
   180024377:	49 01 74 c7 10       	add    %rsi,0x10(%r15,%rax,8)
   18002437c:	e8 6f fa ff ff       	call   0x180023df0
   180024381:	48 8d 0d 38 a3 02 00 	lea    0x2a338(%rip),%rcx        # 0x18004e6c0
   180024388:	e8 8f 07 00 00       	call   0x180024b1c
   18002438d:	80 3d 2c c9 02 00 00 	cmpb   $0x0,0x2c92c(%rip)        # 0x180050cc0
   180024394:	0f 85 54 01 00 00    	jne    0x1800244ee
   18002439a:	8b 15 00 95 02 00    	mov    0x29500(%rip),%edx        # 0x18004d8a0
   1800243a0:	33 f6                	xor    %esi,%esi
   1800243a2:	4c 8d 2d f7 94 02 00 	lea    0x294f7(%rip),%r13        # 0x18004d8a0
   1800243a9:	83 fa 0e             	cmp    $0xe,%edx
   1800243ac:	0f 84 8a 00 00 00    	je     0x18002443c
   1800243b2:	49 8b c5             	mov    %r13,%rax
   1800243b5:	33 db                	xor    %ebx,%ebx
   1800243b7:	48 63 10             	movslq (%rax),%rdx
   1800243ba:	83 fa 0e             	cmp    $0xe,%edx
   1800243bd:	77 64                	ja     0x180024423
   1800243bf:	42 8b 4c 2b 04       	mov    0x4(%rbx,%r13,1),%ecx
   1800243c4:	85 c9                	test   %ecx,%ecx
   1800243c6:	74 5b                	je     0x180024423
   1800243c8:	48 8d 2c 52          	lea    (%rdx,%rdx,2),%rbp
   1800243cc:	4c 8b c1             	mov    %rcx,%r8
   1800243cf:	33 c9                	xor    %ecx,%ecx
   1800243d1:	48 03 ed             	add    %rbp,%rbp
   1800243d4:	49 8d 3c ef          	lea    (%r15,%rbp,8),%rdi
   1800243d8:	4c 8b cf             	mov    %rdi,%r9
   1800243db:	e8 60 fd ff ff       	call   0x180024140
   1800243e0:	48 b9 00 00 00 00 00 	movabs $0x8000000000000000,%rcx
   1800243e7:	00 00 80
   1800243ea:	48 85 c1             	test   %rax,%rcx
   1800243ed:	0f 85 14 01 00 00    	jne    0x180024507
   1800243f3:	42 8b 4c 2b 04       	mov    0x4(%rbx,%r13,1),%ecx
   1800243f8:	48 8b 3f             	mov    (%rdi),%rdi
   1800243fb:	ba 0c 00 00 00       	mov    $0xc,%edx
   180024400:	e8 4b b2 ff ff       	call   0x18001f650
   180024405:	48 8d 4c 38 ff       	lea    -0x1(%rax,%rdi,1),%rcx
   18002440a:	49 89 4c ef 08       	mov    %rcx,0x8(%r15,%rbp,8)
   18002440f:	48 3b 3d 7a 94 02 00 	cmp    0x2947a(%rip),%rdi        # 0x18004d890
   180024416:	73 0b                	jae    0x180024423
   180024418:	48 8d 47 ff          	lea    -0x1(%rdi),%rax
   18002441c:	48 89 05 6d 94 02 00 	mov    %rax,0x2946d(%rip)        # 0x18004d890
   180024423:	48 ff c6             	inc    %rsi
   180024426:	48 8b de             	mov    %rsi,%rbx
   180024429:	48 c1 e3 03          	shl    $0x3,%rbx
   18002442d:	4a 8d 04 2b          	lea    (%rbx,%r13,1),%rax
   180024431:	83 38 0e             	cmpl   $0xe,(%rax)
   180024434:	75 81                	jne    0x1800243b7
   180024436:	8b 15 64 94 02 00    	mov    0x29464(%rip),%edx        # 0x18004d8a0
   18002443c:	33 f6                	xor    %esi,%esi
   18002443e:	83 fa 0e             	cmp    $0xe,%edx
   180024441:	74 52                	je     0x180024495
   180024443:	49 8b c5             	mov    %r13,%rax
   180024446:	33 ff                	xor    %edi,%edi
   180024448:	83 38 0e             	cmpl   $0xe,(%rax)
   18002444b:	77 2f                	ja     0x18002447c
   18002444d:	42 8b 4c 2f 04       	mov    0x4(%rdi,%r13,1),%ecx
   180024452:	85 c9                	test   %ecx,%ecx
   180024454:	74 26                	je     0x18002447c
   180024456:	48 63 00             	movslq (%rax),%rax
   180024459:	48 8b d1             	mov    %rcx,%rdx
   18002445c:	48 8d 1c 40          	lea    (%rax,%rax,2),%rbx
   180024460:	48 03 db             	add    %rbx,%rbx
   180024463:	49 8b 0c df          	mov    (%r15,%rbx,8),%rcx
   180024467:	e8 ec fd ff ff       	call   0x180024258
   18002446c:	46 8b 5c 2f 04       	mov    0x4(%rdi,%r13,1),%r11d
   180024471:	42 83 64 2f 04 00    	andl   $0x0,0x4(%rdi,%r13,1)
   180024477:	4d 89 5c df 18       	mov    %r11,0x18(%r15,%rbx,8)
   18002447c:	48 ff c6             	inc    %rsi
   18002447f:	48 8b fe             	mov    %rsi,%rdi
   180024482:	48 c1 e7 03          	shl    $0x3,%rdi
   180024486:	4a 8d 04 2f          	lea    (%rdi,%r13,1),%rax
   18002448a:	83 38 0e             	cmpl   $0xe,(%rax)
   18002448d:	75 bc                	jne    0x18002444b
   18002448f:	8b 15 0b 94 02 00    	mov    0x2940b(%rip),%edx        # 0x18004d8a0
   180024495:	45 33 c9             	xor    %r9d,%r9d
   180024498:	48 8d 0d 29 91 02 00 	lea    0x29129(%rip),%rcx        # 0x18004d5c8
   18002449f:	bd ff ff ff ff       	mov    $0xffffffff,%ebp
   1800244a4:	33 c0                	xor    %eax,%eax
   1800244a6:	83 fa 0e             	cmp    $0xe,%edx
   1800244a9:	74 1a                	je     0x1800244c5
   1800244ab:	4d 8b c5             	mov    %r13,%r8
   1800244ae:	45 3b 08             	cmp    (%r8),%r9d
   1800244b1:	75 04                	jne    0x1800244b7
   1800244b3:	48 89 41 18          	mov    %rax,0x18(%rcx)
   1800244b7:	48 ff c0             	inc    %rax
   1800244ba:	4d 8d 44 c5 00       	lea    0x0(%r13,%rax,8),%r8
   1800244bf:	41 83 38 0e          	cmpl   $0xe,(%r8)
   1800244c3:	75 e9                	jne    0x1800244ae
   1800244c5:	48 39 29             	cmp    %rbp,(%rcx)
   1800244c8:	75 0a                	jne    0x1800244d4
   1800244ca:	48 8b 05 bf 93 02 00 	mov    0x293bf(%rip),%rax        # 0x18004d890
   1800244d1:	48 89 01             	mov    %rax,(%rcx)
   1800244d4:	48 8d 05 8d 93 02 00 	lea    0x2938d(%rip),%rax        # 0x18004d868
   1800244db:	48 83 c1 30          	add    $0x30,%rcx
   1800244df:	41 ff c1             	inc    %r9d
   1800244e2:	48 3b c8             	cmp    %rax,%rcx
   1800244e5:	7c bd                	jl     0x1800244a4
   1800244e7:	c6 05 d2 c7 02 00 01 	movb   $0x1,0x2c7d2(%rip)        # 0x180050cc0
   1800244ee:	48 8b 5c 24 40       	mov    0x40(%rsp),%rbx
   1800244f3:	48 8b 6c 24 48       	mov    0x48(%rsp),%rbp
   1800244f8:	48 8b 74 24 50       	mov    0x50(%rsp),%rsi
   1800244fd:	48 83 c4 20          	add    $0x20,%rsp
   180024501:	41 5f                	pop    %r15
   180024503:	41 5d                	pop    %r13
   180024505:	5f                   	pop    %rdi
   180024506:	c3                   	ret
   180024507:	33 ff                	xor    %edi,%edi
   180024509:	48 85 f6             	test   %rsi,%rsi
   18002450c:	74 e0                	je     0x1800244ee
   18002450e:	bd ff ff ff ff       	mov    $0xffffffff,%ebp
   180024513:	41 83 7c fd 00 0e    	cmpl   $0xe,0x0(%r13,%rdi,8)
   180024519:	77 2b                	ja     0x180024546
   18002451b:	41 8b 4c fd 04       	mov    0x4(%r13,%rdi,8),%ecx
   180024520:	85 c9                	test   %ecx,%ecx
   180024522:	74 22                	je     0x180024546
   180024524:	49 63 44 fd 00       	movslq 0x0(%r13,%rdi,8),%rax
   180024529:	48 8b d1             	mov    %rcx,%rdx
   18002452c:	48 8d 1c 40          	lea    (%rax,%rax,2),%rbx
   180024530:	48 03 db             	add    %rbx,%rbx
   180024533:	49 8b 0c df          	mov    (%r15,%rbx,8),%rcx
   180024537:	e8 1c fd ff ff       	call   0x180024258
   18002453c:	49 83 24 df 00       	andq   $0x0,(%r15,%rbx,8)
   180024541:	49 89 6c df 08       	mov    %rbp,0x8(%r15,%rbx,8)
   180024546:	48 ff c7             	inc    %rdi
   180024549:	48 3b fe             	cmp    %rsi,%rdi
   18002454c:	72 c5                	jb     0x180024513
   18002454e:	eb 9e                	jmp    0x1800244ee
   180024550:	48 89 5c 24 08       	mov    %rbx,0x8(%rsp)
   180024555:	57                   	push   %rdi
   180024556:	48 83 ec 20          	sub    $0x20,%rsp
   18002455a:	48 8b 1d 1f a1 02 00 	mov    0x2a11f(%rip),%rbx        # 0x18004e680
   180024561:	48 8b f9             	mov    %rcx,%rdi
   180024564:	48 83 f9 1f          	cmp    $0x1f,%rcx
   180024568:	72 18                	jb     0x180024582
   18002456a:	48 83 fb 1f          	cmp    $0x1f,%rbx
   18002456e:	73 12                	jae    0x180024582
   180024570:	48 8b 15 e9 c4 02 00 	mov    0x2c4e9(%rip),%rdx        # 0x180050a60
   180024577:	48 85 d2             	test   %rdx,%rdx
   18002457a:	74 06                	je     0x180024582
   18002457c:	48 8b ca             	mov    %rdx,%rcx
   18002457f:	ff 52 10             	call   *0x10(%rdx)
   180024582:	48 8b c3             	mov    %rbx,%rax
   180024585:	48 8b 5c 24 30       	mov    0x30(%rsp),%rbx
   18002458a:	48 89 3d ef a0 02 00 	mov    %rdi,0x2a0ef(%rip)        # 0x18004e680
   180024591:	48 83 c4 20          	add    $0x20,%rsp
   180024595:	5f                   	pop    %rdi
   180024596:	c3                   	ret
   180024597:	cc                   	int3
   180024598:	48 89 5c 24 08       	mov    %rbx,0x8(%rsp)
   18002459d:	57                   	push   %rdi
   18002459e:	48 83 ec 20          	sub    $0x20,%rsp
   1800245a2:	b8 fe ff ff ff       	mov    $0xfffffffe,%eax
   1800245a7:	48 8b d9             	mov    %rcx,%rbx
   1800245aa:	d3 e0                	shl    %cl,%eax
   1800245ac:	48 63 f8             	movslq %eax,%rdi
   1800245af:	eb 3c                	jmp    0x1800245ed
   1800245b1:	b9 1f 00 00 00       	mov    $0x1f,%ecx
   1800245b6:	48 0f a3 c8          	bt     %rcx,%rax
   1800245ba:	72 06                	jb     0x1800245c2
   1800245bc:	48 83 e9 01          	sub    $0x1,%rcx
   1800245c0:	75 f4                	jne    0x1800245b6
   1800245c2:	48 89 0d b7 a0 02 00 	mov    %rcx,0x2a0b7(%rip)        # 0x18004e680
   1800245c9:	48 83 f9 1f          	cmp    $0x1f,%rcx
   1800245cd:	73 19                	jae    0x1800245e8
   1800245cf:	48 8b 05 8a c4 02 00 	mov    0x2c48a(%rip),%rax        # 0x180050a60
   1800245d6:	48 85 c0             	test   %rax,%rax
   1800245d9:	74 0d                	je     0x1800245e8
   1800245db:	48 8b c8             	mov    %rax,%rcx
   1800245de:	ff 50 08             	call   *0x8(%rax)
   1800245e1:	48 8b 0d 98 a0 02 00 	mov    0x2a098(%rip),%rcx        # 0x18004e680
   1800245e8:	e8 93 a9 ff ff       	call   0x18001ef80
   1800245ed:	48 8b 05 5c c8 02 00 	mov    0x2c85c(%rip),%rax        # 0x180050e50
   1800245f4:	48 85 f8             	test   %rdi,%rax
   1800245f7:	75 b8                	jne    0x1800245b1
   1800245f9:	48 89 1d 80 a0 02 00 	mov    %rbx,0x2a080(%rip)        # 0x18004e680
   180024600:	48 83 fb 1f          	cmp    $0x1f,%rbx
   180024604:	73 12                	jae    0x180024618
   180024606:	48 8b 05 53 c4 02 00 	mov    0x2c453(%rip),%rax        # 0x180050a60
   18002460d:	48 85 c0             	test   %rax,%rax
   180024610:	74 06                	je     0x180024618
   180024612:	48 8b c8             	mov    %rax,%rcx
   180024615:	ff 50 08             	call   *0x8(%rax)
   180024618:	48 8b 5c 24 30       	mov    0x30(%rsp),%rbx
   18002461d:	48 83 c4 20          	add    $0x20,%rsp
   180024621:	5f                   	pop    %rdi
   180024622:	c3                   	ret
   180024623:	cc                   	int3
   180024624:	44 0f b7 c1          	movzwl %cx,%r8d
   180024628:	48 8b c2             	mov    %rdx,%rax
   18002462b:	48 85 d2             	test   %rdx,%rdx
   18002462e:	75 02                	jne    0x180024632
   180024630:	f3 c3                	repz ret
   180024632:	0f b7 0a             	movzwl (%rdx),%ecx
   180024635:	41 b9 ff ff 00 00    	mov    $0xffff,%r9d
   18002463b:	eb 10                	jmp    0x18002464d
   18002463d:	66 41 3b c8          	cmp    %r8w,%cx
   180024641:	74 10                	je     0x180024653
   180024643:	0f b7 48 02          	movzwl 0x2(%rax),%ecx
   180024647:	48 03 c1             	add    %rcx,%rax
   18002464a:	66 8b 08             	mov    (%rax),%cx
   18002464d:	66 41 3b c9          	cmp    %r9w,%cx
   180024651:	75 ea                	jne    0x18002463d
   180024653:	66 44 39 08          	cmp    %r9w,(%rax)
   180024657:	48 0f 44 c2          	cmove  %rdx,%rax
   18002465b:	c3                   	ret
   18002465c:	40 53                	rex push %rbx
   18002465e:	48 83 ec 20          	sub    $0x20,%rsp
   180024662:	bb 06 00 00 00       	mov    $0x6,%ebx
   180024667:	4c 8b da             	mov    %rdx,%r11
   18002466a:	48 8b d1             	mov    %rcx,%rdx
   18002466d:	8b cb                	mov    %ebx,%ecx
   18002466f:	4d 8b d0             	mov    %r8,%r10
   180024672:	e8 ad ff ff ff       	call   0x180024624
   180024677:	66 39 18             	cmp    %bx,(%rax)
   18002467a:	74 0c                	je     0x180024688
   18002467c:	48 b8 0e 00 00 00 00 	movabs $0x800000000000000e,%rax
   180024683:	00 00 80
   180024686:	eb 0e                	jmp    0x180024696
   180024688:	8a 48 08             	mov    0x8(%rax),%cl
   18002468b:	41 88 0b             	mov    %cl,(%r11)
   18002468e:	8a 48 09             	mov    0x9(%rax),%cl
   180024691:	33 c0                	xor    %eax,%eax
   180024693:	41 88 0a             	mov    %cl,(%r10)
   180024696:	48 83 c4 20          	add    $0x20,%rsp
   18002469a:	5b                   	pop    %rbx
   18002469b:	c3                   	ret
   18002469c:	48 8b c4             	mov    %rsp,%rax
   18002469f:	48 89 58 08          	mov    %rbx,0x8(%rax)
   1800246a3:	48 89 68 10          	mov    %rbp,0x10(%rax)
   1800246a7:	48 89 70 18          	mov    %rsi,0x18(%rax)
   1800246ab:	48 89 78 20          	mov    %rdi,0x20(%rax)
   1800246af:	41 54                	push   %r12
   1800246b1:	48 83 ec 20          	sub    $0x20,%rsp
   1800246b5:	48 8b ea             	mov    %rdx,%rbp
   1800246b8:	48 8b d1             	mov    %rcx,%rdx
   1800246bb:	b9 02 00 00 00       	mov    $0x2,%ecx
   1800246c0:	49 8b f9             	mov    %r9,%rdi
   1800246c3:	49 8b f0             	mov    %r8,%rsi
   1800246c6:	e8 59 ff ff ff       	call   0x180024624
   1800246cb:	41 bc ff ff 00 00    	mov    $0xffff,%r12d
   1800246d1:	48 8b d8             	mov    %rax,%rbx
   1800246d4:	66 44 39 20          	cmp    %r12w,(%rax)
   1800246d8:	74 5a                	je     0x180024734
   1800246da:	48 8d 4b 08          	lea    0x8(%rbx),%rcx
   1800246de:	48 8d 15 33 92 02 00 	lea    0x29233(%rip),%rdx        # 0x18004d918
   1800246e5:	e8 be c9 00 00       	call   0x1800310a8
   1800246ea:	84 c0                	test   %al,%al
   1800246ec:	75 1a                	jne    0x180024708
   1800246ee:	0f b7 53 02          	movzwl 0x2(%rbx),%edx
   1800246f2:	b9 02 00 00 00       	mov    $0x2,%ecx
   1800246f7:	48 03 d3             	add    %rbx,%rdx
   1800246fa:	e8 25 ff ff ff       	call   0x180024624
   1800246ff:	48 8b d8             	mov    %rax,%rbx
   180024702:	66 44 39 20          	cmp    %r12w,(%rax)
   180024706:	75 d2                	jne    0x1800246da
   180024708:	66 44 39 23          	cmp    %r12w,(%rbx)
   18002470c:	74 26                	je     0x180024734
   18002470e:	48 8b 43 18          	mov    0x18(%rbx),%rax
   180024712:	48 83 c3 30          	add    $0x30,%rbx
   180024716:	48 89 45 00          	mov    %rax,0x0(%rbp)
   18002471a:	48 8b 43 f0          	mov    -0x10(%rbx),%rax
   18002471e:	48 89 06             	mov    %rax,(%rsi)
   180024721:	48 8b 43 10          	mov    0x10(%rbx),%rax
   180024725:	48 89 07             	mov    %rax,(%rdi)
   180024728:	48 8b 44 24 50       	mov    0x50(%rsp),%rax
   18002472d:	48 89 18             	mov    %rbx,(%rax)
   180024730:	33 c0                	xor    %eax,%eax
   180024732:	eb 0a                	jmp    0x18002473e
   180024734:	48 b8 0e 00 00 00 00 	movabs $0x800000000000000e,%rax
   18002473b:	00 00 80
   18002473e:	48 8b 5c 24 30       	mov    0x30(%rsp),%rbx
   180024743:	48 8b 6c 24 38       	mov    0x38(%rsp),%rbp
   180024748:	48 8b 74 24 40       	mov    0x40(%rsp),%rsi
   18002474d:	48 8b 7c 24 48       	mov    0x48(%rsp),%rdi
   180024752:	48 83 c4 20          	add    $0x20,%rsp
   180024756:	41 5c                	pop    %r12
   180024758:	c3                   	ret
   180024759:	cc                   	int3
   18002475a:	cc                   	int3
   18002475b:	cc                   	int3
   18002475c:	48 89 5c 24 08       	mov    %rbx,0x8(%rsp)
   180024761:	57                   	push   %rdi
   180024762:	48 83 ec 20          	sub    $0x20,%rsp
   180024766:	48 8b da             	mov    %rdx,%rbx
   180024769:	48 8b 11             	mov    (%rcx),%rdx
   18002476c:	b8 ff ff 00 00       	mov    $0xffff,%eax
   180024771:	4d 8b d8             	mov    %r8,%r11
   180024774:	4c 8b d1             	mov    %rcx,%r10
   180024777:	66 39 02             	cmp    %ax,(%rdx)
   18002477a:	75 0c                	jne    0x180024788
   18002477c:	48 b8 0e 00 00 00 00 	movabs $0x800000000000000e,%rax
   180024783:	00 00 80
   180024786:	eb 2b                	jmp    0x1800247b3
   180024788:	bf 05 00 00 00       	mov    $0x5,%edi
   18002478d:	8b cf                	mov    %edi,%ecx
   18002478f:	e8 90 fe ff ff       	call   0x180024624
   180024794:	66 39 38             	cmp    %di,(%rax)
   180024797:	75 e3                	jne    0x18002477c
   180024799:	48 8b 48 08          	mov    0x8(%rax),%rcx
   18002479d:	48 89 0b             	mov    %rcx,(%rbx)
   1800247a0:	48 8b 48 10          	mov    0x10(%rax),%rcx
   1800247a4:	49 89 0b             	mov    %rcx,(%r11)
   1800247a7:	0f b7 48 02          	movzwl 0x2(%rax),%ecx
   1800247ab:	48 03 c8             	add    %rax,%rcx
   1800247ae:	33 c0                	xor    %eax,%eax
   1800247b0:	49 89 0a             	mov    %rcx,(%r10)
   1800247b3:	48 8b 5c 24 30       	mov    0x30(%rsp),%rbx
   1800247b8:	48 83 c4 20          	add    $0x20,%rsp
   1800247bc:	5f                   	pop    %rdi
   1800247bd:	c3                   	ret
   1800247be:	cc                   	int3
   1800247bf:	cc                   	int3
   1800247c0:	48 89 5c 24 08       	mov    %rbx,0x8(%rsp)
   1800247c5:	48 89 6c 24 10       	mov    %rbp,0x10(%rsp)
   1800247ca:	48 89 74 24 18       	mov    %rsi,0x18(%rsp)
   1800247cf:	57                   	push   %rdi
   1800247d0:	48 83 ec 20          	sub    $0x20,%rsp
   1800247d4:	48 8b f2             	mov    %rdx,%rsi
   1800247d7:	48 8b 11             	mov    (%rcx),%rdx
   1800247da:	b8 ff ff 00 00       	mov    $0xffff,%eax
   1800247df:	4d 8b d1             	mov    %r9,%r10
   1800247e2:	4d 8b d8             	mov    %r8,%r11
   1800247e5:	48 8b f9             	mov    %rcx,%rdi
   1800247e8:	66 39 02             	cmp    %ax,(%rdx)
   1800247eb:	75 0c                	jne    0x1800247f9
   1800247ed:	48 b8 0e 00 00 00 00 	movabs $0x800000000000000e,%rax
   1800247f4:	00 00 80
   1800247f7:	eb 3f                	jmp    0x180024838
   1800247f9:	bd 09 00 00 00       	mov    $0x9,%ebp
   1800247fe:	8b cd                	mov    %ebp,%ecx
   180024800:	e8 1f fe ff ff       	call   0x180024624
   180024805:	48 8b d8             	mov    %rax,%rbx
   180024808:	66 39 28             	cmp    %bp,(%rax)
   18002480b:	75 e0                	jne    0x1800247ed
   18002480d:	48 8b 40 08          	mov    0x8(%rax),%rax
   180024811:	48 8d 53 28          	lea    0x28(%rbx),%rdx
   180024815:	44 8d 45 07          	lea    0x7(%rbp),%r8d
   180024819:	48 89 06             	mov    %rax,(%rsi)
   18002481c:	48 8b 43 10          	mov    0x10(%rbx),%rax
   180024820:	49 8b ca             	mov    %r10,%rcx
   180024823:	49 89 03             	mov    %rax,(%r11)
   180024826:	e8 fd ad ff ff       	call   0x18001f628
   18002482b:	44 0f b7 5b 02       	movzwl 0x2(%rbx),%r11d
   180024830:	4c 03 db             	add    %rbx,%r11
   180024833:	33 c0                	xor    %eax,%eax
   180024835:	4c 89 1f             	mov    %r11,(%rdi)
   180024838:	48 8b 5c 24 30       	mov    0x30(%rsp),%rbx
   18002483d:	48 8b 6c 24 38       	mov    0x38(%rsp),%rbp
   180024842:	48 8b 74 24 40       	mov    0x40(%rsp),%rsi
   180024847:	48 83 c4 20          	add    $0x20,%rsp
   18002484b:	5f                   	pop    %rdi
   18002484c:	c3                   	ret
   18002484d:	cc                   	int3
   18002484e:	cc                   	int3
   18002484f:	cc                   	int3
   180024850:	48 89 5c 24 08       	mov    %rbx,0x8(%rsp)
   180024855:	48 89 6c 24 10       	mov    %rbp,0x10(%rsp)
   18002485a:	48 89 74 24 18       	mov    %rsi,0x18(%rsp)
   18002485f:	57                   	push   %rdi
   180024860:	41 54                	push   %r12
   180024862:	41 55                	push   %r13
   180024864:	41 56                	push   %r14
   180024866:	41 57                	push   %r15
   180024868:	48 83 ec 20          	sub    $0x20,%rsp
   18002486c:	49 8b f1             	mov    %r9,%rsi
   18002486f:	49 8b e8             	mov    %r8,%rbp
   180024872:	4c 8b ea             	mov    %rdx,%r13
   180024875:	4c 8b e1             	mov    %rcx,%r12
   180024878:	4d 85 c0             	test   %r8,%r8
   18002487b:	75 0c                	jne    0x180024889
   18002487d:	48 b8 02 00 00 00 00 	movabs $0x8000000000000002,%rax
   180024884:	00 00 80
   180024887:	eb 7e                	jmp    0x180024907
   180024889:	49 be 0e 00 00 00 00 	movabs $0x800000000000000e,%r14
   180024890:	00 00 80
   180024893:	41 bf 04 00 00 00    	mov    $0x4,%r15d
   180024899:	49 8b fe             	mov    %r14,%rdi
   18002489c:	49 8b 14 24          	mov    (%r12),%rdx
   1800248a0:	b8 ff ff 00 00       	mov    $0xffff,%eax
   1800248a5:	66 39 02             	cmp    %ax,(%rdx)
   1800248a8:	74 5a                	je     0x180024904
   1800248aa:	41 8b cf             	mov    %r15d,%ecx
   1800248ad:	e8 72 fd ff ff       	call   0x180024624
   1800248b2:	48 8b d8             	mov    %rax,%rbx
   1800248b5:	66 44 39 38          	cmp    %r15w,(%rax)
   1800248b9:	75 2a                	jne    0x1800248e5
   1800248bb:	48 8d 50 08          	lea    0x8(%rax),%rdx
   1800248bf:	49 8b cd             	mov    %r13,%rcx
   1800248c2:	e8 e1 c7 00 00       	call   0x1800310a8
   1800248c7:	84 c0                	test   %al,%al
   1800248c9:	74 1a                	je     0x1800248e5
   1800248cb:	48 8d 43 18          	lea    0x18(%rbx),%rax
   1800248cf:	33 ff                	xor    %edi,%edi
   1800248d1:	48 89 45 00          	mov    %rax,0x0(%rbp)
   1800248d5:	48 85 f6             	test   %rsi,%rsi
   1800248d8:	74 0b                	je     0x1800248e5
   1800248da:	0f b7 43 02          	movzwl 0x2(%rbx),%eax
   1800248de:	48 83 e8 18          	sub    $0x18,%rax
   1800248e2:	48 89 06             	mov    %rax,(%rsi)
   1800248e5:	0f b7 43 02          	movzwl 0x2(%rbx),%eax
   1800248e9:	48 03 c3             	add    %rbx,%rax
   1800248ec:	49 89 04 24          	mov    %rax,(%r12)
   1800248f0:	48 b8 00 00 00 00 00 	movabs $0x8000000000000000,%rax
   1800248f7:	00 00 80
   1800248fa:	48 85 f8             	test   %rdi,%rax
   1800248fd:	75 9d                	jne    0x18002489c
   1800248ff:	48 8b c7             	mov    %rdi,%rax
   180024902:	eb 03                	jmp    0x180024907
   180024904:	49 8b c6             	mov    %r14,%rax
   180024907:	48 8b 5c 24 50       	mov    0x50(%rsp),%rbx
   18002490c:	48 8b 6c 24 58       	mov    0x58(%rsp),%rbp
   180024911:	48 8b 74 24 60       	mov    0x60(%rsp),%rsi
   180024916:	48 83 c4 20          	add    $0x20,%rsp
   18002491a:	41 5f                	pop    %r15
   18002491c:	41 5e                	pop    %r14
   18002491e:	41 5d                	pop    %r13
   180024920:	41 5c                	pop    %r12
   180024922:	5f                   	pop    %rdi
   180024923:	c3                   	ret
   180024924:	48 83 ec 38          	sub    $0x38,%rsp
   180024928:	b8 0c 00 00 00       	mov    $0xc,%eax
   18002492d:	48 89 15 1c 90 02 00 	mov    %rdx,0x2901c(%rip)        # 0x18004d950
   180024934:	66 89 05 ff 8f 02 00 	mov    %ax,0x28fff(%rip)        # 0x18004d93a
   18002493b:	48 8b 05 8e 73 02 00 	mov    0x2738e(%rip),%rax        # 0x18004bcd0
   180024942:	48 85 c0             	test   %rax,%rax
   180024945:	74 24                	je     0x18002496b
   180024947:	48 83 38 00          	cmpq   $0x0,(%rax)
   18002494b:	74 1e                	je     0x18002496b
   18002494d:	48 8d 15 e4 8f 02 00 	lea    0x28fe4(%rip),%rdx        # 0x18004d938
   180024954:	45 33 c0             	xor    %r8d,%r8d
   180024957:	4c 8d 0d 82 93 02 00 	lea    0x29382(%rip),%r9        # 0x18004dce0
   18002495e:	48 89 54 24 20       	mov    %rdx,0x20(%rsp)
   180024963:	8b d1                	mov    %ecx,%edx
   180024965:	41 8d 48 01          	lea    0x1(%r8),%ecx
   180024969:	ff 10                	call   *(%rax)
   18002496b:	48 83 c4 38          	add    $0x38,%rsp
   18002496f:	c3                   	ret
   180024970:	48 83 ec 38          	sub    $0x38,%rsp
   180024974:	48 8b 05 55 73 02 00 	mov    0x27355(%rip),%rax        # 0x18004bcd0
   18002497b:	48 85 c0             	test   %rax,%rax
   18002497e:	74 1e                	je     0x18002499e
   180024980:	48 83 38 00          	cmpq   $0x0,(%rax)
   180024984:	74 18                	je     0x18002499e
   180024986:	48 83 64 24 20 00    	andq   $0x0,0x20(%rsp)
   18002498c:	45 33 c0             	xor    %r8d,%r8d
   18002498f:	8b d1                	mov    %ecx,%edx
   180024991:	41 8d 48 01          	lea    0x1(%r8),%ecx
   180024995:	4c 8d 0d 44 93 02 00 	lea    0x29344(%rip),%r9        # 0x18004dce0
   18002499c:	ff 10                	call   *(%rax)
   18002499e:	48 83 c4 38          	add    $0x38,%rsp
   1800249a2:	c3                   	ret
   1800249a3:	cc                   	int3
   1800249a4:	48 83 ec 28          	sub    $0x28,%rsp
   1800249a8:	48 8b d1             	mov    %rcx,%rdx
   1800249ab:	4c 8d 44 24 38       	lea    0x38(%rsp),%r8
   1800249b0:	b9 04 00 00 00       	mov    $0x4,%ecx
   1800249b5:	e8 f6 e9 ff ff       	call   0x1800233b0
   1800249ba:	48 8b 44 24 38       	mov    0x38(%rsp),%rax
   1800249bf:	48 83 c4 28          	add    $0x28,%rsp
   1800249c3:	c3                   	ret
   1800249c4:	48 89 5c 24 10       	mov    %rbx,0x10(%rsp)
   1800249c9:	57                   	push   %rdi
   1800249ca:	48 83 ec 20          	sub    $0x20,%rsp
   1800249ce:	48 8b f9             	mov    %rcx,%rdi
   1800249d1:	48 8b d1             	mov    %rcx,%rdx
   1800249d4:	4c 8d 44 24 30       	lea    0x30(%rsp),%r8
   1800249d9:	b9 04 00 00 00       	mov    $0x4,%ecx
   1800249de:	e8 cd e9 ff ff       	call   0x1800233b0
   1800249e3:	48 8b 5c 24 30       	mov    0x30(%rsp),%rbx
   1800249e8:	48 8b d3             	mov    %rbx,%rdx
   1800249eb:	48 8b cb             	mov    %rbx,%rcx
   1800249ee:	48 f7 da             	neg    %rdx
   1800249f1:	48 1b d2             	sbb    %rdx,%rdx
   1800249f4:	45 33 c0             	xor    %r8d,%r8d
   1800249f7:	48 23 d7             	and    %rdi,%rdx
   1800249fa:	e8 21 ac ff ff       	call   0x18001f620
   1800249ff:	48 8b c3             	mov    %rbx,%rax
   180024a02:	48 8b 5c 24 38       	mov    0x38(%rsp),%rbx
   180024a07:	48 83 c4 20          	add    $0x20,%rsp
   180024a0b:	5f                   	pop    %rdi
   180024a0c:	c3                   	ret
   180024a0d:	cc                   	int3
   180024a0e:	cc                   	int3
   180024a0f:	cc                   	int3
   180024a10:	48 89 5c 24 10       	mov    %rbx,0x10(%rsp)
   180024a15:	48 89 74 24 18       	mov    %rsi,0x18(%rsp)
   180024a1a:	57                   	push   %rdi
   180024a1b:	48 83 ec 20          	sub    $0x20,%rsp
   180024a1f:	48 8b f2             	mov    %rdx,%rsi
   180024a22:	48 8b f9             	mov    %rcx,%rdi
   180024a25:	48 8b d1             	mov    %rcx,%rdx
   180024a28:	4c 8d 44 24 30       	lea    0x30(%rsp),%r8
   180024a2d:	b9 04 00 00 00       	mov    $0x4,%ecx
   180024a32:	e8 79 e9 ff ff       	call   0x1800233b0
   180024a37:	48 8b 5c 24 30       	mov    0x30(%rsp),%rbx
   180024a3c:	48 8b d6             	mov    %rsi,%rdx
   180024a3f:	4c 8b c3             	mov    %rbx,%r8
   180024a42:	48 8b cb             	mov    %rbx,%rcx
   180024a45:	49 f7 d8             	neg    %r8
   180024a48:	4d 1b c0             	sbb    %r8,%r8
   180024a4b:	4c 23 c7             	and    %rdi,%r8
   180024a4e:	e8 d5 ab ff ff       	call   0x18001f628
   180024a53:	48 8b 74 24 40       	mov    0x40(%rsp),%rsi
   180024a58:	48 8b c3             	mov    %rbx,%rax
   180024a5b:	48 8b 5c 24 38       	mov    0x38(%rsp),%rbx
   180024a60:	48 83 c4 20          	add    $0x20,%rsp
   180024a64:	5f                   	pop    %rdi
   180024a65:	c3                   	ret
   180024a66:	cc                   	int3
   180024a67:	cc                   	int3
   180024a68:	48 83 ec 28          	sub    $0x28,%rsp
   180024a6c:	48 8b d1             	mov    %rcx,%rdx
   180024a6f:	4c 8d 44 24 38       	lea    0x38(%rsp),%r8
   180024a74:	b9 06 00 00 00       	mov    $0x6,%ecx
   180024a79:	e8 32 e9 ff ff       	call   0x1800233b0
   180024a7e:	48 8b 44 24 38       	mov    0x38(%rsp),%rax
   180024a83:	48 83 c4 28          	add    $0x28,%rsp
   180024a87:	c3                   	ret
   180024a88:	48 89 5c 24 10       	mov    %rbx,0x10(%rsp)
   180024a8d:	48 89 74 24 18       	mov    %rsi,0x18(%rsp)
   180024a92:	57                   	push   %rdi
   180024a93:	48 83 ec 20          	sub    $0x20,%rsp
   180024a97:	48 8b f2             	mov    %rdx,%rsi
   180024a9a:	48 8b f9             	mov    %rcx,%rdi
   180024a9d:	48 8b d1             	mov    %rcx,%rdx
   180024aa0:	4c 8d 44 24 30       	lea    0x30(%rsp),%r8
   180024aa5:	b9 06 00 00 00       	mov    $0x6,%ecx
   180024aaa:	e8 01 e9 ff ff       	call   0x1800233b0
   180024aaf:	48 8b 5c 24 30       	mov    0x30(%rsp),%rbx
   180024ab4:	48 8b d6             	mov    %rsi,%rdx
   180024ab7:	4c 8b c3             	mov    %rbx,%r8
   180024aba:	48 8b cb             	mov    %rbx,%rcx
   180024abd:	49 f7 d8             	neg    %r8
   180024ac0:	4d 1b c0             	sbb    %r8,%r8
   180024ac3:	4c 23 c7             	and    %rdi,%r8
   180024ac6:	e8 5d ab ff ff       	call   0x18001f628
   180024acb:	48 8b 74 24 40       	mov    0x40(%rsp),%rsi
   180024ad0:	48 8b c3             	mov    %rbx,%rax
   180024ad3:	48 8b 5c 24 38       	mov    0x38(%rsp),%rbx
   180024ad8:	48 83 c4 20          	add    $0x20,%rsp
   180024adc:	5f                   	pop    %rdi
   180024add:	c3                   	ret
   180024ade:	cc                   	int3
   180024adf:	cc                   	int3
   180024ae0:	40 53                	rex push %rbx
   180024ae2:	48 83 ec 20          	sub    $0x20,%rsp
   180024ae6:	48 83 79 10 00       	cmpq   $0x0,0x10(%rcx)
   180024aeb:	48 8b d9             	mov    %rcx,%rbx
   180024aee:	74 0c                	je     0x180024afc
   180024af0:	48 b8 0f 00 00 00 00 	movabs $0x800000000000000f,%rax
   180024af7:	00 00 80
   180024afa:	eb 12                	jmp    0x180024b0e
   180024afc:	48 8b 09             	mov    (%rcx),%rcx
   180024aff:	e8 4c fa ff ff       	call   0x180024550
   180024b04:	48 ff 43 10          	incq   0x10(%rbx)
   180024b08:	48 89 43 08          	mov    %rax,0x8(%rbx)
   180024b0c:	33 c0                	xor    %eax,%eax
   180024b0e:	48 83 c4 20          	add    $0x20,%rsp
   180024b12:	5b                   	pop    %rbx
   180024b13:	c3                   	ret
   180024b14:	e9 c7 ff ff ff       	jmp    0x180024ae0
   180024b19:	cc                   	int3
   180024b1a:	cc                   	int3
   180024b1b:	cc                   	int3
   180024b1c:	48 ff 49 10          	decq   0x10(%rcx)
   180024b20:	48 8b 49 08          	mov    0x8(%rcx),%rcx
   180024b24:	e9 6f fa ff ff       	jmp    0x180024598
   180024b29:	cc                   	int3
   180024b2a:	cc                   	int3
   180024b2b:	cc                   	int3
   180024b2c:	48 8b d1             	mov    %rcx,%rdx
   180024b2f:	48 85 c9             	test   %rcx,%rcx
   180024b32:	75 03                	jne    0x180024b37
   180024b34:	33 c0                	xor    %eax,%eax
   180024b36:	c3                   	ret
   180024b37:	4c 8b c1             	mov    %rcx,%r8
   180024b3a:	8a 02                	mov    (%rdx),%al
   180024b3c:	24 7f                	and    $0x7f,%al
   180024b3e:	3c 7f                	cmp    $0x7f,%al
   180024b40:	75 06                	jne    0x180024b48
   180024b42:	80 7a 01 ff          	cmpb   $0xff,0x1(%rdx)
   180024b46:	74 16                	je     0x180024b5e
   180024b48:	0f b6 42 03          	movzbl 0x3(%rdx),%eax
   180024b4c:	c1 e0 08             	shl    $0x8,%eax
   180024b4f:	48 63 c8             	movslq %eax,%rcx
   180024b52:	0f b6 42 02          	movzbl 0x2(%rdx),%eax
   180024b56:	48 0b c8             	or     %rax,%rcx
   180024b59:	48 03 d1             	add    %rcx,%rdx
   180024b5c:	eb dc                	jmp    0x180024b3a
   180024b5e:	49 2b d0             	sub    %r8,%rdx
   180024b61:	48 8d 42 04          	lea    0x4(%rdx),%rax
   180024b65:	c3                   	ret
   180024b66:	cc                   	int3
   180024b67:	cc                   	int3
   180024b68:	48 83 ec 28          	sub    $0x28,%rsp
   180024b6c:	4c 8b c9             	mov    %rcx,%r9
   180024b6f:	48 85 c9             	test   %rcx,%rcx
   180024b72:	75 04                	jne    0x180024b78
   180024b74:	33 c0                	xor    %eax,%eax
   180024b76:	eb 10                	jmp    0x180024b88
   180024b78:	e8 af ff ff ff       	call   0x180024b2c
   180024b7d:	49 8b d1             	mov    %r9,%rdx
   180024b80:	48 8b c8             	mov    %rax,%rcx
   180024b83:	e8 88 fe ff ff       	call   0x180024a10
   180024b88:	48 83 c4 28          	add    $0x28,%rsp
   180024b8c:	c3                   	ret
   180024b8d:	cc                   	int3
   180024b8e:	cc                   	int3
   180024b8f:	cc                   	int3
   180024b90:	48 89 5c 24 08       	mov    %rbx,0x8(%rsp)
   180024b95:	48 89 6c 24 10       	mov    %rbp,0x10(%rsp)
   180024b9a:	48 89 74 24 18       	mov    %rsi,0x18(%rsp)
   180024b9f:	57                   	push   %rdi
   180024ba0:	48 83 ec 20          	sub    $0x20,%rsp
   180024ba4:	48 8b da             	mov    %rdx,%rbx
   180024ba7:	4c 8b c9             	mov    %rcx,%r9
   180024baa:	48 85 c9             	test   %rcx,%rcx
   180024bad:	75 09                	jne    0x180024bb8
   180024baf:	48 85 d2             	test   %rdx,%rdx
   180024bb2:	75 04                	jne    0x180024bb8
   180024bb4:	33 c0                	xor    %eax,%eax
   180024bb6:	eb 3b                	jmp    0x180024bf3
   180024bb8:	e8 6f ff ff ff       	call   0x180024b2c
   180024bbd:	48 8b cb             	mov    %rbx,%rcx
   180024bc0:	48 8b f0             	mov    %rax,%rsi
   180024bc3:	e8 64 ff ff ff       	call   0x180024b2c
   180024bc8:	49 8b d1             	mov    %r9,%rdx
   180024bcb:	48 8d 4c 06 fc       	lea    -0x4(%rsi,%rax,1),%rcx
   180024bd0:	48 8b e8             	mov    %rax,%rbp
   180024bd3:	e8 38 fe ff ff       	call   0x180024a10
   180024bd8:	48 8b f8             	mov    %rax,%rdi
   180024bdb:	48 85 c0             	test   %rax,%rax
   180024bde:	74 10                	je     0x180024bf0
   180024be0:	48 8d 4c 30 fc       	lea    -0x4(%rax,%rsi,1),%rcx
   180024be5:	4c 8b c5             	mov    %rbp,%r8
   180024be8:	48 8b d3             	mov    %rbx,%rdx
   180024beb:	e8 38 aa ff ff       	call   0x18001f628
   180024bf0:	48 8b c7             	mov    %rdi,%rax
   180024bf3:	48 8b 5c 24 30       	mov    0x30(%rsp),%rbx
   180024bf8:	48 8b 6c 24 38       	mov    0x38(%rsp),%rbp
   180024bfd:	48 8b 74 24 40       	mov    0x40(%rsp),%rsi
   180024c02:	48 83 c4 20          	add    $0x20,%rsp
   180024c06:	5f                   	pop    %rdi
   180024c07:	c3                   	ret
   180024c08:	40 53                	rex push %rbx
   180024c0a:	48 83 ec 40          	sub    $0x40,%rsp
   180024c0e:	48 8d 44 24 30       	lea    0x30(%rsp),%rax
   180024c13:	48 8b d9             	mov    %rcx,%rbx
   180024c16:	b9 00 02 00 00       	mov    $0x200,%ecx
   180024c1b:	48 89 44 24 20       	mov    %rax,0x20(%rsp)
   180024c20:	e8 77 a9 ff ff       	call   0x18001f59c
   180024c25:	4c 8b 44 24 70       	mov    0x70(%rsp),%r8
   180024c2a:	48 8b 54 24 30       	mov    0x30(%rsp),%rdx
   180024c2f:	48 8b cb             	mov    %rbx,%rcx
   180024c32:	e8 45 e0 ff ff       	call   0x180022c7c
   180024c37:	80 7c 24 78 00       	cmpb   $0x0,0x78(%rsp)
   180024c3c:	74 0a                	je     0x180024c48
   180024c3e:	48 8b 4c 24 30       	mov    0x30(%rsp),%rcx
   180024c43:	e8 1c a7 ff ff       	call   0x18001f364
   180024c48:	48 8b 44 24 30       	mov    0x30(%rsp),%rax
   180024c4d:	48 83 c4 40          	add    $0x40,%rsp
   180024c51:	5b                   	pop    %rbx
   180024c52:	c3                   	ret
   180024c53:	cc                   	int3
   180024c54:	c6 01 04             	movb   $0x4,(%rcx)
   180024c57:	c6 41 01 06          	movb   $0x6,0x1(%rcx)
   180024c5b:	c6 41 02 14          	movb   $0x14,0x2(%rcx)
   180024c5f:	c6 41 03 00          	movb   $0x0,0x3(%rcx)
   180024c63:	48 83 c1 04          	add    $0x4,%rcx
   180024c67:	41 b8 10 00 00 00    	mov    $0x10,%r8d
   180024c6d:	e9 b6 a9 ff ff       	jmp    0x18001f628
   180024c72:	cc                   	int3
   180024c73:	cc                   	int3
   180024c74:	8a 01                	mov    (%rcx),%al
   180024c76:	24 7f                	and    $0x7f,%al
   180024c78:	3c 04                	cmp    $0x4,%al
   180024c7a:	75 0b                	jne    0x180024c87
   180024c7c:	80 79 01 06          	cmpb   $0x6,0x1(%rcx)
   180024c80:	75 05                	jne    0x180024c87
   180024c82:	48 8d 41 04          	lea    0x4(%rcx),%rax
   180024c86:	c3                   	ret
   180024c87:	33 c0                	xor    %eax,%eax
   180024c89:	c3                   	ret
   180024c8a:	cc                   	int3
   180024c8b:	cc                   	int3
   180024c8c:	33 c9                	xor    %ecx,%ecx
   180024c8e:	48 8d 05 0b 8d 02 00 	lea    0x28d0b(%rip),%rax        # 0x18004d9a0
   180024c95:	48 39 0d 04 8d 02 00 	cmp    %rcx,0x28d04(%rip)        # 0x18004d9a0
   180024c9c:	74 0e                	je     0x180024cac
   180024c9e:	38 48 20             	cmp    %cl,0x20(%rax)
   180024ca1:	74 0c                	je     0x180024caf
   180024ca3:	48 83 c0 28          	add    $0x28,%rax
   180024ca7:	48 39 08             	cmp    %rcx,(%rax)
   180024caa:	75 f2                	jne    0x180024c9e
   180024cac:	33 c0                	xor    %eax,%eax
   180024cae:	c3                   	ret
   180024caf:	48 b8 0e 00 00 00 00 	movabs $0x800000000000000e,%rax
   180024cb6:	00 00 80
   180024cb9:	c3                   	ret
   180024cba:	cc                   	int3
   180024cbb:	cc                   	int3
   180024cbc:	48 89 5c 24 08       	mov    %rbx,0x8(%rsp)
   180024cc1:	48 89 6c 24 10       	mov    %rbp,0x10(%rsp)
   180024cc6:	56                   	push   %rsi
   180024cc7:	57                   	push   %rdi
   180024cc8:	41 54                	push   %r12
   180024cca:	48 83 ec 30          	sub    $0x30,%rsp
   180024cce:	40 32 f6             	xor    %sil,%sil
   180024cd1:	48 83 3d c7 8c 02 00 	cmpq   $0x0,0x28cc7(%rip)        # 0x18004d9a0
   180024cd8:	00
   180024cd9:	48 8d 1d c0 8c 02 00 	lea    0x28cc0(%rip),%rbx        # 0x18004d9a0
   180024ce0:	0f 84 a6 01 00 00    	je     0x180024e8c
   180024ce6:	48 8d 2d 23 73 02 00 	lea    0x27323(%rip),%rbp        # 0x18004c010
   180024ced:	4c 8d 25 2c 73 02 00 	lea    0x2732c(%rip),%r12        # 0x18004c020
   180024cf4:	48 8b 53 18          	mov    0x18(%rbx),%rdx
   180024cf8:	48 8b 0b             	mov    (%rbx),%rcx
   180024cfb:	4c 8d 44 24 60       	lea    0x60(%rsp),%r8
   180024d00:	e8 63 bc ff ff       	call   0x180020968
   180024d05:	48 b9 00 00 00 00 00 	movabs $0x8000000000000000,%rcx
   180024d0c:	00 00 80
   180024d0f:	48 85 c1             	test   %rax,%rcx
   180024d12:	0f 85 31 01 00 00    	jne    0x180024e49
   180024d18:	48 8b 4b 08          	mov    0x8(%rbx),%rcx
   180024d1c:	40 b6 01             	mov    $0x1,%sil
   180024d1f:	40 88 73 20          	mov    %sil,0x20(%rbx)
   180024d23:	48 85 c9             	test   %rcx,%rcx
   180024d26:	74 08                	je     0x180024d30
   180024d28:	48 8b 44 24 60       	mov    0x60(%rsp),%rax
   180024d2d:	48 89 01             	mov    %rax,(%rcx)
   180024d30:	48 8b 0b             	mov    (%rbx),%rcx
   180024d33:	48 8d 15 56 b6 02 00 	lea    0x2b656(%rip),%rdx        # 0x180050390
   180024d3a:	e8 69 c3 00 00       	call   0x1800310a8
   180024d3f:	84 c0                	test   %al,%al
   180024d41:	74 13                	je     0x180024d56
   180024d43:	48 8b 05 26 bd 02 00 	mov    0x2bd26(%rip),%rax        # 0x180050a70
   180024d4a:	48 8d 15 eb e0 ff ff 	lea    -0x1f15(%rip),%rdx        # 0x180022e3c
   180024d51:	48 8b c8             	mov    %rax,%rcx
   180024d54:	ff 10                	call   *(%rax)
   180024d56:	48 8b 0b             	mov    (%rbx),%rcx
   180024d59:	48 8d 15 10 b6 02 00 	lea    0x2b610(%rip),%rdx        # 0x180050370
   180024d60:	e8 43 c3 00 00       	call   0x1800310a8
   180024d65:	84 c0                	test   %al,%al
   180024d67:	0f 84 8f 00 00 00    	je     0x180024dfc
   180024d6d:	e8 0e 12 00 00       	call   0x180025f80
   180024d72:	48 8b 3d 97 72 02 00 	mov    0x27297(%rip),%rdi        # 0x18004c010
   180024d79:	eb 27                	jmp    0x180024da2
   180024d7b:	48 8d 4c 24 20       	lea    0x20(%rsp),%rcx
   180024d80:	41 b8 10 00 00 00    	mov    $0x10,%r8d
   180024d86:	48 8b d7             	mov    %rdi,%rdx
   180024d89:	e8 9a a8 ff ff       	call   0x18001f628
   180024d8e:	48 8b 0d 43 6f 02 00 	mov    0x26f43(%rip),%rcx        # 0x18004bcd8
   180024d95:	48 8b d7             	mov    %rdi,%rdx
   180024d98:	e8 d3 dd 01 00       	call   0x180042b70
   180024d9d:	48 8b 7c 24 20       	mov    0x20(%rsp),%rdi
   180024da2:	48 3b fd             	cmp    %rbp,%rdi
   180024da5:	75 d4                	jne    0x180024d7b
   180024da7:	48 8b 3d 72 72 02 00 	mov    0x27272(%rip),%rdi        # 0x18004c020
   180024dae:	eb 2b                	jmp    0x180024ddb
   180024db0:	48 8d 4c 24 20       	lea    0x20(%rsp),%rcx
   180024db5:	41 b8 10 00 00 00    	mov    $0x10,%r8d
   180024dbb:	48 8b d7             	mov    %rdi,%rdx
   180024dbe:	e8 65 a8 ff ff       	call   0x18001f628
   180024dc3:	48 8b 0d 0e 6f 02 00 	mov    0x26f0e(%rip),%rcx        # 0x18004bcd8
   180024dca:	48 8b d7             	mov    %rdi,%rdx
   180024dcd:	48 83 c1 10          	add    $0x10,%rcx
   180024dd1:	e8 9a dd 01 00       	call   0x180042b70
   180024dd6:	48 8b 7c 24 20       	mov    0x20(%rsp),%rdi
   180024ddb:	49 3b fc             	cmp    %r12,%rdi
   180024dde:	75 d0                	jne    0x180024db0
   180024de0:	48 89 2d 29 72 02 00 	mov    %rbp,0x27229(%rip)        # 0x18004c010
   180024de7:	48 89 2d 2a 72 02 00 	mov    %rbp,0x2722a(%rip)        # 0x18004c018
   180024dee:	4c 89 25 2b 72 02 00 	mov    %r12,0x2722b(%rip)        # 0x18004c020
   180024df5:	4c 89 25 2c 72 02 00 	mov    %r12,0x2722c(%rip)        # 0x18004c028
   180024dfc:	48 8b 0b             	mov    (%rbx),%rcx
   180024dff:	48 8d 15 a2 b2 02 00 	lea    0x2b2a2(%rip),%rdx        # 0x1800500a8
   180024e06:	e8 9d c2 00 00       	call   0x1800310a8
   180024e0b:	48 8b 0d be 6e 02 00 	mov    0x26ebe(%rip),%rcx        # 0x18004bcd0
   180024e12:	48 8d 15 f7 b3 02 00 	lea    0x2b3f7(%rip),%rdx        # 0x180050210
   180024e19:	84 c0                	test   %al,%al
   180024e1b:	48 0f 45 4c 24 60    	cmovne 0x60(%rsp),%rcx
   180024e21:	48 89 0d a8 6e 02 00 	mov    %rcx,0x26ea8(%rip)        # 0x18004bcd0
   180024e28:	48 8b 0b             	mov    (%rbx),%rcx
   180024e2b:	e8 78 c2 00 00       	call   0x1800310a8
   180024e30:	84 c0                	test   %al,%al
   180024e32:	74 15                	je     0x180024e49
   180024e34:	4c 8d 05 1d bc 02 00 	lea    0x2bc1d(%rip),%r8        # 0x180050a58
   180024e3b:	48 8d 0d be b3 02 00 	lea    0x2b3be(%rip),%rcx        # 0x180050200
   180024e42:	33 d2                	xor    %edx,%edx
   180024e44:	e8 1f bb ff ff       	call   0x180020968
   180024e49:	48 83 c3 28          	add    $0x28,%rbx
   180024e4d:	48 83 3b 00          	cmpq   $0x0,(%rbx)
   180024e51:	0f 85 9d fe ff ff    	jne    0x180024cf4
   180024e57:	40 84 f6             	test   %sil,%sil
   180024e5a:	74 30                	je     0x180024e8c
   180024e5c:	48 8b 0d a5 71 02 00 	mov    0x271a5(%rip),%rcx        # 0x18004c008
   180024e63:	e8 ac 50 fe ff       	call   0x180009f14
   180024e68:	48 8b 0d e9 6f 02 00 	mov    0x26fe9(%rip),%rcx        # 0x18004be58
   180024e6f:	e8 a0 50 fe ff       	call   0x180009f14
   180024e74:	48 8b 0d 15 bc 02 00 	mov    0x2bc15(%rip),%rcx        # 0x180050a90
   180024e7b:	e8 94 50 fe ff       	call   0x180009f14
   180024e80:	48 8b 0d f1 70 02 00 	mov    0x270f1(%rip),%rcx        # 0x18004bf78
   180024e87:	e8 88 50 fe ff       	call   0x180009f14
   180024e8c:	48 8b 5c 24 50       	mov    0x50(%rsp),%rbx
   180024e91:	48 8b 6c 24 58       	mov    0x58(%rsp),%rbp
   180024e96:	48 83 c4 30          	add    $0x30,%rsp
   180024e9a:	41 5c                	pop    %r12
   180024e9c:	5f                   	pop    %rdi
   180024e9d:	5e                   	pop    %rsi
   180024e9e:	c3                   	ret
   180024e9f:	cc                   	int3
   180024ea0:	40 53                	rex push %rbx
   180024ea2:	48 83 ec 30          	sub    $0x30,%rsp
   180024ea6:	48 83 3d f2 8a 02 00 	cmpq   $0x0,0x28af2(%rip)        # 0x18004d9a0
   180024ead:	00
   180024eae:	74 3f                	je     0x180024eef
   180024eb0:	48 8d 1d f9 8a 02 00 	lea    0x28af9(%rip),%rbx        # 0x18004d9b0
   180024eb7:	45 33 c9             	xor    %r9d,%r9d
   180024eba:	4c 8d 05 fb fd ff ff 	lea    -0x205(%rip),%r8        # 0x180024cbc
   180024ec1:	b9 00 02 00 00       	mov    $0x200,%ecx
   180024ec6:	41 8d 51 08          	lea    0x8(%r9),%edx
   180024eca:	48 89 5c 24 20       	mov    %rbx,0x20(%rsp)
   180024ecf:	e8 c8 a6 ff ff       	call   0x18001f59c
   180024ed4:	48 8b 13             	mov    (%rbx),%rdx
   180024ed7:	48 8b 4b f0          	mov    -0x10(%rbx),%rcx
   180024edb:	4c 8d 43 08          	lea    0x8(%rbx),%r8
   180024edf:	e8 98 dd ff ff       	call   0x180022c7c
   180024ee4:	48 83 c3 28          	add    $0x28,%rbx
   180024ee8:	48 83 7b f0 00       	cmpq   $0x0,-0x10(%rbx)
   180024eed:	75 c8                	jne    0x180024eb7
   180024eef:	48 83 c4 30          	add    $0x30,%rsp
   180024ef3:	5b                   	pop    %rbx
   180024ef4:	c3                   	ret
   180024ef5:	cc                   	int3
   180024ef6:	cc                   	int3
   180024ef7:	cc                   	int3
   180024ef8:	4c 8d 0d e1 8c 02 00 	lea    0x28ce1(%rip),%r9        # 0x18004dbe0
   180024eff:	48 8d 15 f2 97 02 00 	lea    0x297f2(%rip),%rdx        # 0x18004e6f8
   180024f06:	48 8d 0d bb bd 02 00 	lea    0x2bdbb(%rip),%rcx        # 0x180050cc8
   180024f0d:	45 33 c0             	xor    %r8d,%r8d
   180024f10:	e9 a7 b7 ff ff       	jmp    0x1800206bc
   180024f15:	cc                   	int3
   180024f16:	cc                   	int3
   180024f17:	cc                   	int3
   180024f18:	48 8b c4             	mov    %rsp,%rax
   180024f1b:	48 89 58 08          	mov    %rbx,0x8(%rax)
   180024f1f:	48 89 68 10          	mov    %rbp,0x10(%rax)
   180024f23:	48 89 70 18          	mov    %rsi,0x18(%rax)
   180024f27:	48 89 78 20          	mov    %rdi,0x20(%rax)
   180024f2b:	41 54                	push   %r12
   180024f2d:	48 83 ec 20          	sub    $0x20,%rsp
   180024f31:	48 8b d9             	mov    %rcx,%rbx
   180024f34:	b9 48 00 00 00       	mov    $0x48,%ecx
   180024f39:	45 8b e1             	mov    %r9d,%r12d
   180024f3c:	41 8a e8             	mov    %r8b,%bpl
   180024f3f:	48 8b f2             	mov    %rdx,%rsi
   180024f42:	e8 5d fa ff ff       	call   0x1800249a4
   180024f47:	48 8b f8             	mov    %rax,%rdi
   180024f4a:	48 85 c0             	test   %rax,%rax
   180024f4d:	75 0f                	jne    0x180024f5e
   180024f4f:	48 b8 09 00 00 00 00 	movabs $0x8000000000000009,%rax
   180024f56:	00 00 80
   180024f59:	e9 8e 00 00 00       	jmp    0x180024fec
   180024f5e:	40 84 ed             	test   %bpl,%bpl
   180024f61:	74 37                	je     0x180024f9a
   180024f63:	48 85 db             	test   %rbx,%rbx
   180024f66:	74 2b                	je     0x180024f93
   180024f68:	48 8b cb             	mov    %rbx,%rcx
   180024f6b:	e8 34 fa ff ff       	call   0x1800249a4
   180024f70:	48 89 47 20          	mov    %rax,0x20(%rdi)
   180024f74:	48 85 c0             	test   %rax,%rax
   180024f77:	75 0a                	jne    0x180024f83
   180024f79:	48 8b cf             	mov    %rdi,%rcx
   180024f7c:	e8 4b e6 ff ff       	call   0x1800235cc
   180024f81:	eb cc                	jmp    0x180024f4f
   180024f83:	4c 8b c3             	mov    %rbx,%r8
   180024f86:	48 8b d6             	mov    %rsi,%rdx
   180024f89:	48 8b c8             	mov    %rax,%rcx
   180024f8c:	e8 97 a6 ff ff       	call   0x18001f628
   180024f91:	eb 0b                	jmp    0x180024f9e
   180024f93:	48 83 60 20 00       	andq   $0x0,0x20(%rax)
   180024f98:	eb 04                	jmp    0x180024f9e
   180024f9a:	48 89 70 20          	mov    %rsi,0x20(%rax)
   180024f9e:	48 8d 4f 30          	lea    0x30(%rdi),%rcx
   180024fa2:	c7 07 53 58 53 53    	movl   $0x53535853,(%rdi)
   180024fa8:	48 89 7f 18          	mov    %rdi,0x18(%rdi)
   180024fac:	48 89 5f 28          	mov    %rbx,0x28(%rdi)
   180024fb0:	e8 9b db 01 00       	call   0x180042b50
   180024fb5:	b9 10 00 00 00       	mov    $0x10,%ecx
   180024fba:	44 89 67 40          	mov    %r12d,0x40(%rdi)
   180024fbe:	e8 8d f5 ff ff       	call   0x180024550
   180024fc3:	48 8d 57 08          	lea    0x8(%rdi),%rdx
   180024fc7:	48 8d 0d 02 8c 02 00 	lea    0x28c02(%rip),%rcx        # 0x18004dbd0
   180024fce:	48 8b d8             	mov    %rax,%rbx
   180024fd1:	e8 9a db 01 00       	call   0x180042b70
   180024fd6:	48 8b cb             	mov    %rbx,%rcx
   180024fd9:	e8 ba f5 ff ff       	call   0x180024598
   180024fde:	48 8b 44 24 50       	mov    0x50(%rsp),%rax
   180024fe3:	4c 8b 5f 18          	mov    0x18(%rdi),%r11
   180024fe7:	4c 89 18             	mov    %r11,(%rax)
   180024fea:	33 c0                	xor    %eax,%eax
   180024fec:	48 8b 5c 24 30       	mov    0x30(%rsp),%rbx
   180024ff1:	48 8b 6c 24 38       	mov    0x38(%rsp),%rbp
   180024ff6:	48 8b 74 24 40       	mov    0x40(%rsp),%rsi
   180024ffb:	48 8b 7c 24 48       	mov    0x48(%rsp),%rdi
   180025000:	48 83 c4 20          	add    $0x20,%rsp
   180025004:	41 5c                	pop    %r12
   180025006:	c3                   	ret
   180025007:	cc                   	int3
   180025008:	48 89 5c 24 08       	mov    %rbx,0x8(%rsp)
   18002500d:	48 89 74 24 10       	mov    %rsi,0x10(%rsp)
   180025012:	57                   	push   %rdi
   180025013:	48 83 ec 20          	sub    $0x20,%rsp
   180025017:	48 8b f9             	mov    %rcx,%rdi
   18002501a:	48 8d 0d af 8b 02 00 	lea    0x28baf(%rip),%rcx        # 0x18004dbd0
   180025021:	48 8b da             	mov    %rdx,%rbx
   180025024:	e8 2f db 01 00       	call   0x180042b58
   180025029:	84 c0                	test   %al,%al
   18002502b:	75 45                	jne    0x180025072
   18002502d:	48 8d 0d 9c 8b 02 00 	lea    0x28b9c(%rip),%rcx        # 0x18004dbd0
   180025034:	e8 5f db 01 00       	call   0x180042b98
   180025039:	eb 26                	jmp    0x180025061
   18002503b:	48 8d 70 08          	lea    0x8(%rax),%rsi
   18002503f:	48 8d 0d 8a 8b 02 00 	lea    0x28b8a(%rip),%rcx        # 0x18004dbd0
   180025046:	48 8b d6             	mov    %rsi,%rdx
   180025049:	e8 5a db 01 00       	call   0x180042ba8
   18002504e:	84 c0                	test   %al,%al
   180025050:	75 20                	jne    0x180025072
   180025052:	48 8d 0d 77 8b 02 00 	lea    0x28b77(%rip),%rcx        # 0x18004dbd0
   180025059:	48 8b d6             	mov    %rsi,%rdx
   18002505c:	e8 3b db 01 00       	call   0x180042b9c
   180025061:	48 83 e8 08          	sub    $0x8,%rax
   180025065:	48 39 78 18          	cmp    %rdi,0x18(%rax)
   180025069:	75 d0                	jne    0x18002503b
   18002506b:	48 89 03             	mov    %rax,(%rbx)
   18002506e:	33 c0                	xor    %eax,%eax
   180025070:	eb 0a                	jmp    0x18002507c
   180025072:	48 b8 0e 00 00 00 00 	movabs $0x800000000000000e,%rax
   180025079:	00 00 80
   18002507c:	48 8b 5c 24 30       	mov    0x30(%rsp),%rbx
   180025081:	48 8b 74 24 38       	mov    0x38(%rsp),%rsi
   180025086:	48 83 c4 20          	add    $0x20,%rsp
   18002508a:	5f                   	pop    %rdi
   18002508b:	c3                   	ret
   18002508c:	40 53                	rex push %rbx
   18002508e:	48 83 ec 30          	sub    $0x30,%rsp
   180025092:	4c 8b da             	mov    %rdx,%r11
   180025095:	45 33 d2             	xor    %r10d,%r10d
   180025098:	49 8b d8             	mov    %r8,%rbx
   18002509b:	49 8b d0             	mov    %r8,%rdx
   18002509e:	4d 3b da             	cmp    %r10,%r11
   1800250a1:	76 2b                	jbe    0x1800250ce
   1800250a3:	8b 02                	mov    (%rdx),%eax
   1800250a5:	25 ff ff ff 00       	and    $0xffffff,%eax
   1800250aa:	4c 03 d0             	add    %rax,%r10
   1800250ad:	4d 3b d3             	cmp    %r11,%r10
   1800250b0:	74 2c                	je     0x1800250de
   1800250b2:	48 03 d0             	add    %rax,%rdx
   1800250b5:	48 8d 4a 03          	lea    0x3(%rdx),%rcx
   1800250b9:	48 83 e1 fc          	and    $0xfffffffffffffffc,%rcx
   1800250bd:	48 8b c1             	mov    %rcx,%rax
   1800250c0:	48 2b c2             	sub    %rdx,%rax
   1800250c3:	48 8b d1             	mov    %rcx,%rdx
   1800250c6:	4c 03 d0             	add    %rax,%r10
   1800250c9:	4d 3b d3             	cmp    %r11,%r10
   1800250cc:	72 d5                	jb     0x1800250a3
   1800250ce:	48 b8 02 00 00 00 00 	movabs $0x8000000000000002,%rax
   1800250d5:	00 00 80
   1800250d8:	48 83 c4 30          	add    $0x30,%rsp
   1800250dc:	5b                   	pop    %rbx
   1800250dd:	c3                   	ret
   1800250de:	4c 89 4c 24 20       	mov    %r9,0x20(%rsp)
   1800250e3:	41 b0 01             	mov    $0x1,%r8b
   1800250e6:	48 8b d3             	mov    %rbx,%rdx
   1800250e9:	45 33 c9             	xor    %r9d,%r9d
   1800250ec:	49 8b cb             	mov    %r11,%rcx
   1800250ef:	e8 24 fe ff ff       	call   0x180024f18
   1800250f4:	eb e2                	jmp    0x1800250d8
   1800250f6:	cc                   	int3
   1800250f7:	cc                   	int3
   1800250f8:	48 89 5c 24 08       	mov    %rbx,0x8(%rsp)
   1800250fd:	48 89 6c 24 10       	mov    %rbp,0x10(%rsp)
   180025102:	48 89 74 24 20       	mov    %rsi,0x20(%rsp)
   180025107:	57                   	push   %rdi
   180025108:	48 83 ec 20          	sub    $0x20,%rsp
   18002510c:	b9 10 00 00 00       	mov    $0x10,%ecx
   180025111:	48 8b da             	mov    %rdx,%rbx
   180025114:	e8 37 f4 ff ff       	call   0x180024550
   180025119:	48 8d 54 24 40       	lea    0x40(%rsp),%rdx
   18002511e:	48 8b cb             	mov    %rbx,%rcx
   180025121:	48 8b e8             	mov    %rax,%rbp
   180025124:	e8 df fe ff ff       	call   0x180025008
   180025129:	48 b9 00 00 00 00 00 	movabs $0x8000000000000000,%rcx
   180025130:	00 00 80
   180025133:	48 85 c1             	test   %rax,%rcx
   180025136:	75 4d                	jne    0x180025185
   180025138:	48 8b 7c 24 40       	mov    0x40(%rsp),%rdi
   18002513d:	48 8d 4f 08          	lea    0x8(%rdi),%rcx
   180025141:	e8 1a da 01 00       	call   0x180042b60
   180025146:	48 8d 4f 30          	lea    0x30(%rdi),%rcx
   18002514a:	e8 09 da 01 00       	call   0x180042b58
   18002514f:	33 db                	xor    %ebx,%ebx
   180025151:	eb 1b                	jmp    0x18002516e
   180025153:	48 8d 4f 30          	lea    0x30(%rdi),%rcx
   180025157:	e8 3c da 01 00       	call   0x180042b98
   18002515c:	48 8d 48 f8          	lea    -0x8(%rax),%rcx
   180025160:	e8 0b 01 00 00       	call   0x180025270
   180025165:	48 8d 4f 30          	lea    0x30(%rdi),%rcx
   180025169:	e8 ea d9 01 00       	call   0x180042b58
   18002516e:	3a c3                	cmp    %bl,%al
   180025170:	74 e1                	je     0x180025153
   180025172:	48 8b 4f 20          	mov    0x20(%rdi),%rcx
   180025176:	e8 51 e4 ff ff       	call   0x1800235cc
   18002517b:	48 8b cf             	mov    %rdi,%rcx
   18002517e:	e8 49 e4 ff ff       	call   0x1800235cc
   180025183:	eb 0a                	jmp    0x18002518f
   180025185:	48 bb 02 00 00 00 00 	movabs $0x8000000000000002,%rbx
   18002518c:	00 00 80
   18002518f:	48 8b cd             	mov    %rbp,%rcx
   180025192:	e8 01 f4 ff ff       	call   0x180024598
   180025197:	48 8b 6c 24 38       	mov    0x38(%rsp),%rbp
   18002519c:	48 8b 74 24 48       	mov    0x48(%rsp),%rsi
   1800251a1:	48 8b c3             	mov    %rbx,%rax
   1800251a4:	48 8b 5c 24 30       	mov    0x30(%rsp),%rbx
   1800251a9:	48 83 c4 20          	add    $0x20,%rsp
   1800251ad:	5f                   	pop    %rdi
   1800251ae:	c3                   	ret
   1800251af:	cc                   	int3
   1800251b0:	40 53                	rex push %rbx
   1800251b2:	56                   	push   %rsi
   1800251b3:	57                   	push   %rdi
   1800251b4:	48 83 ec 40          	sub    $0x40,%rsp
   1800251b8:	48 8b fa             	mov    %rdx,%rdi
   1800251bb:	48 8b 12             	mov    (%rdx),%rdx
   1800251be:	48 8b f1             	mov    %rcx,%rsi
   1800251c1:	48 8b 52 28          	mov    0x28(%rdx),%rdx
   1800251c5:	48 8d 0d 14 8a 02 00 	lea    0x28a14(%rip),%rcx        # 0x18004dbe0
   1800251cc:	e8 27 ff ff ff       	call   0x1800250f8
   1800251d1:	48 b9 00 00 00 00 00 	movabs $0x8000000000000000,%rcx
   1800251d8:	00 00 80
   1800251db:	48 85 c1             	test   %rax,%rcx
   1800251de:	75 75                	jne    0x180025255
   1800251e0:	48 8b 0f             	mov    (%rdi),%rcx
   1800251e3:	48 8b 47 08          	mov    0x8(%rdi),%rax
   1800251e7:	4c 8d 44 24 70       	lea    0x70(%rsp),%r8
   1800251ec:	8b 59 20             	mov    0x20(%rcx),%ebx
   1800251ef:	48 8b 49 30          	mov    0x30(%rcx),%rcx
   1800251f3:	33 d2                	xor    %edx,%edx
   1800251f5:	48 03 58 20          	add    0x20(%rax),%rbx
   1800251f9:	e8 6a b7 ff ff       	call   0x180020968
   1800251fe:	48 8b 44 24 70       	mov    0x70(%rsp),%rax
   180025203:	4c 8d 5c 24 68       	lea    0x68(%rsp),%r11
   180025208:	4c 8d 4c 24 30       	lea    0x30(%rsp),%r9
   18002520d:	4c 8d 44 24 78       	lea    0x78(%rsp),%r8
   180025212:	48 8b c8             	mov    %rax,%rcx
   180025215:	48 8b d3             	mov    %rbx,%rdx
   180025218:	4c 89 5c 24 20       	mov    %r11,0x20(%rsp)
   18002521d:	ff 10                	call   *(%rax)
   18002521f:	44 8b 4c 24 68       	mov    0x68(%rsp),%r9d
   180025224:	4c 8b 5f 08          	mov    0x8(%rdi),%r11
   180025228:	41 8b 43 40          	mov    0x40(%r11),%eax
   18002522c:	48 8b 54 24 78       	mov    0x78(%rsp),%rdx
   180025231:	48 8b 4c 24 30       	mov    0x30(%rsp),%rcx
   180025236:	83 e0 0f             	and    $0xf,%eax
   180025239:	45 33 c0             	xor    %r8d,%r8d
   18002523c:	44 0b c8             	or     %eax,%r9d
   18002523f:	48 8b 07             	mov    (%rdi),%rax
   180025242:	48 83 c0 28          	add    $0x28,%rax
   180025246:	44 89 4c 24 68       	mov    %r9d,0x68(%rsp)
   18002524b:	48 89 44 24 20       	mov    %rax,0x20(%rsp)
   180025250:	e8 c3 fc ff ff       	call   0x180024f18
   180025255:	48 8b ce             	mov    %rsi,%rcx
   180025258:	e8 ab a2 ff ff       	call   0x18001f508
   18002525d:	48 8b cf             	mov    %rdi,%rcx
   180025260:	e8 67 e3 ff ff       	call   0x1800235cc
   180025265:	48 83 c4 40          	add    $0x40,%rsp
   180025269:	5f                   	pop    %rdi
   18002526a:	5e                   	pop    %rsi
   18002526b:	5b                   	pop    %rbx
   18002526c:	c3                   	ret
   18002526d:	cc                   	int3
   18002526e:	cc                   	int3
   18002526f:	cc                   	int3
   180025270:	40 53                	rex push %rbx
   180025272:	48 83 ec 20          	sub    $0x20,%rsp
   180025276:	48 8b d9             	mov    %rcx,%rbx
   180025279:	48 83 c1 08          	add    $0x8,%rcx
   18002527d:	e8 de d8 01 00       	call   0x180042b60
   180025282:	48 8b 53 28          	mov    0x28(%rbx),%rdx
   180025286:	48 85 d2             	test   %rdx,%rdx
   180025289:	74 0c                	je     0x180025297
   18002528b:	48 8d 0d 4e 89 02 00 	lea    0x2894e(%rip),%rcx        # 0x18004dbe0
   180025292:	e8 61 fe ff ff       	call   0x1800250f8
   180025297:	48 8b cb             	mov    %rbx,%rcx
   18002529a:	48 83 c4 20          	add    $0x20,%rsp
   18002529e:	5b                   	pop    %rbx
   18002529f:	e9 28 e3 ff ff       	jmp    0x1800235cc
   1800252a4:	40 53                	rex push %rbx
   1800252a6:	55                   	push   %rbp
   1800252a7:	56                   	push   %rsi
   1800252a8:	57                   	push   %rdi
   1800252a9:	41 54                	push   %r12
   1800252ab:	41 55                	push   %r13
   1800252ad:	48 83 ec 58          	sub    $0x58,%rsp
   1800252b1:	8b da                	mov    %edx,%ebx
   1800252b3:	48 8b f1             	mov    %rcx,%rsi
   1800252b6:	49 8b e8             	mov    %r8,%rbp
   1800252b9:	48 03 59 20          	add    0x20(%rcx),%rbx
   1800252bd:	b9 38 00 00 00       	mov    $0x38,%ecx
   1800252c2:	44 8b e2             	mov    %edx,%r12d
   1800252c5:	e8 da f6 ff ff       	call   0x1800249a4
   1800252ca:	48 8b f8             	mov    %rax,%rdi
   1800252cd:	48 89 45 00          	mov    %rax,0x0(%rbp)
   1800252d1:	48 85 c0             	test   %rax,%rax
   1800252d4:	75 0f                	jne    0x1800252e5
   1800252d6:	48 b8 09 00 00 00 00 	movabs $0x8000000000000009,%rax
   1800252dd:	00 00 80
   1800252e0:	e9 c2 01 00 00       	jmp    0x1800254a7
   1800252e5:	c7 00 53 58 43 53    	movl   $0x53435853,(%rax)
   1800252eb:	0f b6 4b 03          	movzbl 0x3(%rbx),%ecx
   1800252ef:	4c 8d 6f 28          	lea    0x28(%rdi),%r13
   1800252f3:	89 48 18             	mov    %ecx,0x18(%rax)
   1800252f6:	8b 03                	mov    (%rbx),%eax
   1800252f8:	49 83 65 00 00       	andq   $0x0,0x0(%r13)
   1800252fd:	48 83 67 30 00       	andq   $0x0,0x30(%rdi)
   180025302:	25 ff ff ff 00       	and    $0xffffff,%eax
   180025307:	83 e9 01             	sub    $0x1,%ecx
   18002530a:	89 47 1c             	mov    %eax,0x1c(%rdi)
   18002530d:	44 89 67 20          	mov    %r12d,0x20(%rdi)
   180025311:	0f 84 9d 01 00 00    	je     0x1800254b4
   180025317:	83 f9 01             	cmp    $0x1,%ecx
   18002531a:	0f 85 78 01 00 00    	jne    0x180025498
   180025320:	48 8d 4b 04          	lea    0x4(%rbx),%rcx
   180025324:	4c 8d 44 24 48       	lea    0x48(%rsp),%r8
   180025329:	33 d2                	xor    %edx,%edx
   18002532b:	48 89 4f 30          	mov    %rcx,0x30(%rdi)
   18002532f:	e8 34 b6 ff ff       	call   0x180020968
   180025334:	49 bc 00 00 00 00 00 	movabs $0x8000000000000000,%r12
   18002533b:	00 00 80
   18002533e:	49 85 c4             	test   %rax,%r12
   180025341:	0f 85 9a 00 00 00    	jne    0x1800253e1
   180025347:	48 8d 84 24 98 00 00 	lea    0x98(%rsp),%rax
   18002534e:	00
   18002534f:	4c 8d 8c 24 a0 00 00 	lea    0xa0(%rsp),%r9
   180025356:	00
   180025357:	4c 8d 84 24 a8 00 00 	lea    0xa8(%rsp),%r8
   18002535e:	00
   18002535f:	48 89 44 24 20       	mov    %rax,0x20(%rsp)
   180025364:	48 8b 44 24 48       	mov    0x48(%rsp),%rax
   180025369:	48 8b d3             	mov    %rbx,%rdx
   18002536c:	48 8b c8             	mov    %rax,%rcx
   18002536f:	ff 10                	call   *(%rax)
   180025371:	49 85 c4             	test   %rax,%r12
   180025374:	74 18                	je     0x18002538e
   180025376:	48 8b 4d 00          	mov    0x0(%rbp),%rcx
   18002537a:	e8 4d e2 ff ff       	call   0x1800235cc
   18002537f:	48 b8 18 00 00 00 00 	movabs $0x8000000000000018,%rax
   180025386:	00 00 80
   180025389:	e9 19 01 00 00       	jmp    0x1800254a7
   18002538e:	f6 43 16 02          	testb  $0x2,0x16(%rbx)
   180025392:	74 13                	je     0x1800253a7
   180025394:	8b 46 40             	mov    0x40(%rsi),%eax
   180025397:	44 8b 8c 24 98 00 00 	mov    0x98(%rsp),%r9d
   18002539e:	00
   18002539f:	83 e0 0f             	and    $0xf,%eax
   1800253a2:	44 0b c8             	or     %eax,%r9d
   1800253a5:	eb 04                	jmp    0x1800253ab
   1800253a7:	44 8b 4e 40          	mov    0x40(%rsi),%r9d
   1800253ab:	48 8b 94 24 a8 00 00 	mov    0xa8(%rsp),%rdx
   1800253b2:	00
   1800253b3:	48 8b 8c 24 a0 00 00 	mov    0xa0(%rsp),%rcx
   1800253ba:	00
   1800253bb:	45 33 c0             	xor    %r8d,%r8d
   1800253be:	44 89 8c 24 98 00 00 	mov    %r9d,0x98(%rsp)
   1800253c5:	00
   1800253c6:	4c 89 6c 24 20       	mov    %r13,0x20(%rsp)
   1800253cb:	e8 48 fb ff ff       	call   0x180024f18
   1800253d0:	48 8b d8             	mov    %rax,%rbx
   1800253d3:	49 85 c4             	test   %rax,%r12
   1800253d6:	74 6f                	je     0x180025447
   1800253d8:	48 8b 4d 00          	mov    0x0(%rbp),%rcx
   1800253dc:	e9 4d 02 00 00       	jmp    0x18002562e
   1800253e1:	f6 43 16 01          	testb  $0x1,0x16(%rbx)
   1800253e5:	75 8f                	jne    0x180025376
   1800253e7:	44 8b 4e 40          	mov    0x40(%rsi),%r9d
   1800253eb:	44 89 8c 24 98 00 00 	mov    %r9d,0x98(%rsp)
   1800253f2:	00
   1800253f3:	f6 43 16 02          	testb  $0x2,0x16(%rbx)
   1800253f7:	74 1f                	je     0x180025418
   1800253f9:	41 81 e1 ff ff f6 ff 	and    $0xfff6ffff,%r9d
   180025400:	41 81 c9 00 00 06 00 	or     $0x60000,%r9d
   180025407:	41 8b c1             	mov    %r9d,%eax
   18002540a:	c1 e8 10             	shr    $0x10,%eax
   18002540d:	44 0b c8             	or     %eax,%r9d
   180025410:	44 89 8c 24 98 00 00 	mov    %r9d,0x98(%rsp)
   180025417:	00
   180025418:	0f b7 43 14          	movzwl 0x14(%rbx),%eax
   18002541c:	8b 0b                	mov    (%rbx),%ecx
   18002541e:	41 b0 01             	mov    $0x1,%r8b
   180025421:	81 e1 ff ff ff 00    	and    $0xffffff,%ecx
   180025427:	48 8d 14 03          	lea    (%rbx,%rax,1),%rdx
   18002542b:	4c 89 6c 24 20       	mov    %r13,0x20(%rsp)
   180025430:	2b c8                	sub    %eax,%ecx
   180025432:	e8 e1 fa ff ff       	call   0x180024f18
   180025437:	48 8b d8             	mov    %rax,%rbx
   18002543a:	49 85 c4             	test   %rax,%r12
   18002543d:	74 08                	je     0x180025447
   18002543f:	48 8b cf             	mov    %rdi,%rcx
   180025442:	e9 f4 01 00 00       	jmp    0x18002563b
   180025447:	8b 84 24 98 00 00 00 	mov    0x98(%rsp),%eax
   18002544e:	25 00 00 0f 00       	and    $0xf0000,%eax
   180025453:	3d 00 00 06 00       	cmp    $0x60000,%eax
   180025458:	75 3e                	jne    0x180025498
   18002545a:	b9 20 00 00 00       	mov    $0x20,%ecx
   18002545f:	e8 40 f5 ff ff       	call   0x1800249a4
   180025464:	c6 44 24 28 00       	movb   $0x0,0x28(%rsp)
   180025469:	4c 8d 05 40 fd ff ff 	lea    -0x2c0(%rip),%r8        # 0x1800251b0
   180025470:	48 8d 48 10          	lea    0x10(%rax),%rcx
   180025474:	48 89 38             	mov    %rdi,(%rax)
   180025477:	48 89 70 08          	mov    %rsi,0x8(%rax)
   18002547b:	48 89 4c 24 20       	mov    %rcx,0x20(%rsp)
   180025480:	48 8b 4f 30          	mov    0x30(%rdi),%rcx
   180025484:	4c 8b c8             	mov    %rax,%r9
   180025487:	ba 10 00 00 00       	mov    $0x10,%edx
   18002548c:	48 8b d8             	mov    %rax,%rbx
   18002548f:	e8 74 f7 ff ff       	call   0x180024c08
   180025494:	48 89 43 18          	mov    %rax,0x18(%rbx)
   180025498:	48 8d 57 08          	lea    0x8(%rdi),%rdx
   18002549c:	48 8d 4e 30          	lea    0x30(%rsi),%rcx
   1800254a0:	e8 cb d6 01 00       	call   0x180042b70
   1800254a5:	33 c0                	xor    %eax,%eax
   1800254a7:	48 83 c4 58          	add    $0x58,%rsp
   1800254ab:	41 5d                	pop    %r13
   1800254ad:	41 5c                	pop    %r12
   1800254af:	5f                   	pop    %rdi
   1800254b0:	5e                   	pop    %rsi
   1800254b1:	5d                   	pop    %rbp
   1800254b2:	5b                   	pop    %rbx
   1800254b3:	c3                   	ret
   1800254b4:	83 7b 04 00          	cmpl   $0x0,0x4(%rbx)
   1800254b8:	49 bc 00 00 00 00 00 	movabs $0x8000000000000000,%r12
   1800254bf:	00 00 80
   1800254c2:	0f 86 29 01 00 00    	jbe    0x1800255f1
   1800254c8:	8b 4b 04             	mov    0x4(%rbx),%ecx
   1800254cb:	48 89 8c 24 a0 00 00 	mov    %rcx,0xa0(%rsp)
   1800254d2:	00
   1800254d3:	e8 cc f4 ff ff       	call   0x1800249a4
   1800254d8:	48 89 84 24 a8 00 00 	mov    %rax,0xa8(%rsp)
   1800254df:	00
   1800254e0:	48 85 c0             	test   %rax,%rax
   1800254e3:	75 0d                	jne    0x1800254f2
   1800254e5:	48 8b cf             	mov    %rdi,%rcx
   1800254e8:	e8 df e0 ff ff       	call   0x1800235cc
   1800254ed:	e9 e4 fd ff ff       	jmp    0x1800252d6
   1800254f2:	8a 4b 08             	mov    0x8(%rbx),%cl
   1800254f5:	84 c9                	test   %cl,%cl
   1800254f7:	75 19                	jne    0x180025512
   1800254f9:	4c 8b 84 24 a0 00 00 	mov    0xa0(%rsp),%r8
   180025500:	00
   180025501:	48 8d 53 09          	lea    0x9(%rbx),%rdx
   180025505:	48 8b c8             	mov    %rax,%rcx
   180025508:	e8 1b a1 ff ff       	call   0x18001f628
   18002550d:	e9 d5 00 00 00       	jmp    0x1800255e7
   180025512:	80 f9 01             	cmp    $0x1,%cl
   180025515:	74 0e                	je     0x180025525
   180025517:	80 f9 02             	cmp    $0x2,%cl
   18002551a:	0f 85 e3 00 00 00    	jne    0x180025603
   180025520:	80 f9 01             	cmp    $0x1,%cl
   180025523:	75 09                	jne    0x18002552e
   180025525:	48 8d 0d 84 87 02 00 	lea    0x28784(%rip),%rcx        # 0x18004dcb0
   18002552c:	eb 07                	jmp    0x180025535
   18002552e:	48 8d 0d 6b 87 02 00 	lea    0x2876b(%rip),%rcx        # 0x18004dca0
   180025535:	4c 8d 44 24 40       	lea    0x40(%rsp),%r8
   18002553a:	33 d2                	xor    %edx,%edx
   18002553c:	e8 27 b4 ff ff       	call   0x180020968
   180025541:	49 85 c4             	test   %rax,%r12
   180025544:	74 0f                	je     0x180025555
   180025546:	48 bb 18 00 00 00 00 	movabs $0x8000000000000018,%rbx
   18002554d:	00 00 80
   180025550:	e9 d6 00 00 00       	jmp    0x18002562b
   180025555:	44 8b 47 1c          	mov    0x1c(%rdi),%r8d
   180025559:	48 8d 84 24 90 00 00 	lea    0x90(%rsp),%rax
   180025560:	00
   180025561:	48 8d 6b 09          	lea    0x9(%rbx),%rbp
   180025565:	48 89 44 24 20       	mov    %rax,0x20(%rsp)
   18002556a:	48 8b 44 24 40       	mov    0x40(%rsp),%rax
   18002556f:	4c 8d 8c 24 a0 00 00 	lea    0xa0(%rsp),%r9
   180025576:	00
   180025577:	41 83 e8 09          	sub    $0x9,%r8d
   18002557b:	48 8b d5             	mov    %rbp,%rdx
   18002557e:	48 8b c8             	mov    %rax,%rcx
   180025581:	ff 10                	call   *(%rax)
   180025583:	8b 8c 24 90 00 00 00 	mov    0x90(%rsp),%ecx
   18002558a:	e8 15 f4 ff ff       	call   0x1800249a4
   18002558f:	48 8b d8             	mov    %rax,%rbx
   180025592:	48 85 c0             	test   %rax,%rax
   180025595:	75 0f                	jne    0x1800255a6
   180025597:	48 bb 09 00 00 00 00 	movabs $0x8000000000000009,%rbx
   18002559e:	00 00 80
   1800255a1:	e9 85 00 00 00       	jmp    0x18002562b
   1800255a6:	8b 84 24 90 00 00 00 	mov    0x90(%rsp),%eax
   1800255ad:	44 8b 47 1c          	mov    0x1c(%rdi),%r8d
   1800255b1:	4c 8b 8c 24 a8 00 00 	mov    0xa8(%rsp),%r9
   1800255b8:	00
   1800255b9:	89 44 24 30          	mov    %eax,0x30(%rsp)
   1800255bd:	8b 84 24 a0 00 00 00 	mov    0xa0(%rsp),%eax
   1800255c4:	48 89 5c 24 28       	mov    %rbx,0x28(%rsp)
   1800255c9:	89 44 24 20          	mov    %eax,0x20(%rsp)
   1800255cd:	48 8b 44 24 40       	mov    0x40(%rsp),%rax
   1800255d2:	41 83 e8 09          	sub    $0x9,%r8d
   1800255d6:	48 8b c8             	mov    %rax,%rcx
   1800255d9:	48 8b d5             	mov    %rbp,%rdx
   1800255dc:	ff 50 08             	call   *0x8(%rax)
   1800255df:	48 8b cb             	mov    %rbx,%rcx
   1800255e2:	e8 e5 df ff ff       	call   0x1800235cc
   1800255e7:	48 8b 84 24 a8 00 00 	mov    0xa8(%rsp),%rax
   1800255ee:	00
   1800255ef:	eb 12                	jmp    0x180025603
   1800255f1:	33 c0                	xor    %eax,%eax
   1800255f3:	48 21 84 24 a0 00 00 	and    %rax,0xa0(%rsp)
   1800255fa:	00
   1800255fb:	48 89 84 24 a8 00 00 	mov    %rax,0xa8(%rsp)
   180025602:	00
   180025603:	44 8b 4e 40          	mov    0x40(%rsi),%r9d
   180025607:	48 8b 8c 24 a0 00 00 	mov    0xa0(%rsp),%rcx
   18002560e:	00
   18002560f:	45 33 c0             	xor    %r8d,%r8d
   180025612:	48 8b d0             	mov    %rax,%rdx
   180025615:	4c 89 6c 24 20       	mov    %r13,0x20(%rsp)
   18002561a:	e8 f9 f8 ff ff       	call   0x180024f18
   18002561f:	49 85 c4             	test   %rax,%r12
   180025622:	0f 84 70 fe ff ff    	je     0x180025498
   180025628:	48 8b d8             	mov    %rax,%rbx
   18002562b:	48 8b cf             	mov    %rdi,%rcx
   18002562e:	e8 99 df ff ff       	call   0x1800235cc
   180025633:	48 8b 8c 24 a8 00 00 	mov    0xa8(%rsp),%rcx
   18002563a:	00
   18002563b:	e8 8c df ff ff       	call   0x1800235cc
   180025640:	48 8b c3             	mov    %rbx,%rax
   180025643:	e9 5f fe ff ff       	jmp    0x1800254a7
   180025648:	48 8b c4             	mov    %rsp,%rax
   18002564b:	4c 89 48 20          	mov    %r9,0x20(%rax)
   18002564f:	4c 89 40 18          	mov    %r8,0x18(%rax)
   180025653:	88 50 10             	mov    %dl,0x10(%rax)
   180025656:	53                   	push   %rbx
   180025657:	55                   	push   %rbp
   180025658:	56                   	push   %rsi
   180025659:	57                   	push   %rdi
   18002565a:	48 83 ec 58          	sub    $0x58,%rsp
   18002565e:	48 83 60 08 00       	andq   $0x0,0x8(%rax)
   180025663:	48 83 79 28 00       	cmpq   $0x0,0x28(%rcx)
   180025668:	40 8a ea             	mov    %dl,%bpl
   18002566b:	48 8b f9             	mov    %rcx,%rdi
   18002566e:	48 be 0e 00 00 00 00 	movabs $0x800000000000000e,%rsi
   180025675:	00 00 80
   180025678:	75 08                	jne    0x180025682
   18002567a:	48 8b c6             	mov    %rsi,%rax
   18002567d:	e9 bd 00 00 00       	jmp    0x18002573f
   180025682:	48 83 c1 30          	add    $0x30,%rcx
   180025686:	e8 cd d4 01 00       	call   0x180042b58
   18002568b:	84 c0                	test   %al,%al
   18002568d:	74 2c                	je     0x1800256bb
   18002568f:	48 83 7f 28 04       	cmpq   $0x4,0x28(%rdi)
   180025694:	76 25                	jbe    0x1800256bb
   180025696:	4c 8d 84 24 80 00 00 	lea    0x80(%rsp),%r8
   18002569d:	00
   18002569e:	33 d2                	xor    %edx,%edx
   1800256a0:	48 8b cf             	mov    %rdi,%rcx
   1800256a3:	e8 fc fb ff ff       	call   0x1800252a4
   1800256a8:	48 b9 00 00 00 00 00 	movabs $0x8000000000000000,%rcx
   1800256af:	00 00 80
   1800256b2:	48 85 c1             	test   %rax,%rcx
   1800256b5:	0f 85 84 00 00 00    	jne    0x18002573f
   1800256bb:	48 8d 4f 30          	lea    0x30(%rdi),%rcx
   1800256bf:	e8 d4 d4 01 00       	call   0x180042b98
   1800256c4:	48 8d 58 f8          	lea    -0x8(%rax),%rbx
   1800256c8:	48 89 9c 24 80 00 00 	mov    %rbx,0x80(%rsp)
   1800256cf:	00
   1800256d0:	40 84 ed             	test   %bpl,%bpl
   1800256d3:	74 37                	je     0x18002570c
   1800256d5:	40 0f b6 c5          	movzbl %bpl,%eax
   1800256d9:	39 43 18             	cmp    %eax,0x18(%rbx)
   1800256dc:	75 6a                	jne    0x180025748
   1800256de:	40 80 fd 02          	cmp    $0x2,%bpl
   1800256e2:	75 22                	jne    0x180025706
   1800256e4:	48 8b 84 24 98 00 00 	mov    0x98(%rsp),%rax
   1800256eb:	00
   1800256ec:	48 85 c0             	test   %rax,%rax
   1800256ef:	74 15                	je     0x180025706
   1800256f1:	8b 4b 20             	mov    0x20(%rbx),%ecx
   1800256f4:	48 8b d0             	mov    %rax,%rdx
   1800256f7:	48 03 4f 20          	add    0x20(%rdi),%rcx
   1800256fb:	48 83 c1 04          	add    $0x4,%rcx
   1800256ff:	e8 a4 b9 00 00       	call   0x1800310a8
   180025704:	eb 02                	jmp    0x180025708
   180025706:	b0 01                	mov    $0x1,%al
   180025708:	84 c0                	test   %al,%al
   18002570a:	74 3c                	je     0x180025748
   18002570c:	48 8b 84 24 90 00 00 	mov    0x90(%rsp),%rax
   180025713:	00
   180025714:	48 83 00 ff          	addq   $0xffffffffffffffff,(%rax)
   180025718:	75 36                	jne    0x180025750
   18002571a:	48 8b 84 24 a0 00 00 	mov    0xa0(%rsp),%rax
   180025721:	00
   180025722:	48 8b 8c 24 b0 00 00 	mov    0xb0(%rsp),%rcx
   180025729:	00
   18002572a:	48 89 18             	mov    %rbx,(%rax)
   18002572d:	48 8b 84 24 a8 00 00 	mov    0xa8(%rsp),%rax
   180025734:	00
   180025735:	48 89 38             	mov    %rdi,(%rax)
   180025738:	8b 47 40             	mov    0x40(%rdi),%eax
   18002573b:	89 01                	mov    %eax,(%rcx)
   18002573d:	33 c0                	xor    %eax,%eax
   18002573f:	48 83 c4 58          	add    $0x58,%rsp
   180025743:	5f                   	pop    %rdi
   180025744:	5e                   	pop    %rsi
   180025745:	5d                   	pop    %rbp
   180025746:	5b                   	pop    %rbx
   180025747:	c3                   	ret
   180025748:	48 8b 84 24 90 00 00 	mov    0x90(%rsp),%rax
   18002574f:	00
   180025750:	48 83 7b 28 00       	cmpq   $0x0,0x28(%rbx)
   180025755:	74 4d                	je     0x1800257a4
   180025757:	48 8b 8c 24 b0 00 00 	mov    0xb0(%rsp),%rcx
   18002575e:	00
   18002575f:	4c 8b 8c 24 98 00 00 	mov    0x98(%rsp),%r9
   180025766:	00
   180025767:	4c 8b c0             	mov    %rax,%r8
   18002576a:	48 89 4c 24 30       	mov    %rcx,0x30(%rsp)
   18002576f:	48 8d 4c 24 48       	lea    0x48(%rsp),%rcx
   180025774:	40 8a d5             	mov    %bpl,%dl
   180025777:	48 89 4c 24 28       	mov    %rcx,0x28(%rsp)
   18002577c:	48 8d 4c 24 40       	lea    0x40(%rsp),%rcx
   180025781:	48 89 4c 24 20       	mov    %rcx,0x20(%rsp)
   180025786:	48 8b 4b 28          	mov    0x28(%rbx),%rcx
   18002578a:	e8 b9 fe ff ff       	call   0x180025648
   18002578f:	4c 8b 84 24 90 00 00 	mov    0x90(%rsp),%r8
   180025796:	00
   180025797:	49 83 38 00          	cmpq   $0x0,(%r8)
   18002579b:	48 8b f0             	mov    %rax,%rsi
   18002579e:	0f 84 86 00 00 00    	je     0x18002582a
   1800257a4:	48 8d 6b 08          	lea    0x8(%rbx),%rbp
   1800257a8:	48 8d 4f 30          	lea    0x30(%rdi),%rcx
   1800257ac:	48 8b d5             	mov    %rbp,%rdx
   1800257af:	e8 f4 d3 01 00       	call   0x180042ba8
   1800257b4:	84 c0                	test   %al,%al
   1800257b6:	75 1a                	jne    0x1800257d2
   1800257b8:	48 8d 4f 30          	lea    0x30(%rdi),%rcx
   1800257bc:	48 8b d5             	mov    %rbp,%rdx
   1800257bf:	e8 d8 d3 01 00       	call   0x180042b9c
   1800257c4:	48 8d 58 f8          	lea    -0x8(%rax),%rbx
   1800257c8:	48 89 9c 24 80 00 00 	mov    %rbx,0x80(%rsp)
   1800257cf:	00
   1800257d0:	eb 4b                	jmp    0x18002581d
   1800257d2:	8b 4b 20             	mov    0x20(%rbx),%ecx
   1800257d5:	8b 43 1c             	mov    0x1c(%rbx),%eax
   1800257d8:	8d 54 01 03          	lea    0x3(%rcx,%rax,1),%edx
   1800257dc:	48 8b 4f 28          	mov    0x28(%rdi),%rcx
   1800257e0:	83 e2 fc             	and    $0xfffffffc,%edx
   1800257e3:	48 83 e9 04          	sub    $0x4,%rcx
   1800257e7:	8b c2                	mov    %edx,%eax
   1800257e9:	48 3b c1             	cmp    %rcx,%rax
   1800257ec:	0f 87 88 fe ff ff    	ja     0x18002567a
   1800257f2:	4c 8d 84 24 80 00 00 	lea    0x80(%rsp),%r8
   1800257f9:	00
   1800257fa:	48 8b cf             	mov    %rdi,%rcx
   1800257fd:	e8 a2 fa ff ff       	call   0x1800252a4
   180025802:	48 b9 00 00 00 00 00 	movabs $0x8000000000000000,%rcx
   180025809:	00 00 80
   18002580c:	48 85 c1             	test   %rax,%rcx
   18002580f:	0f 85 2a ff ff ff    	jne    0x18002573f
   180025815:	48 8b 9c 24 80 00 00 	mov    0x80(%rsp),%rbx
   18002581c:	00
   18002581d:	40 8a ac 24 88 00 00 	mov    0x88(%rsp),%bpl
   180025824:	00
   180025825:	e9 a6 fe ff ff       	jmp    0x1800256d0
   18002582a:	48 8b 8c 24 a0 00 00 	mov    0xa0(%rsp),%rcx
   180025831:	00
   180025832:	48 8b 44 24 40       	mov    0x40(%rsp),%rax
   180025837:	48 89 01             	mov    %rax,(%rcx)
   18002583a:	48 8b 8c 24 a8 00 00 	mov    0xa8(%rsp),%rcx
   180025841:	00
   180025842:	48 8b 44 24 48       	mov    0x48(%rsp),%rax
   180025847:	48 89 01             	mov    %rax,(%rcx)
   18002584a:	e9 ee fe ff ff       	jmp    0x18002573d
   18002584f:	cc                   	int3
   180025850:	48 8b c4             	mov    %rsp,%rax
   180025853:	48 89 58 08          	mov    %rbx,0x8(%rax)
   180025857:	48 89 68 10          	mov    %rbp,0x10(%rax)
   18002585b:	48 89 70 18          	mov    %rsi,0x18(%rax)
   18002585f:	48 89 78 20          	mov    %rdi,0x20(%rax)
   180025863:	41 54                	push   %r12
   180025865:	41 55                	push   %r13
   180025867:	41 56                	push   %r14
   180025869:	48 83 ec 60          	sub    $0x60,%rsp
   18002586d:	b9 10 00 00 00       	mov    $0x10,%ecx
   180025872:	49 8b e9             	mov    %r9,%rbp
   180025875:	49 8b f0             	mov    %r8,%rsi
   180025878:	48 8b da             	mov    %rdx,%rbx
   18002587b:	e8 d0 ec ff ff       	call   0x180024550
   180025880:	48 8b 8c 24 a0 00 00 	mov    0xa0(%rsp),%rcx
   180025887:	00
   180025888:	48 ff c1             	inc    %rcx
   18002588b:	48 8d 94 24 a0 00 00 	lea    0xa0(%rsp),%rdx
   180025892:	00
   180025893:	4c 8b f0             	mov    %rax,%r14
   180025896:	48 89 4c 24 48       	mov    %rcx,0x48(%rsp)
   18002589b:	48 8b cb             	mov    %rbx,%rcx
   18002589e:	e8 65 f7 ff ff       	call   0x180025008
   1800258a3:	48 bb 00 00 00 00 00 	movabs $0x8000000000000000,%rbx
   1800258aa:	00 00 80
   1800258ad:	48 8b f8             	mov    %rax,%rdi
   1800258b0:	48 85 c3             	test   %rax,%rbx
   1800258b3:	74 0f                	je     0x1800258c4
   1800258b5:	48 bf 02 00 00 00 00 	movabs $0x8000000000000002,%rdi
   1800258bc:	00 00 80
   1800258bf:	e9 c6 00 00 00       	jmp    0x18002598a
   1800258c4:	48 85 f6             	test   %rsi,%rsi
   1800258c7:	75 1f                	jne    0x1800258e8
   1800258c9:	48 8b 84 24 a0 00 00 	mov    0xa0(%rsp),%rax
   1800258d0:	00
   1800258d1:	48 8b 58 28          	mov    0x28(%rax),%rbx
   1800258d5:	4c 8b 60 20          	mov    0x20(%rax),%r12
   1800258d9:	8b 48 40             	mov    0x40(%rax),%ecx
   1800258dc:	48 8b 84 24 b8 00 00 	mov    0xb8(%rsp),%rax
   1800258e3:	00
   1800258e4:	89 08                	mov    %ecx,(%rax)
   1800258e6:	eb 68                	jmp    0x180025950
   1800258e8:	8a 16                	mov    (%rsi),%dl
   1800258ea:	48 8b 8c 24 a0 00 00 	mov    0xa0(%rsp),%rcx
   1800258f1:	00
   1800258f2:	48 8d 44 24 40       	lea    0x40(%rsp),%rax
   1800258f7:	48 89 44 24 30       	mov    %rax,0x30(%rsp)
   1800258fc:	48 8d 44 24 58       	lea    0x58(%rsp),%rax
   180025901:	4c 8d 44 24 48       	lea    0x48(%rsp),%r8
   180025906:	48 89 44 24 28       	mov    %rax,0x28(%rsp)
   18002590b:	48 8d 44 24 50       	lea    0x50(%rsp),%rax
   180025910:	4c 8b cd             	mov    %rbp,%r9
   180025913:	48 89 44 24 20       	mov    %rax,0x20(%rsp)
   180025918:	e8 2b fd ff ff       	call   0x180025648
   18002591d:	48 8b f8             	mov    %rax,%rdi
   180025920:	48 85 c3             	test   %rax,%rbx
   180025923:	75 65                	jne    0x18002598a
   180025925:	48 8b 44 24 50       	mov    0x50(%rsp),%rax
   18002592a:	8b 58 1c             	mov    0x1c(%rax),%ebx
   18002592d:	8b 50 20             	mov    0x20(%rax),%edx
   180025930:	48 8b 44 24 58       	mov    0x58(%rsp),%rax
   180025935:	48 8b 48 20          	mov    0x20(%rax),%rcx
   180025939:	8b 44 24 40          	mov    0x40(%rsp),%eax
   18002593d:	48 83 eb 04          	sub    $0x4,%rbx
   180025941:	4c 8d 64 0a 04       	lea    0x4(%rdx,%rcx,1),%r12
   180025946:	48 8b 8c 24 b8 00 00 	mov    0xb8(%rsp),%rcx
   18002594d:	00
   18002594e:	89 01                	mov    %eax,(%rcx)
   180025950:	48 8b b4 24 a8 00 00 	mov    0xa8(%rsp),%rsi
   180025957:	00
   180025958:	48 8b ac 24 b0 00 00 	mov    0xb0(%rsp),%rbp
   18002595f:	00
   180025960:	4c 8b eb             	mov    %rbx,%r13
   180025963:	48 83 3e 00          	cmpq   $0x0,(%rsi)
   180025967:	74 4b                	je     0x1800259b4
   180025969:	48 39 5d 00          	cmp    %rbx,0x0(%rbp)
   18002596d:	73 09                	jae    0x180025978
   18002596f:	48 8b 5d 00          	mov    0x0(%rbp),%rbx
   180025973:	bf 04 00 00 00       	mov    $0x4,%edi
   180025978:	48 8b 0e             	mov    (%rsi),%rcx
   18002597b:	4c 8b c3             	mov    %rbx,%r8
   18002597e:	49 8b d4             	mov    %r12,%rdx
   180025981:	e8 a2 9c ff ff       	call   0x18001f628
   180025986:	4c 89 6d 00          	mov    %r13,0x0(%rbp)
   18002598a:	49 8b ce             	mov    %r14,%rcx
   18002598d:	e8 06 ec ff ff       	call   0x180024598
   180025992:	4c 8d 5c 24 60       	lea    0x60(%rsp),%r11
   180025997:	48 8b c7             	mov    %rdi,%rax
   18002599a:	49 8b 5b 20          	mov    0x20(%r11),%rbx
   18002599e:	49 8b 6b 28          	mov    0x28(%r11),%rbp
   1800259a2:	49 8b 73 30          	mov    0x30(%r11),%rsi
   1800259a6:	49 8b 7b 38          	mov    0x38(%r11),%rdi
   1800259aa:	49 8b e3             	mov    %r11,%rsp
   1800259ad:	41 5e                	pop    %r14
   1800259af:	41 5d                	pop    %r13
   1800259b1:	41 5c                	pop    %r12
   1800259b3:	c3                   	ret
   1800259b4:	48 8b cb             	mov    %rbx,%rcx
   1800259b7:	e8 e8 ef ff ff       	call   0x1800249a4
   1800259bc:	48 89 06             	mov    %rax,(%rsi)
   1800259bf:	48 85 c0             	test   %rax,%rax
   1800259c2:	75 b4                	jne    0x180025978
   1800259c4:	48 bf 09 00 00 00 00 	movabs $0x8000000000000009,%rdi
   1800259cb:	00 00 80
   1800259ce:	eb ba                	jmp    0x18002598a
   1800259d0:	4c 8b dc             	mov    %rsp,%r11
   1800259d3:	49 89 5b 10          	mov    %rbx,0x10(%r11)
   1800259d7:	49 89 73 18          	mov    %rsi,0x18(%r11)
   1800259db:	57                   	push   %rdi
   1800259dc:	48 83 ec 70          	sub    $0x70,%rsp
   1800259e0:	49 8d 43 b8          	lea    -0x48(%r11),%rax
   1800259e4:	48 8b da             	mov    %rdx,%rbx
   1800259e7:	4d 8d 4b 08          	lea    0x8(%r11),%r9
   1800259eb:	48 8b f9             	mov    %rcx,%rdi
   1800259ee:	be 40 00 00 00       	mov    $0x40,%esi
   1800259f3:	45 33 c0             	xor    %r8d,%r8d
   1800259f6:	33 d2                	xor    %edx,%edx
   1800259f8:	49 89 43 a8          	mov    %rax,-0x58(%r11)
   1800259fc:	49 89 73 08          	mov    %rsi,0x8(%r11)
   180025a00:	ff 57 20             	call   *0x20(%rdi)
   180025a03:	0f b7 4c 24 60       	movzwl 0x60(%rsp),%ecx
   180025a08:	e8 97 ef ff ff       	call   0x1800249a4
   180025a0d:	48 89 03             	mov    %rax,(%rbx)
   180025a10:	48 85 c0             	test   %rax,%rax
   180025a13:	75 0c                	jne    0x180025a21
   180025a15:	48 b8 09 00 00 00 00 	movabs $0x8000000000000009,%rax
   180025a1c:	00 00 80
   180025a1f:	eb 5c                	jmp    0x180025a7d
   180025a21:	48 8d 54 24 30       	lea    0x30(%rsp),%rdx
   180025a26:	4c 8b c6             	mov    %rsi,%r8
   180025a29:	48 8b c8             	mov    %rax,%rcx
   180025a2c:	e8 f7 9b ff ff       	call   0x18001f628
   180025a31:	44 0f b7 5c 24 60    	movzwl 0x60(%rsp),%r11d
   180025a37:	48 8b 03             	mov    (%rbx),%rax
   180025a3a:	4c 2b de             	sub    %rsi,%r11
   180025a3d:	48 03 c6             	add    %rsi,%rax
   180025a40:	4c 8d 8c 24 80 00 00 	lea    0x80(%rsp),%r9
   180025a47:	00
   180025a48:	4c 8b c6             	mov    %rsi,%r8
   180025a4b:	33 d2                	xor    %edx,%edx
   180025a4d:	48 8b cf             	mov    %rdi,%rcx
   180025a50:	4c 89 9c 24 80 00 00 	mov    %r11,0x80(%rsp)
   180025a57:	00
   180025a58:	48 89 44 24 20       	mov    %rax,0x20(%rsp)
   180025a5d:	ff 57 20             	call   *0x20(%rdi)
   180025a60:	48 8b f8             	mov    %rax,%rdi
   180025a63:	48 b8 00 00 00 00 00 	movabs $0x8000000000000000,%rax
   180025a6a:	00 00 80
   180025a6d:	48 85 f8             	test   %rdi,%rax
   180025a70:	74 08                	je     0x180025a7a
   180025a72:	48 8b 0b             	mov    (%rbx),%rcx
   180025a75:	e8 52 db ff ff       	call   0x1800235cc
   180025a7a:	48 8b c7             	mov    %rdi,%rax
   180025a7d:	4c 8d 5c 24 70       	lea    0x70(%rsp),%r11
   180025a82:	49 8b 5b 18          	mov    0x18(%r11),%rbx
   180025a86:	49 8b 73 20          	mov    0x20(%r11),%rsi
   180025a8a:	49 8b e3             	mov    %r11,%rsp
   180025a8d:	5f                   	pop    %rdi
   180025a8e:	c3                   	ret
   180025a8f:	cc                   	int3
   180025a90:	40 53                	rex push %rbx
   180025a92:	55                   	push   %rbp
   180025a93:	56                   	push   %rsi
   180025a94:	57                   	push   %rdi
   180025a95:	41 54                	push   %r12
   180025a97:	41 55                	push   %r13
   180025a99:	41 56                	push   %r14
   180025a9b:	48 83 ec 30          	sub    $0x30,%rsp
   180025a9f:	4c 8b 69 08          	mov    0x8(%rcx),%r13
   180025aa3:	48 8b 59 68          	mov    0x68(%rcx),%rbx
   180025aa7:	48 8b f9             	mov    %rcx,%rdi
   180025aaa:	48 8d 54 24 78       	lea    0x78(%rsp),%rdx
   180025aaf:	49 8b cd             	mov    %r13,%rcx
   180025ab2:	41 ff 55 00          	call   *0x0(%r13)
   180025ab6:	48 b9 00 00 00 00 00 	movabs $0x8000000000000000,%rcx
   180025abd:	00 00 80
   180025ac0:	48 85 c1             	test   %rax,%rcx
   180025ac3:	0f 85 23 02 00 00    	jne    0x180025cec
   180025ac9:	0f b7 43 30          	movzwl 0x30(%rbx),%eax
   180025acd:	48 8b 4b 20          	mov    0x20(%rbx),%rcx
   180025ad1:	48 2b c8             	sub    %rax,%rcx
   180025ad4:	48 89 8c 24 80 00 00 	mov    %rcx,0x80(%rsp)
   180025adb:	00
   180025adc:	e8 e3 ee ff ff       	call   0x1800249c4
   180025ae1:	48 8b e8             	mov    %rax,%rbp
   180025ae4:	48 89 47 70          	mov    %rax,0x70(%rdi)
   180025ae8:	48 85 c0             	test   %rax,%rax
   180025aeb:	75 0f                	jne    0x180025afc
   180025aed:	48 b8 09 00 00 00 00 	movabs $0x8000000000000009,%rax
   180025af4:	00 00 80
   180025af7:	e9 f0 01 00 00       	jmp    0x180025cec
   180025afc:	48 8b 8c 24 80 00 00 	mov    0x80(%rsp),%rcx
   180025b03:	00
   180025b04:	48 8d 73 38          	lea    0x38(%rbx),%rsi
   180025b08:	48 03 c8             	add    %rax,%rcx
   180025b0b:	45 33 f6             	xor    %r14d,%r14d
   180025b0e:	48 89 4f 78          	mov    %rcx,0x78(%rdi)
   180025b12:	44 0f b7 43 30       	movzwl 0x30(%rbx),%r8d
   180025b17:	83 3e 00             	cmpl   $0x0,(%rsi)
   180025b1a:	75 06                	jne    0x180025b22
   180025b1c:	83 7e 04 00          	cmpl   $0x0,0x4(%rsi)
   180025b20:	74 6e                	je     0x180025b90
   180025b22:	45 33 e4             	xor    %r12d,%r12d
   180025b25:	44 39 26             	cmp    %r12d,(%rsi)
   180025b28:	76 60                	jbe    0x180025b8a
   180025b2a:	8b 46 04             	mov    0x4(%rsi),%eax
   180025b2d:	48 89 84 24 80 00 00 	mov    %rax,0x80(%rsp)
   180025b34:	00
   180025b35:	4d 85 e4             	test   %r12,%r12
   180025b38:	75 0b                	jne    0x180025b45
   180025b3a:	49 2b c0             	sub    %r8,%rax
   180025b3d:	48 89 84 24 80 00 00 	mov    %rax,0x80(%rsp)
   180025b44:	00
   180025b45:	4c 8d 8c 24 80 00 00 	lea    0x80(%rsp),%r9
   180025b4c:	00
   180025b4d:	49 8b d6             	mov    %r14,%rdx
   180025b50:	49 8b cd             	mov    %r13,%rcx
   180025b53:	48 89 6c 24 20       	mov    %rbp,0x20(%rsp)
   180025b58:	41 ff 55 20          	call   *0x20(%r13)
   180025b5c:	48 8b d8             	mov    %rax,%rbx
   180025b5f:	48 b8 00 00 00 00 00 	movabs $0x8000000000000000,%rax
   180025b66:	00 00 80
   180025b69:	48 85 d8             	test   %rbx,%rax
   180025b6c:	0f 85 20 01 00 00    	jne    0x180025c92
   180025b72:	8b 06                	mov    (%rsi),%eax
   180025b74:	48 03 ac 24 80 00 00 	add    0x80(%rsp),%rbp
   180025b7b:	00
   180025b7c:	49 ff c4             	inc    %r12
   180025b7f:	45 33 c0             	xor    %r8d,%r8d
   180025b82:	49 ff c6             	inc    %r14
   180025b85:	4c 3b e0             	cmp    %rax,%r12
   180025b88:	72 a0                	jb     0x180025b2a
   180025b8a:	48 83 c6 08          	add    $0x8,%rsi
   180025b8e:	eb 87                	jmp    0x180025b17
   180025b90:	0f ba 64 24 78 0b    	btl    $0xb,0x78(%rsp)
   180025b96:	73 09                	jae    0x180025ba1
   180025b98:	c6 87 98 00 00 00 01 	movb   $0x1,0x98(%rdi)
   180025b9f:	eb 07                	jmp    0x180025ba8
   180025ba1:	c6 87 98 00 00 00 00 	movb   $0x0,0x98(%rdi)
   180025ba8:	48 8d 8f 88 00 00 00 	lea    0x88(%rdi),%rcx
   180025baf:	33 db                	xor    %ebx,%ebx
   180025bb1:	e8 9a cf 01 00       	call   0x180042b50
   180025bb6:	48 8b 77 70          	mov    0x70(%rdi),%rsi
   180025bba:	4c 8b 67 78          	mov    0x78(%rdi),%r12
   180025bbe:	49 3b f4             	cmp    %r12,%rsi
   180025bc1:	0f 83 cb 00 00 00    	jae    0x180025c92
   180025bc7:	44 8d 73 18          	lea    0x18(%rbx),%r14d
   180025bcb:	8a 8f 98 00 00 00    	mov    0x98(%rdi),%cl
   180025bd1:	4d 8b c4             	mov    %r12,%r8
   180025bd4:	48 8b d6             	mov    %rsi,%rdx
   180025bd7:	4c 2b c6             	sub    %rsi,%r8
   180025bda:	4d 3b c6             	cmp    %r14,%r8
   180025bdd:	4d 0f 47 c6          	cmova  %r14,%r8
   180025be1:	e8 36 2b 01 00       	call   0x18003871c
   180025be6:	84 c0                	test   %al,%al
   180025be8:	0f 85 a4 00 00 00    	jne    0x180025c92
   180025bee:	8a 8f 98 00 00 00    	mov    0x98(%rdi),%cl
   180025bf4:	4c 8d 44 24 70       	lea    0x70(%rsp),%r8
   180025bf9:	48 8b d6             	mov    %rsi,%rdx
   180025bfc:	e8 67 2b 01 00       	call   0x180038768
   180025c01:	84 c0                	test   %al,%al
   180025c03:	75 11                	jne    0x180025c16
   180025c05:	8a 44 24 70          	mov    0x70(%rsp),%al
   180025c09:	3c 20                	cmp    $0x20,%al
   180025c0b:	74 04                	je     0x180025c11
   180025c0d:	3c 01                	cmp    $0x1,%al
   180025c0f:	75 77                	jne    0x180025c88
   180025c11:	49 03 f6             	add    %r14,%rsi
   180025c14:	eb 5c                	jmp    0x180025c72
   180025c16:	8a 8f 98 00 00 00    	mov    0x98(%rdi),%cl
   180025c1c:	48 8b d6             	mov    %rsi,%rdx
   180025c1f:	e8 94 2b 01 00       	call   0x1800387b8
   180025c24:	84 c0                	test   %al,%al
   180025c26:	74 60                	je     0x180025c88
   180025c28:	8b 6e 14             	mov    0x14(%rsi),%ebp
   180025c2b:	8a 8f 98 00 00 00    	mov    0x98(%rdi),%cl
   180025c31:	48 8b d6             	mov    %rsi,%rdx
   180025c34:	81 e5 ff ff ff 00    	and    $0xffffff,%ebp
   180025c3a:	e8 c5 2a 01 00       	call   0x180038704
   180025c3f:	88 44 24 70          	mov    %al,0x70(%rsp)
   180025c43:	3c 10                	cmp    $0x10,%al
   180025c45:	74 22                	je     0x180025c69
   180025c47:	b9 28 00 00 00       	mov    $0x28,%ecx
   180025c4c:	e8 73 ed ff ff       	call   0x1800249c4
   180025c51:	48 85 c0             	test   %rax,%rax
   180025c54:	74 26                	je     0x180025c7c
   180025c56:	48 8d 8f 88 00 00 00 	lea    0x88(%rdi),%rcx
   180025c5d:	48 8b d0             	mov    %rax,%rdx
   180025c60:	48 89 70 10          	mov    %rsi,0x10(%rax)
   180025c64:	e8 07 cf 01 00       	call   0x180042b70
   180025c69:	48 8d 74 2e 07       	lea    0x7(%rsi,%rbp,1),%rsi
   180025c6e:	48 83 e6 f8          	and    $0xfffffffffffffff8,%rsi
   180025c72:	49 3b f4             	cmp    %r12,%rsi
   180025c75:	73 1b                	jae    0x180025c92
   180025c77:	e9 4f ff ff ff       	jmp    0x180025bcb
   180025c7c:	48 bb 09 00 00 00 00 	movabs $0x8000000000000009,%rbx
   180025c83:	00 00 80
   180025c86:	eb 0a                	jmp    0x180025c92
   180025c88:	48 bb 0a 00 00 00 00 	movabs $0x800000000000000a,%rbx
   180025c8f:	00 00 80
   180025c92:	48 be 00 00 00 00 00 	movabs $0x8000000000000000,%rsi
   180025c99:	00 00 80
   180025c9c:	48 85 de             	test   %rbx,%rsi
   180025c9f:	74 48                	je     0x180025ce9
   180025ca1:	48 8d af 88 00 00 00 	lea    0x88(%rdi),%rbp
   180025ca8:	48 8b 75 00          	mov    0x0(%rbp),%rsi
   180025cac:	48 3b f5             	cmp    %rbp,%rsi
   180025caf:	74 26                	je     0x180025cd7
   180025cb1:	48 8b 56 18          	mov    0x18(%rsi),%rdx
   180025cb5:	4c 8b 26             	mov    (%rsi),%r12
   180025cb8:	48 85 d2             	test   %rdx,%rdx
   180025cbb:	74 0a                	je     0x180025cc7
   180025cbd:	48 8b 46 20          	mov    0x20(%rsi),%rax
   180025cc1:	48 8b c8             	mov    %rax,%rcx
   180025cc4:	ff 50 10             	call   *0x10(%rax)
   180025cc7:	48 8b ce             	mov    %rsi,%rcx
   180025cca:	e8 fd d8 ff ff       	call   0x1800235cc
   180025ccf:	49 8b f4             	mov    %r12,%rsi
   180025cd2:	4c 3b e5             	cmp    %rbp,%r12
   180025cd5:	75 da                	jne    0x180025cb1
   180025cd7:	48 8b 4f 70          	mov    0x70(%rdi),%rcx
   180025cdb:	e8 ec d8 ff ff       	call   0x1800235cc
   180025ce0:	48 8b 4f 68          	mov    0x68(%rdi),%rcx
   180025ce4:	e8 e3 d8 ff ff       	call   0x1800235cc
   180025ce9:	48 8b c3             	mov    %rbx,%rax
   180025cec:	48 83 c4 30          	add    $0x30,%rsp
   180025cf0:	41 5e                	pop    %r14
   180025cf2:	41 5d                	pop    %r13
   180025cf4:	41 5c                	pop    %r12
   180025cf6:	5f                   	pop    %rdi
   180025cf7:	5e                   	pop    %rsi
   180025cf8:	5d                   	pop    %rbp
   180025cf9:	5b                   	pop    %rbx
   180025cfa:	c3                   	ret
   180025cfb:	cc                   	int3
   180025cfc:	4c 8b dc             	mov    %rsp,%r11
   180025cff:	49 89 5b 08          	mov    %rbx,0x8(%r11)
   180025d03:	49 89 7b 10          	mov    %rdi,0x10(%r11)
   180025d07:	41 54                	push   %r12
   180025d09:	48 83 ec 50          	sub    $0x50,%rsp
   180025d0d:	4c 8b 05 ac bc 02 00 	mov    0x2bcac(%rip),%r8        # 0x1800519c0
   180025d14:	33 d2                	xor    %edx,%edx
   180025d16:	49 8d 43 18          	lea    0x18(%r11),%rax
   180025d1a:	4d 8d 4b d8          	lea    -0x28(%r11),%r9
   180025d1e:	8d 4a 01             	lea    0x1(%rdx),%ecx
   180025d21:	49 c7 43 d8 08 00 00 	movq   $0x8,-0x28(%r11)
   180025d28:	00
   180025d29:	49 89 43 c8          	mov    %rax,-0x38(%r11)
   180025d2d:	e8 1e ad ff ff       	call   0x180020a50
   180025d32:	49 bc 0e 00 00 00 00 	movabs $0x800000000000000e,%r12
   180025d39:	00 00 80
   180025d3c:	49 3b c4             	cmp    %r12,%rax
   180025d3f:	0f 84 2f 01 00 00    	je     0x180025e74
   180025d45:	48 bf 00 00 00 00 00 	movabs $0x8000000000000000,%rdi
   180025d4c:	00 00 80
   180025d4f:	48 85 c7             	test   %rax,%rdi
   180025d52:	0f 85 ea 00 00 00    	jne    0x180025e42
   180025d58:	48 8b 4c 24 70       	mov    0x70(%rsp),%rcx
   180025d5d:	4c 8d 44 24 78       	lea    0x78(%rsp),%r8
   180025d62:	48 8d 15 77 a5 02 00 	lea    0x2a577(%rip),%rdx        # 0x1800502e0
   180025d69:	e8 3e a6 ff ff       	call   0x1800203ac
   180025d6e:	48 8b 4c 24 78       	mov    0x78(%rsp),%rcx
   180025d73:	48 8d 54 24 38       	lea    0x38(%rsp),%rdx
   180025d78:	e8 53 fc ff ff       	call   0x1800259d0
   180025d7d:	48 85 c7             	test   %rax,%rdi
   180025d80:	0f 85 ee 00 00 00    	jne    0x180025e74
   180025d86:	48 8b 5c 24 38       	mov    0x38(%rsp),%rbx
   180025d8b:	48 8b cb             	mov    %rbx,%rcx
   180025d8e:	e8 ad 29 01 00       	call   0x180038740
   180025d93:	84 c0                	test   %al,%al
   180025d95:	75 0d                	jne    0x180025da4
   180025d97:	48 8b cb             	mov    %rbx,%rcx
   180025d9a:	e8 2d d8 ff ff       	call   0x1800235cc
   180025d9f:	e9 9e 00 00 00       	jmp    0x180025e42
   180025da4:	48 8d 4b 10          	lea    0x10(%rbx),%rcx
   180025da8:	48 8d 15 61 89 02 00 	lea    0x28961(%rip),%rdx        # 0x18004e710
   180025daf:	e8 f4 b2 00 00       	call   0x1800310a8
   180025db4:	84 c0                	test   %al,%al
   180025db6:	0f 84 86 00 00 00    	je     0x180025e42
   180025dbc:	48 8b 4c 24 70       	mov    0x70(%rsp),%rcx
   180025dc1:	4c 8d 44 24 40       	lea    0x40(%rsp),%r8
   180025dc6:	48 8d 15 13 a4 02 00 	lea    0x2a413(%rip),%rdx        # 0x1800501e0
   180025dcd:	e8 da a5 ff ff       	call   0x1800203ac
   180025dd2:	48 85 c7             	test   %rax,%rdi
   180025dd5:	75 1a                	jne    0x180025df1
   180025dd7:	48 8b 4c 24 40       	mov    0x40(%rsp),%rcx
   180025ddc:	48 81 79 e8 5f 46 56 	cmpq   $0x5f56465f,-0x18(%rcx)
   180025de3:	5f
   180025de4:	75 5c                	jne    0x180025e42
   180025de6:	48 8b 44 24 78       	mov    0x78(%rsp),%rax
   180025deb:	48 89 41 f0          	mov    %rax,-0x10(%rcx)
   180025def:	eb 51                	jmp    0x180025e42
   180025df1:	48 8d 15 08 7e 02 00 	lea    0x27e08(%rip),%rdx        # 0x18004dc00
   180025df8:	b9 a0 00 00 00       	mov    $0xa0,%ecx
   180025dfd:	e8 0e ec ff ff       	call   0x180024a10
   180025e02:	48 85 c0             	test   %rax,%rax
   180025e05:	74 6d                	je     0x180025e74
   180025e07:	48 8b 4c 24 78       	mov    0x78(%rsp),%rcx
   180025e0c:	4c 8d 48 18          	lea    0x18(%rax),%r9
   180025e10:	45 33 c0             	xor    %r8d,%r8d
   180025e13:	48 89 48 08          	mov    %rcx,0x8(%rax)
   180025e17:	48 8b 4c 24 70       	mov    0x70(%rsp),%rcx
   180025e1c:	48 89 58 68          	mov    %rbx,0x68(%rax)
   180025e20:	48 89 48 10          	mov    %rcx,0x10(%rax)
   180025e24:	48 8b 4c 24 78       	mov    0x78(%rsp),%rcx
   180025e29:	48 8b 51 38          	mov    0x38(%rcx),%rdx
   180025e2d:	48 8d 4c 24 70       	lea    0x70(%rsp),%rcx
   180025e32:	48 89 50 50          	mov    %rdx,0x50(%rax)
   180025e36:	48 8d 15 a3 a3 02 00 	lea    0x2a3a3(%rip),%rdx        # 0x1800501e0
   180025e3d:	e8 7a a8 ff ff       	call   0x1800206bc
   180025e42:	4c 8b 05 77 bb 02 00 	mov    0x2bb77(%rip),%r8        # 0x1800519c0
   180025e49:	33 d2                	xor    %edx,%edx
   180025e4b:	48 8d 44 24 70       	lea    0x70(%rsp),%rax
   180025e50:	4c 8d 4c 24 30       	lea    0x30(%rsp),%r9
   180025e55:	8d 4a 01             	lea    0x1(%rdx),%ecx
   180025e58:	48 c7 44 24 30 08 00 	movq   $0x8,0x30(%rsp)
   180025e5f:	00 00
   180025e61:	48 89 44 24 20       	mov    %rax,0x20(%rsp)
   180025e66:	e8 e5 ab ff ff       	call   0x180020a50
   180025e6b:	49 3b c4             	cmp    %r12,%rax
   180025e6e:	0f 85 db fe ff ff    	jne    0x180025d4f
   180025e74:	48 8b 5c 24 60       	mov    0x60(%rsp),%rbx
   180025e79:	48 8b 7c 24 68       	mov    0x68(%rsp),%rdi
   180025e7e:	48 83 c4 50          	add    $0x50,%rsp
   180025e82:	41 5c                	pop    %r12
   180025e84:	c3                   	ret
   180025e85:	cc                   	int3
   180025e86:	cc                   	int3
   180025e87:	cc                   	int3
   180025e88:	48 83 ec 38          	sub    $0x38,%rsp
   180025e8c:	45 33 c9             	xor    %r9d,%r9d
   180025e8f:	48 8d 05 2a bb 02 00 	lea    0x2bb2a(%rip),%rax        # 0x1800519c0
   180025e96:	4c 8d 05 5f fe ff ff 	lea    -0x1a1(%rip),%r8        # 0x180025cfc
   180025e9d:	48 8d 0d 3c a4 02 00 	lea    0x2a43c(%rip),%rcx        # 0x1800502e0
   180025ea4:	41 8d 51 08          	lea    0x8(%r9),%edx
   180025ea8:	c6 44 24 28 01       	movb   $0x1,0x28(%rsp)
   180025ead:	48 89 44 24 20       	mov    %rax,0x20(%rsp)
   180025eb2:	e8 51 ed ff ff       	call   0x180024c08
   180025eb7:	48 89 05 0a bb 02 00 	mov    %rax,0x2bb0a(%rip)        # 0x1800519c8
   180025ebe:	33 c0                	xor    %eax,%eax
   180025ec0:	48 83 c4 38          	add    $0x38,%rsp
   180025ec4:	c3                   	ret
   180025ec5:	cc                   	int3
   180025ec6:	cc                   	int3
   180025ec7:	cc                   	int3
   180025ec8:	40 53                	rex push %rbx
   180025eca:	48 83 ec 20          	sub    $0x20,%rsp
   180025ece:	4c 8d 4c 24 30       	lea    0x30(%rsp),%r9
   180025ed3:	ba 04 00 00 00       	mov    $0x4,%edx
   180025ed8:	33 c9                	xor    %ecx,%ecx
   180025eda:	41 b8 01 04 00 00    	mov    $0x401,%r8d
   180025ee0:	e8 5b e2 ff ff       	call   0x180024140
   180025ee5:	48 bb 00 00 00 00 00 	movabs $0x8000000000000000,%rbx
   180025eec:	00 00 80
   180025eef:	48 85 c3             	test   %rax,%rbx
   180025ef2:	0f 85 80 00 00 00    	jne    0x180025f78
   180025ef8:	48 8b 4c 24 30       	mov    0x30(%rsp),%rcx
   180025efd:	ba 01 04 00 00       	mov    $0x401,%edx
   180025f02:	e8 51 e3 ff ff       	call   0x180024258
   180025f07:	48 85 c3             	test   %rax,%rbx
   180025f0a:	75 6c                	jne    0x180025f78
   180025f0c:	48 8b 44 24 30       	mov    0x30(%rsp),%rax
   180025f11:	ba 04 00 00 00       	mov    $0x4,%edx
   180025f16:	4c 8d 4c 24 30       	lea    0x30(%rsp),%r9
   180025f1b:	48 05 ff ff 3f 00    	add    $0x3fffff,%rax
   180025f21:	8d 4a fe             	lea    -0x2(%rdx),%ecx
   180025f24:	44 8d 42 fd          	lea    -0x3(%rdx),%r8d
   180025f28:	48 25 00 00 c0 ff    	and    $0xffffffffffc00000,%rax
   180025f2e:	48 89 44 24 30       	mov    %rax,0x30(%rsp)
   180025f33:	e8 08 e2 ff ff       	call   0x180024140
   180025f38:	48 85 c3             	test   %rax,%rbx
   180025f3b:	75 3b                	jne    0x180025f78
   180025f3d:	48 8b 4c 24 30       	mov    0x30(%rsp),%rcx
   180025f42:	48 b8 49 42 49 20 53 	movabs $0x5453595320494249,%rax
   180025f49:	59 53 54
   180025f4c:	48 8d 15 7d ad 02 00 	lea    0x2ad7d(%rip),%rdx        # 0x180050cd0
   180025f53:	48 89 01             	mov    %rax,(%rcx)
   180025f56:	48 8b 05 33 ab 02 00 	mov    0x2ab33(%rip),%rax        # 0x180050a90
   180025f5d:	83 61 10 00          	andl   $0x0,0x10(%rcx)
   180025f61:	48 89 41 08          	mov    %rax,0x8(%rcx)
   180025f65:	48 89 0d 74 ad 02 00 	mov    %rcx,0x2ad74(%rip)        # 0x180050ce0
   180025f6c:	48 8d 0d ad 87 02 00 	lea    0x287ad(%rip),%rcx        # 0x18004e720
   180025f73:	e8 ec ca ff ff       	call   0x180022a64
   180025f78:	48 83 c4 20          	add    $0x20,%rsp
   180025f7c:	5b                   	pop    %rbx
   180025f7d:	c3                   	ret
   180025f7e:	cc                   	int3
   180025f7f:	cc                   	int3
   180025f80:	48 8b 0d 59 ad 02 00 	mov    0x2ad59(%rip),%rcx        # 0x180050ce0
   180025f87:	ba 18 00 00 00       	mov    $0x18,%edx
   180025f8c:	4c 8d 41 10          	lea    0x10(%rcx),%r8
   180025f90:	41 83 20 00          	andl   $0x0,(%r8)
   180025f94:	48 8b 05 bd 5e 02 00 	mov    0x25ebd(%rip),%rax        # 0x18004be58
   180025f9b:	48 ff a0 58 01 00 00 	rex.W jmp *0x158(%rax)
   180025fa2:	cc                   	int3
   180025fa3:	cc                   	int3
   180025fa4:	48 8b c4             	mov    %rsp,%rax
   180025fa7:	48 89 58 08          	mov    %rbx,0x8(%rax)
   180025fab:	48 89 68 10          	mov    %rbp,0x10(%rax)
   180025faf:	48 89 70 18          	mov    %rsi,0x18(%rax)
   180025fb3:	48 89 78 20          	mov    %rdi,0x20(%rax)
   180025fb7:	41 54                	push   %r12
   180025fb9:	41 55                	push   %r13
   180025fbb:	41 56                	push   %r14
   180025fbd:	48 83 ec 20          	sub    $0x20,%rsp
   180025fc1:	83 0d 08 ad 02 00 01 	orl    $0x1,0x2ad08(%rip)        # 0x180050cd0
   180025fc8:	8b 05 06 ad 02 00    	mov    0x2ad06(%rip),%eax        # 0x180050cd4
   180025fce:	48 8b 3d 03 ad 02 00 	mov    0x2ad03(%rip),%rdi        # 0x180050cd8
   180025fd5:	33 db                	xor    %ebx,%ebx
   180025fd7:	4d 8b e0             	mov    %r8,%r12
   180025fda:	4c 8b ea             	mov    %rdx,%r13
   180025fdd:	44 8b f1             	mov    %ecx,%r14d
   180025fe0:	48 85 c0             	test   %rax,%rax
   180025fe3:	74 0f                	je     0x180025ff4
   180025fe5:	48 83 3c df 00       	cmpq   $0x0,(%rdi,%rbx,8)
   180025fea:	74 08                	je     0x180025ff4
   180025fec:	48 ff c3             	inc    %rbx
   180025fef:	48 3b d8             	cmp    %rax,%rbx
   180025ff2:	72 f1                	jb     0x180025fe5
   180025ff4:	48 3b d8             	cmp    %rax,%rbx
   180025ff7:	75 45                	jne    0x18002603e
   180025ff9:	48 8b e8             	mov    %rax,%rbp
   180025ffc:	48 c1 e5 03          	shl    $0x3,%rbp
   180026000:	48 8d 8d 00 10 00 00 	lea    0x1000(%rbp),%rcx
   180026007:	e8 b8 e9 ff ff       	call   0x1800249c4
   18002600c:	48 8b f0             	mov    %rax,%rsi
   18002600f:	48 85 c0             	test   %rax,%rax
   180026012:	74 50                	je     0x180026064
   180026014:	4c 8b c5             	mov    %rbp,%r8
   180026017:	48 8b d7             	mov    %rdi,%rdx
   18002601a:	48 8b c8             	mov    %rax,%rcx
   18002601d:	e8 06 96 ff ff       	call   0x18001f628
   180026022:	48 8b cf             	mov    %rdi,%rcx
   180026025:	e8 a2 d5 ff ff       	call   0x1800235cc
   18002602a:	81 05 a0 ac 02 00 00 	addl   $0x200,0x2aca0(%rip)        # 0x180050cd4
   180026031:	02 00 00
   180026034:	48 8b fe             	mov    %rsi,%rdi
   180026037:	48 89 35 9a ac 02 00 	mov    %rsi,0x2ac9a(%rip)        # 0x180050cd8
   18002603e:	b9 18 00 00 00       	mov    $0x18,%ecx
   180026043:	e8 7c e9 ff ff       	call   0x1800249c4
   180026048:	48 89 04 df          	mov    %rax,(%rdi,%rbx,8)
   18002604c:	48 85 c0             	test   %rax,%rax
   18002604f:	74 13                	je     0x180026064
   180026051:	4c 89 30             	mov    %r14,(%rax)
   180026054:	48 8b 04 df          	mov    (%rdi,%rbx,8),%rax
   180026058:	4c 89 68 08          	mov    %r13,0x8(%rax)
   18002605c:	48 8b 04 df          	mov    (%rdi,%rbx,8),%rax
   180026060:	4c 89 60 10          	mov    %r12,0x10(%rax)
   180026064:	83 25 65 ac 02 00 fe 	andl   $0xfffffffe,0x2ac65(%rip)        # 0x180050cd0
   18002606b:	48 8b 5c 24 40       	mov    0x40(%rsp),%rbx
   180026070:	48 8b 6c 24 48       	mov    0x48(%rsp),%rbp
   180026075:	48 8b 74 24 50       	mov    0x50(%rsp),%rsi
   18002607a:	48 8b 7c 24 58       	mov    0x58(%rsp),%rdi
   18002607f:	48 83 c4 20          	add    $0x20,%rsp
   180026083:	41 5e                	pop    %r14
   180026085:	41 5d                	pop    %r13
   180026087:	41 5c                	pop    %r12
   180026089:	c3                   	ret
   18002608a:	cc                   	int3
   18002608b:	cc                   	int3
   18002608c:	48 89 5c 24 08       	mov    %rbx,0x8(%rsp)
   180026091:	57                   	push   %rdi
   180026092:	48 83 ec 20          	sub    $0x20,%rsp
   180026096:	83 0d 33 ac 02 00 01 	orl    $0x1,0x2ac33(%rip)        # 0x180050cd0
   18002609d:	8b 15 31 ac 02 00    	mov    0x2ac31(%rip),%edx        # 0x180050cd4
   1800260a3:	33 db                	xor    %ebx,%ebx
   1800260a5:	48 85 d2             	test   %rdx,%rdx
   1800260a8:	74 2d                	je     0x1800260d7
   1800260aa:	48 8b 3d 27 ac 02 00 	mov    0x2ac27(%rip),%rdi        # 0x180050cd8
   1800260b1:	48 8b 04 df          	mov    (%rdi,%rbx,8),%rax
   1800260b5:	48 85 c0             	test   %rax,%rax
   1800260b8:	74 06                	je     0x1800260c0
   1800260ba:	48 39 48 10          	cmp    %rcx,0x10(%rax)
   1800260be:	74 0a                	je     0x1800260ca
   1800260c0:	48 ff c3             	inc    %rbx
   1800260c3:	48 3b da             	cmp    %rdx,%rbx
   1800260c6:	73 0f                	jae    0x1800260d7
   1800260c8:	eb e7                	jmp    0x1800260b1
   1800260ca:	48 8b c8             	mov    %rax,%rcx
   1800260cd:	e8 fa d4 ff ff       	call   0x1800235cc
   1800260d2:	48 83 24 df 00       	andq   $0x0,(%rdi,%rbx,8)
   1800260d7:	83 25 f2 ab 02 00 fe 	andl   $0xfffffffe,0x2abf2(%rip)        # 0x180050cd0
   1800260de:	48 8b 5c 24 30       	mov    0x30(%rsp),%rbx
   1800260e3:	48 83 c4 20          	add    $0x20,%rsp
   1800260e7:	5f                   	pop    %rdi
   1800260e8:	c3                   	ret
   1800260e9:	cc                   	int3
   1800260ea:	cc                   	int3
   1800260eb:	cc                   	int3
   1800260ec:	48 83 ec 28          	sub    $0x28,%rsp
   1800260f0:	48 8b 05 c9 a8 02 00 	mov    0x2a8c9(%rip),%rax        # 0x1800509c0
   1800260f7:	4c 8d 05 ea ab 02 00 	lea    0x2abea(%rip),%r8        # 0x180050ce8
   1800260fe:	48 8d 0d db 55 02 00 	lea    0x255db(%rip),%rcx        # 0x18004b6e0
   180026105:	33 d2                	xor    %edx,%edx
   180026107:	ff 90 40 01 00 00    	call   *0x140(%rax)
   18002610d:	48 b9 00 00 00 00 00 	movabs $0x8000000000000000,%rcx
   180026114:	00 00 80
   180026117:	48 85 c1             	test   %rax,%rcx
   18002611a:	0f b6 05 cf ab 02 00 	movzbl 0x2abcf(%rip),%eax        # 0x180050cf0
   180026121:	b9 01 00 00 00       	mov    $0x1,%ecx
   180026126:	0f 44 c1             	cmove  %ecx,%eax
   180026129:	88 05 c1 ab 02 00    	mov    %al,0x2abc1(%rip)        # 0x180050cf0
   18002612f:	48 83 c4 28          	add    $0x28,%rsp
   180026133:	c3                   	ret
   180026134:	4c 8b dc             	mov    %rsp,%r11
   180026137:	49 89 5b 08          	mov    %rbx,0x8(%r11)
   18002613b:	49 89 73 10          	mov    %rsi,0x10(%r11)
   18002613f:	57                   	push   %rdi
   180026140:	48 83 ec 40          	sub    $0x40,%rsp
   180026144:	49 83 63 f0 00       	andq   $0x0,-0x10(%r11)
   180026149:	48 8b 05 48 a9 02 00 	mov    0x2a948(%rip),%rax        # 0x180050a98
   180026150:	48 8b da             	mov    %rdx,%rbx
   180026153:	4c 8b 50 60          	mov    0x60(%rax),%r10
   180026157:	48 8d 05 aa b7 02 00 	lea    0x2b7aa(%rip),%rax        # 0x180051908
   18002615e:	48 8b f9             	mov    %rcx,%rdi
   180026161:	49 89 43 e8          	mov    %rax,-0x18(%r11)
   180026165:	48 8d 05 64 a2 02 00 	lea    0x2a264(%rip),%rax        # 0x1800503d0
   18002616c:	4c 8d 0d 4d a2 02 00 	lea    0x2a24d(%rip),%r9        # 0x1800503c0
   180026173:	49 89 43 e0          	mov    %rax,-0x20(%r11)
   180026177:	48 8d 05 5a b7 02 00 	lea    0x2b75a(%rip),%rax        # 0x1800518d8
   18002617e:	4c 8d 05 3b b7 02 00 	lea    0x2b73b(%rip),%r8        # 0x1800518c0
   180026185:	48 8d 15 24 a2 02 00 	lea    0x2a224(%rip),%rdx        # 0x1800503b0
   18002618c:	48 8b cb             	mov    %rbx,%rcx
   18002618f:	49 89 43 d8          	mov    %rax,-0x28(%r11)
   180026193:	41 ff 92 50 01 00 00 	call   *0x150(%r10)
   18002619a:	48 be 00 00 00 00 00 	movabs $0x8000000000000000,%rsi
   1800261a1:	00 00 80
   1800261a4:	48 85 c6             	test   %rax,%rsi
   1800261a7:	0f 85 93 00 00 00    	jne    0x180026240
   1800261ad:	48 8b 05 e4 a8 02 00 	mov    0x2a8e4(%rip),%rax        # 0x180050a98
   1800261b4:	4c 8b 47 28          	mov    0x28(%rdi),%r8
   1800261b8:	48 8d 15 41 54 02 00 	lea    0x25441(%rip),%rdx        # 0x18004b600
   1800261bf:	4c 8b 50 60          	mov    0x60(%rax),%r10
   1800261c3:	4c 8b cb             	mov    %rbx,%r9
   1800261c6:	48 8b cb             	mov    %rbx,%rcx
   1800261c9:	41 ff 92 20 01 00 00 	call   *0x120(%r10)
   1800261d0:	48 8b d8             	mov    %rax,%rbx
   1800261d3:	48 85 c6             	test   %rax,%rsi
   1800261d6:	75 68                	jne    0x180026240
   1800261d8:	48 8b 05 b9 a8 02 00 	mov    0x2a8b9(%rip),%rax        # 0x180050a98
   1800261df:	48 8b 0d ea b6 02 00 	mov    0x2b6ea(%rip),%rcx        # 0x1800518d0
   1800261e6:	48 8b 50 60          	mov    0x60(%rax),%rdx
   1800261ea:	ff 52 70             	call   *0x70(%rdx)
   1800261ed:	4c 8b 1d a4 a8 02 00 	mov    0x2a8a4(%rip),%r11        # 0x180050a98
   1800261f4:	48 8b 0d ed b6 02 00 	mov    0x2b6ed(%rip),%rcx        # 0x1800518e8
   1800261fb:	49 8b 43 60          	mov    0x60(%r11),%rax
   1800261ff:	ff 50 70             	call   *0x70(%rax)
   180026202:	4c 8b 1d 8f a8 02 00 	mov    0x2a88f(%rip),%r11        # 0x180050a98
   180026209:	48 8b 0d 08 b7 02 00 	mov    0x2b708(%rip),%rcx        # 0x180051918
   180026210:	49 8b 43 60          	mov    0x60(%r11),%rax
   180026214:	ff 50 70             	call   *0x70(%rax)
   180026217:	4c 8b 1d 7a a8 02 00 	mov    0x2a87a(%rip),%r11        # 0x180050a98
   18002621e:	48 8b 0d 73 b7 02 00 	mov    0x2b773(%rip),%rcx        # 0x180051998
   180026225:	49 8b 43 60          	mov    0x60(%r11),%rax
   180026229:	ff 50 70             	call   *0x70(%rax)
   18002622c:	48 8b 05 8d a7 02 00 	mov    0x2a78d(%rip),%rax        # 0x1800509c0
   180026233:	48 8b 0d 26 b7 02 00 	mov    0x2b726(%rip),%rcx        # 0x180051960
   18002623a:	ff 50 48             	call   *0x48(%rax)
   18002623d:	48 8b c3             	mov    %rbx,%rax
   180026240:	48 8b 5c 24 50       	mov    0x50(%rsp),%rbx
   180026245:	48 8b 74 24 58       	mov    0x58(%rsp),%rsi
   18002624a:	48 83 c4 40          	add    $0x40,%rsp
   18002624e:	5f                   	pop    %rdi
   18002624f:	c3                   	ret
   180026250:	48 83 ec 28          	sub    $0x28,%rsp
   180026254:	80 3d 77 ab 02 00 00 	cmpb   $0x0,0x2ab77(%rip)        # 0x180050dd2
   18002625b:	75 3a                	jne    0x180026297
   18002625d:	80 3d 8d aa 02 00 00 	cmpb   $0x0,0x2aa8d(%rip)        # 0x180050cf1
   180026264:	75 31                	jne    0x180026297
   180026266:	80 3d 85 aa 02 00 00 	cmpb   $0x0,0x2aa85(%rip)        # 0x180050cf2
   18002626d:	75 28                	jne    0x180026297
   18002626f:	80 3d 7d aa 02 00 00 	cmpb   $0x0,0x2aa7d(%rip)        # 0x180050cf3
   180026276:	75 1f                	jne    0x180026297
   180026278:	80 3d f9 b5 02 00 00 	cmpb   $0x0,0x2b5f9(%rip)        # 0x180051878
   18002627f:	75 16                	jne    0x180026297
   180026281:	48 8b ca             	mov    %rdx,%rcx
   180026284:	c6 05 66 aa 02 00 01 	movb   $0x1,0x2aa66(%rip)        # 0x180050cf1
   18002628b:	e8 f4 60 ff ff       	call   0x18001c384
   180026290:	c6 05 5a aa 02 00 00 	movb   $0x0,0x2aa5a(%rip)        # 0x180050cf1
   180026297:	48 83 c4 28          	add    $0x28,%rsp
   18002629b:	c3                   	ret
   18002629c:	48 89 5c 24 08       	mov    %rbx,0x8(%rsp)
   1800262a1:	48 89 6c 24 10       	mov    %rbp,0x10(%rsp)
   1800262a6:	48 89 74 24 18       	mov    %rsi,0x18(%rsp)
   1800262ab:	57                   	push   %rdi
   1800262ac:	41 54                	push   %r12
   1800262ae:	41 55                	push   %r13
   1800262b0:	41 56                	push   %r14
   1800262b2:	41 57                	push   %r15
   1800262b4:	48 83 ec 20          	sub    $0x20,%rsp
   1800262b8:	48 8b 1d e9 b6 02 00 	mov    0x2b6e9(%rip),%rbx        # 0x1800519a8
   1800262bf:	45 33 ff             	xor    %r15d,%r15d
   1800262c2:	48 8b f9             	mov    %rcx,%rdi
   1800262c5:	49 3b df             	cmp    %r15,%rbx
   1800262c8:	0f 84 eb 00 00 00    	je     0x1800263b9
   1800262ce:	45 8d 77 01          	lea    0x1(%r15),%r14d
   1800262d2:	0f b7 43 10          	movzwl 0x10(%rbx),%eax
   1800262d6:	41 8a ef             	mov    %r15b,%bpl
   1800262d9:	45 8a c7             	mov    %r15b,%r8b
   1800262dc:	45 8a cf             	mov    %r15b,%r9b
   1800262df:	45 8a d7             	mov    %r15b,%r10b
   1800262e2:	45 8a df             	mov    %r15b,%r11b
   1800262e5:	41 8a f7             	mov    %r15b,%sil
   1800262e8:	41 8a d7             	mov    %r15b,%dl
   1800262eb:	41 8a cf             	mov    %r15b,%cl
   1800262ee:	66 41 3b c7          	cmp    %r15w,%ax
   1800262f2:	74 05                	je     0x1800262f9
   1800262f4:	66 3b 07             	cmp    (%rdi),%ax
   1800262f7:	75 03                	jne    0x1800262fc
   1800262f9:	41 8a ee             	mov    %r14b,%bpl
   1800262fc:	0f b7 47 02          	movzwl 0x2(%rdi),%eax
   180026300:	45 0f b6 ef          	movzbl %r15b,%r13d
   180026304:	66 39 43 12          	cmp    %ax,0x12(%rbx)
   180026308:	8b 43 14             	mov    0x14(%rbx),%eax
   18002630b:	45 0f 44 ee          	cmove  %r14d,%r13d
   18002630f:	0f ba e0 1f          	bt     $0x1f,%eax
   180026313:	73 65                	jae    0x18002637a
   180026315:	a8 03                	test   $0x3,%al
   180026317:	74 06                	je     0x18002631f
   180026319:	f6 47 04 03          	testb  $0x3,0x4(%rdi)
   18002631d:	74 03                	je     0x180026322
   18002631f:	45 8a c6             	mov    %r14b,%r8b
   180026322:	a8 0c                	test   $0xc,%al
   180026324:	74 06                	je     0x18002632c
   180026326:	f6 47 04 0c          	testb  $0xc,0x4(%rdi)
   18002632a:	74 03                	je     0x18002632f
   18002632c:	45 8a ce             	mov    %r14b,%r9b
   18002632f:	a8 30                	test   $0x30,%al
   180026331:	74 06                	je     0x180026339
   180026333:	f6 47 04 30          	testb  $0x30,0x4(%rdi)
   180026337:	74 03                	je     0x18002633c
   180026339:	45 8a d6             	mov    %r14b,%r10b
   18002633c:	a8 c0                	test   $0xc0,%al
   18002633e:	74 06                	je     0x180026346
   180026340:	f6 47 04 c0          	testb  $0xc0,0x4(%rdi)
   180026344:	74 03                	je     0x180026349
   180026346:	45 8a de             	mov    %r14b,%r11b
   180026349:	0f ba e0 08          	bt     $0x8,%eax
   18002634d:	73 07                	jae    0x180026356
   18002634f:	0f ba 67 04 08       	btl    $0x8,0x4(%rdi)
   180026354:	73 03                	jae    0x180026359
   180026356:	41 8a f6             	mov    %r14b,%sil
   180026359:	0f ba e0 09          	bt     $0x9,%eax
   18002635d:	73 07                	jae    0x180026366
   18002635f:	0f ba 67 04 09       	btl    $0x9,0x4(%rdi)
   180026364:	73 03                	jae    0x180026369
   180026366:	41 8a d6             	mov    %r14b,%dl
   180026369:	40 22 d6             	and    %sil,%dl
   18002636c:	41 22 d3             	and    %r11b,%dl
   18002636f:	41 22 d2             	and    %r10b,%dl
   180026372:	41 22 d1             	and    %r9b,%dl
   180026375:	41 22 d0             	and    %r8b,%dl
   180026378:	eb 03                	jmp    0x18002637d
   18002637a:	41 8a d6             	mov    %r14b,%dl
   18002637d:	8a 43 18             	mov    0x18(%rbx),%al
   180026380:	84 c0                	test   %al,%al
   180026382:	79 05                	jns    0x180026389
   180026384:	3a 47 08             	cmp    0x8(%rdi),%al
   180026387:	75 03                	jne    0x18002638c
   180026389:	41 8a ce             	mov    %r14b,%cl
   18002638c:	22 ca                	and    %dl,%cl
   18002638e:	41 22 cd             	and    %r13b,%cl
   180026391:	40 84 cd             	test   %cl,%bpl
   180026394:	74 17                	je     0x1800263ad
   180026396:	48 8d 4b 10          	lea    0x10(%rbx),%rcx
   18002639a:	44 88 3d 50 a9 02 00 	mov    %r15b,0x2a950(%rip)        # 0x180050cf1
   1800263a1:	ff 53 20             	call   *0x20(%rbx)
   1800263a4:	66 44 89 3f          	mov    %r15w,(%rdi)
   1800263a8:	66 44 89 7f 02       	mov    %r15w,0x2(%rdi)
   1800263ad:	48 8b 1b             	mov    (%rbx),%rbx
   1800263b0:	49 3b df             	cmp    %r15,%rbx
   1800263b3:	0f 85 19 ff ff ff    	jne    0x1800262d2
   1800263b9:	48 8b 5c 24 50       	mov    0x50(%rsp),%rbx
   1800263be:	48 8b 6c 24 58       	mov    0x58(%rsp),%rbp
   1800263c3:	48 8b 74 24 60       	mov    0x60(%rsp),%rsi
   1800263c8:	33 c0                	xor    %eax,%eax
   1800263ca:	48 83 c4 20          	add    $0x20,%rsp
   1800263ce:	41 5f                	pop    %r15
   1800263d0:	41 5e                	pop    %r14
   1800263d2:	41 5d                	pop    %r13
   1800263d4:	41 5c                	pop    %r12
   1800263d6:	5f                   	pop    %rdi
   1800263d7:	c3                   	ret
   1800263d8:	48 89 5c 24 08       	mov    %rbx,0x8(%rsp)
   1800263dd:	48 89 74 24 10       	mov    %rsi,0x10(%rsp)
   1800263e2:	57                   	push   %rdi
   1800263e3:	48 83 ec 20          	sub    $0x20,%rsp
   1800263e7:	49 8b d9             	mov    %r9,%rbx
   1800263ea:	49 8b f8             	mov    %r8,%rdi
   1800263ed:	48 8b f2             	mov    %rdx,%rsi
   1800263f0:	48 85 d2             	test   %rdx,%rdx
   1800263f3:	0f 84 a4 00 00 00    	je     0x18002649d
   1800263f9:	4d 85 c0             	test   %r8,%r8
   1800263fc:	0f 84 9b 00 00 00    	je     0x18002649d
   180026402:	48 85 db             	test   %rbx,%rbx
   180026405:	0f 84 92 00 00 00    	je     0x18002649d
   18002640b:	48 8b 05 ae a5 02 00 	mov    0x2a5ae(%rip),%rax        # 0x1800509c0
   180026412:	ba 28 00 00 00       	mov    $0x28,%edx
   180026417:	4c 8d 05 5a b5 02 00 	lea    0x2b55a(%rip),%r8        # 0x180051978
   18002641e:	8d 4a de             	lea    -0x22(%rdx),%ecx
   180026421:	ff 50 40             	call   *0x40(%rax)
   180026424:	48 b9 00 00 00 00 00 	movabs $0x8000000000000000,%rcx
   18002642b:	00 00 80
   18002642e:	48 85 c1             	test   %rax,%rcx
   180026431:	75 74                	jne    0x1800264a7
   180026433:	8b 06                	mov    (%rsi),%eax
   180026435:	48 8b 0d 3c b5 02 00 	mov    0x2b53c(%rip),%rcx        # 0x180051978
   18002643c:	89 41 10             	mov    %eax,0x10(%rcx)
   18002643f:	8b 46 04             	mov    0x4(%rsi),%eax
   180026442:	89 41 14             	mov    %eax,0x14(%rcx)
   180026445:	8b 46 08             	mov    0x8(%rsi),%eax
   180026448:	89 41 18             	mov    %eax,0x18(%rcx)
   18002644b:	48 8b 05 26 b5 02 00 	mov    0x2b526(%rip),%rax        # 0x180051978
   180026452:	48 8d 0d 47 b5 02 00 	lea    0x2b547(%rip),%rcx        # 0x1800519a0
   180026459:	48 89 78 20          	mov    %rdi,0x20(%rax)
   18002645d:	48 8b 15 14 b5 02 00 	mov    0x2b514(%rip),%rdx        # 0x180051978
   180026464:	e8 df 20 fe ff       	call   0x180008548
   180026469:	4c 8b 1d 08 b5 02 00 	mov    0x2b508(%rip),%r11        # 0x180051978
   180026470:	4c 89 1b             	mov    %r11,(%rbx)
   180026473:	48 83 3d 25 b5 02 00 	cmpq   $0x1,0x2b525(%rip)        # 0x1800519a0
   18002647a:	01
   18002647b:	75 1c                	jne    0x180026499
   18002647d:	48 8b 05 3c a5 02 00 	mov    0x2a53c(%rip),%rax        # 0x1800509c0
   180026484:	48 8b 0d 0d b5 02 00 	mov    0x2b50d(%rip),%rcx        # 0x180051998
   18002648b:	ba 01 00 00 00       	mov    $0x1,%edx
   180026490:	41 b8 20 a1 07 00    	mov    $0x7a120,%r8d
   180026496:	ff 50 58             	call   *0x58(%rax)
   180026499:	33 c0                	xor    %eax,%eax
   18002649b:	eb 0a                	jmp    0x1800264a7
   18002649d:	48 b8 02 00 00 00 00 	movabs $0x8000000000000002,%rax
   1800264a4:	00 00 80
   1800264a7:	48 8b 5c 24 30       	mov    0x30(%rsp),%rbx
   1800264ac:	48 8b 74 24 38       	mov    0x38(%rsp),%rsi
   1800264b1:	48 83 c4 20          	add    $0x20,%rsp
   1800264b5:	5f                   	pop    %rdi
   1800264b6:	c3                   	ret
   1800264b7:	cc                   	int3
   1800264b8:	40 53                	rex push %rbx
   1800264ba:	48 83 ec 20          	sub    $0x20,%rsp
   1800264be:	48 85 d2             	test   %rdx,%rdx
   1800264c1:	74 16                	je     0x1800264d9
   1800264c3:	48 8b 1d de b4 02 00 	mov    0x2b4de(%rip),%rbx        # 0x1800519a8
   1800264ca:	eb 08                	jmp    0x1800264d4
   1800264cc:	48 3b da             	cmp    %rdx,%rbx
   1800264cf:	74 18                	je     0x1800264e9
   1800264d1:	48 8b 1b             	mov    (%rbx),%rbx
   1800264d4:	48 85 db             	test   %rbx,%rbx
   1800264d7:	75 f3                	jne    0x1800264cc
   1800264d9:	48 b8 02 00 00 00 00 	movabs $0x8000000000000002,%rax
   1800264e0:	00 00 80
   1800264e3:	48 83 c4 20          	add    $0x20,%rsp
   1800264e7:	5b                   	pop    %rbx
   1800264e8:	c3                   	ret
   1800264e9:	48 8d 0d b0 b4 02 00 	lea    0x2b4b0(%rip),%rcx        # 0x1800519a0
   1800264f0:	48 8b d3             	mov    %rbx,%rdx
   1800264f3:	e8 78 20 fe ff       	call   0x180008570
   1800264f8:	48 8b 05 c1 a4 02 00 	mov    0x2a4c1(%rip),%rax        # 0x1800509c0
   1800264ff:	48 8b cb             	mov    %rbx,%rcx
   180026502:	ff 50 48             	call   *0x48(%rax)
   180026505:	48 85 db             	test   %rbx,%rbx
   180026508:	74 cf                	je     0x1800264d9
   18002650a:	48 83 3d 8e b4 02 00 	cmpq   $0x0,0x2b48e(%rip)        # 0x1800519a0
   180026511:	00
   180026512:	75 16                	jne    0x18002652a
   180026514:	48 8b 05 a5 a4 02 00 	mov    0x2a4a5(%rip),%rax        # 0x1800509c0
   18002651b:	48 8b 0d 76 b4 02 00 	mov    0x2b476(%rip),%rcx        # 0x180051998
   180026522:	45 33 c0             	xor    %r8d,%r8d
   180026525:	33 d2                	xor    %edx,%edx
   180026527:	ff 50 58             	call   *0x58(%rax)
   18002652a:	33 c0                	xor    %eax,%eax
   18002652c:	eb b5                	jmp    0x1800264e3
   18002652e:	cc                   	int3
   18002652f:	cc                   	int3
   180026530:	80 f9 10             	cmp    $0x10,%cl
   180026533:	72 05                	jb     0x18002653a
   180026535:	80 f9 19             	cmp    $0x19,%cl
   180026538:	76 12                	jbe    0x18002654c
   18002653a:	80 f9 1e             	cmp    $0x1e,%cl
   18002653d:	72 05                	jb     0x180026544
   18002653f:	80 f9 26             	cmp    $0x26,%cl
   180026542:	76 08                	jbe    0x18002654c
   180026544:	80 e9 2c             	sub    $0x2c,%cl
   180026547:	80 f9 06             	cmp    $0x6,%cl
   18002654a:	77 03                	ja     0x18002654f
   18002654c:	b0 01                	mov    $0x1,%al
   18002654e:	c3                   	ret
   18002654f:	32 c0                	xor    %al,%al
   180026551:	c3                   	ret
   180026552:	cc                   	int3
   180026553:	cc                   	int3
   180026554:	48 8b c4             	mov    %rsp,%rax
   180026557:	48 89 58 08          	mov    %rbx,0x8(%rax)
   18002655b:	48 89 68 10          	mov    %rbp,0x10(%rax)
   18002655f:	48 89 70 18          	mov    %rsi,0x18(%rax)
   180026563:	48 89 78 20          	mov    %rdi,0x20(%rax)
   180026567:	41 54                	push   %r12
   180026569:	48 83 ec 20          	sub    $0x20,%rsp
   18002656d:	45 33 e4             	xor    %r12d,%r12d
   180026570:	48 8b d9             	mov    %rcx,%rbx
   180026573:	41 8a f0             	mov    %r8b,%sil
   180026576:	41 8d 6c 24 01       	lea    0x1(%r12),%ebp
   18002657b:	40 8a fa             	mov    %dl,%dil
   18002657e:	b9 96 04 00 00       	mov    $0x496,%ecx
   180026583:	66 44 89 63 78       	mov    %r12w,0x78(%rbx)
   180026588:	66 44 89 63 7a       	mov    %r12w,0x7a(%rbx)
   18002658d:	88 93 89 00 00 00    	mov    %dl,0x89(%rbx)
   180026593:	40 3a d5             	cmp    %bpl,%dl
   180026596:	75 16                	jne    0x1800265ae
   180026598:	8d 45 16             	lea    0x16(%rbp),%eax
   18002659b:	c7 83 84 00 00 00 59 	movl   $0x59,0x84(%rbx)
   1800265a2:	00 00 00
   1800265a5:	66 89 43 78          	mov    %ax,0x78(%rbx)
   1800265a9:	e9 5a 04 00 00       	jmp    0x180026a08
   1800265ae:	44 38 25 3b a7 02 00 	cmp    %r12b,0x2a73b(%rip)        # 0x180050cf0
   1800265b5:	74 0f                	je     0x1800265c6
   1800265b7:	8a 01                	mov    (%rcx),%al
   1800265b9:	a8 03                	test   $0x3,%al
   1800265bb:	74 09                	je     0x1800265c6
   1800265bd:	24 fc                	and    $0xfc,%al
   1800265bf:	88 01                	mov    %al,(%rcx)
   1800265c1:	e9 49 04 00 00       	jmp    0x180026a0f
   1800265c6:	40 0f b6 cf          	movzbl %dil,%ecx
   1800265ca:	b8 aa 00 00 00       	mov    $0xaa,%eax
   1800265cf:	3b c8                	cmp    %eax,%ecx
   1800265d1:	0f 8f 2a 02 00 00    	jg     0x180026801
   1800265d7:	0f 84 12 02 00 00    	je     0x1800267ef
   1800265dd:	83 f9 45             	cmp    $0x45,%ecx
   1800265e0:	0f 8f 5c 01 00 00    	jg     0x180026742
   1800265e6:	0f 84 30 01 00 00    	je     0x18002671c
   1800265ec:	83 e9 1d             	sub    $0x1d,%ecx
   1800265ef:	0f 84 0c 01 00 00    	je     0x180026701
   1800265f5:	83 e9 0d             	sub    $0xd,%ecx
   1800265f8:	0f 84 fa 00 00 00    	je     0x1800266f8
   1800265fe:	83 e9 0c             	sub    $0xc,%ecx
   180026601:	0f 84 e9 00 00 00    	je     0x1800266f0
   180026607:	2b cd                	sub    %ebp,%ecx
   180026609:	0f 84 ca 00 00 00    	je     0x1800266d9
   18002660f:	2b cd                	sub    %ebp,%ecx
   180026611:	0f 84 a7 00 00 00    	je     0x1800266be
   180026617:	83 e9 02             	sub    $0x2,%ecx
   18002661a:	75 28                	jne    0x180026644
   18002661c:	44 38 25 d3 a6 02 00 	cmp    %r12b,0x2a6d3(%rip)        # 0x180050cf6
   180026623:	75 0e                	jne    0x180026633
   180026625:	80 b3 80 00 00 00 04 	xorb   $0x4,0x80(%rbx)
   18002662c:	40 88 2d c3 a6 02 00 	mov    %bpl,0x2a6c3(%rip)        # 0x180050cf6
   180026633:	c7 83 84 00 00 00 1f 	movl   $0x1f,0x84(%rbx)
   18002663a:	00 00 00
   18002663d:	40 88 ab 8c 00 00 00 	mov    %bpl,0x8c(%rbx)
   180026644:	40 80 ff 3a          	cmp    $0x3a,%dil
   180026648:	0f 83 f0 02 00 00    	jae    0x18002693e
   18002664e:	8a 8b 8d 00 00 00    	mov    0x8d(%rbx),%cl
   180026654:	40 3a cd             	cmp    %bpl,%cl
   180026657:	75 0a                	jne    0x180026663
   180026659:	40 80 ff 37          	cmp    $0x37,%dil
   18002665d:	0f 84 db 02 00 00    	je     0x18002693e
   180026663:	8a 43 7c             	mov    0x7c(%rbx),%al
   180026666:	24 03                	and    $0x3,%al
   180026668:	40 3a cd             	cmp    %bpl,%cl
   18002666b:	40 8a cf             	mov    %dil,%cl
   18002666e:	44 0f b6 c0          	movzbl %al,%r8d
   180026672:	45 0f 44 c4          	cmove  %r12d,%r8d
   180026676:	e8 b5 fe ff ff       	call   0x180026530
   18002667b:	41 3a c4             	cmp    %r12b,%al
   18002667e:	74 1d                	je     0x18002669d
   180026680:	8a 93 80 00 00 00    	mov    0x80(%rbx),%dl
   180026686:	80 e2 04             	and    $0x4,%dl
   180026689:	45 3a c4             	cmp    %r12b,%r8b
   18002668c:	45 0f b6 c0          	movzbl %r8b,%r8d
   180026690:	0f 94 c0             	sete   %al
   180026693:	41 3a d4             	cmp    %r12b,%dl
   180026696:	0f b6 c8             	movzbl %al,%ecx
   180026699:	44 0f 45 c1          	cmovne %ecx,%r8d
   18002669d:	40 0f b6 cf          	movzbl %dil,%ecx
   1800266a1:	48 8d 15 58 99 fd ff 	lea    -0x266a8(%rip),%rdx        # 0x180000000
   1800266a8:	45 3a c4             	cmp    %r12b,%r8b
   1800266ab:	0f 84 63 02 00 00    	je     0x180026914
   1800266b1:	0f b6 84 11 80 dd 04 	movzbl 0x4dd80(%rcx,%rdx,1),%eax
   1800266b8:	00
   1800266b9:	e9 5e 02 00 00       	jmp    0x18002691c
   1800266be:	40 38 ab 8d 00 00 00 	cmp    %bpl,0x8d(%rbx)
   1800266c5:	75 09                	jne    0x1800266d0
   1800266c7:	83 4b 7c 10          	orl    $0x10,0x7c(%rbx)
   1800266cb:	e9 3f 03 00 00       	jmp    0x180026a0f
   1800266d0:	83 4b 7c 20          	orl    $0x20,0x7c(%rbx)
   1800266d4:	e9 36 03 00 00       	jmp    0x180026a0f
   1800266d9:	40 38 ab 8d 00 00 00 	cmp    %bpl,0x8d(%rbx)
   1800266e0:	0f 85 5e ff ff ff    	jne    0x180026644
   1800266e6:	0f ba 6b 7c 09       	btsl   $0x9,0x7c(%rbx)
   1800266eb:	e9 1f 03 00 00       	jmp    0x180026a0f
   1800266f0:	09 6b 7c             	or     %ebp,0x7c(%rbx)
   1800266f3:	e9 17 03 00 00       	jmp    0x180026a0f
   1800266f8:	83 4b 7c 02          	orl    $0x2,0x7c(%rbx)
   1800266fc:	e9 0e 03 00 00       	jmp    0x180026a0f
   180026701:	40 38 ab 8d 00 00 00 	cmp    %bpl,0x8d(%rbx)
   180026708:	75 09                	jne    0x180026713
   18002670a:	83 4b 7c 04          	orl    $0x4,0x7c(%rbx)
   18002670e:	e9 fc 02 00 00       	jmp    0x180026a0f
   180026713:	83 4b 7c 08          	orl    $0x8,0x7c(%rbx)
   180026717:	e9 f3 02 00 00       	jmp    0x180026a0f
   18002671c:	44 38 25 dd a5 02 00 	cmp    %r12b,0x2a5dd(%rip)        # 0x180050d00
   180026723:	75 0e                	jne    0x180026733
   180026725:	80 b3 80 00 00 00 02 	xorb   $0x2,0x80(%rbx)
   18002672c:	40 88 2d cd a5 02 00 	mov    %bpl,0x2a5cd(%rip)        # 0x180050d00
   180026733:	c7 83 84 00 00 00 55 	movl   $0x55,0x84(%rbx)
   18002673a:	00 00 00
   18002673d:	e9 fb fe ff ff       	jmp    0x18002663d
   180026742:	83 e9 46             	sub    $0x46,%ecx
   180026745:	74 75                	je     0x1800267bc
   180026747:	83 e9 15             	sub    $0x15,%ecx
   18002674a:	74 59                	je     0x1800267a5
   18002674c:	2b cd                	sub    %ebp,%ecx
   18002674e:	74 3f                	je     0x18002678f
   180026750:	2b cd                	sub    %ebp,%ecx
   180026752:	74 24                	je     0x180026778
   180026754:	83 e9 40             	sub    $0x40,%ecx
   180026757:	0f 85 e7 fe ff ff    	jne    0x180026644
   18002675d:	40 38 ab 8d 00 00 00 	cmp    %bpl,0x8d(%rbx)
   180026764:	75 09                	jne    0x18002676f
   180026766:	83 63 7c fb          	andl   $0xfffffffb,0x7c(%rbx)
   18002676a:	e9 a0 02 00 00       	jmp    0x180026a0f
   18002676f:	83 63 7c f7          	andl   $0xfffffff7,0x7c(%rbx)
   180026773:	e9 97 02 00 00       	jmp    0x180026a0f
   180026778:	40 38 ab 8d 00 00 00 	cmp    %bpl,0x8d(%rbx)
   18002677f:	0f 85 bf fe ff ff    	jne    0x180026644
   180026785:	0f ba 6b 7c 08       	btsl   $0x8,0x7c(%rbx)
   18002678a:	e9 80 02 00 00       	jmp    0x180026a0f
   18002678f:	40 38 ab 8d 00 00 00 	cmp    %bpl,0x8d(%rbx)
   180026796:	0f 85 a8 fe ff ff    	jne    0x180026644
   18002679c:	83 4b 7c 40          	orl    $0x40,0x7c(%rbx)
   1800267a0:	e9 6a 02 00 00       	jmp    0x180026a0f
   1800267a5:	40 38 ab 8d 00 00 00 	cmp    %bpl,0x8d(%rbx)
   1800267ac:	0f 85 92 fe ff ff    	jne    0x180026644
   1800267b2:	0f ba 6b 7c 07       	btsl   $0x7,0x7c(%rbx)
   1800267b7:	e9 53 02 00 00       	jmp    0x180026a0f
   1800267bc:	40 38 ab 8d 00 00 00 	cmp    %bpl,0x8d(%rbx)
   1800267c3:	0f 84 7b fe ff ff    	je     0x180026644
   1800267c9:	44 38 25 27 a5 02 00 	cmp    %r12b,0x2a527(%rip)        # 0x180050cf7
   1800267d0:	75 0e                	jne    0x1800267e0
   1800267d2:	40 30 ab 80 00 00 00 	xor    %bpl,0x80(%rbx)
   1800267d9:	40 88 2d 17 a5 02 00 	mov    %bpl,0x2a517(%rip)        # 0x180050cf7
   1800267e0:	c7 83 84 00 00 00 67 	movl   $0x67,0x84(%rbx)
   1800267e7:	00 00 00
   1800267ea:	e9 4e fe ff ff       	jmp    0x18002663d
   1800267ef:	41 3a f4             	cmp    %r12b,%sil
   1800267f2:	0f 85 17 02 00 00    	jne    0x180026a0f
   1800267f8:	83 63 7c fd          	andl   $0xfffffffd,0x7c(%rbx)
   1800267fc:	e9 0e 02 00 00       	jmp    0x180026a0f
   180026801:	b8 db 00 00 00       	mov    $0xdb,%eax
   180026806:	3b c8                	cmp    %eax,%ecx
   180026808:	0f 8f ab 00 00 00    	jg     0x1800268b9
   18002680e:	0f 84 8e 00 00 00    	je     0x1800268a2
   180026814:	81 e9 b6 00 00 00    	sub    $0xb6,%ecx
   18002681a:	74 7d                	je     0x180026899
   18002681c:	2b cd                	sub    %ebp,%ecx
   18002681e:	74 62                	je     0x180026882
   180026820:	2b cd                	sub    %ebp,%ecx
   180026822:	74 43                	je     0x180026867
   180026824:	83 e9 02             	sub    $0x2,%ecx
   180026827:	74 32                	je     0x18002685b
   180026829:	83 e9 0b             	sub    $0xb,%ecx
   18002682c:	74 21                	je     0x18002684f
   18002682e:	2b cd                	sub    %ebp,%ecx
   180026830:	0f 85 0e fe ff ff    	jne    0x180026644
   180026836:	40 38 ab 8d 00 00 00 	cmp    %bpl,0x8d(%rbx)
   18002683d:	0f 84 01 fe ff ff    	je     0x180026644
   180026843:	44 88 25 ad a4 02 00 	mov    %r12b,0x2a4ad(%rip)        # 0x180050cf7
   18002684a:	e9 f5 fd ff ff       	jmp    0x180026644
   18002684f:	44 88 25 aa a4 02 00 	mov    %r12b,0x2a4aa(%rip)        # 0x180050d00
   180026856:	e9 e9 fd ff ff       	jmp    0x180026644
   18002685b:	44 88 25 94 a4 02 00 	mov    %r12b,0x2a494(%rip)        # 0x180050cf6
   180026862:	e9 dd fd ff ff       	jmp    0x180026644
   180026867:	40 38 ab 8d 00 00 00 	cmp    %bpl,0x8d(%rbx)
   18002686e:	75 09                	jne    0x180026879
   180026870:	83 63 7c ef          	andl   $0xffffffef,0x7c(%rbx)
   180026874:	e9 96 01 00 00       	jmp    0x180026a0f
   180026879:	83 63 7c df          	andl   $0xffffffdf,0x7c(%rbx)
   18002687d:	e9 8d 01 00 00       	jmp    0x180026a0f
   180026882:	40 38 ab 8d 00 00 00 	cmp    %bpl,0x8d(%rbx)
   180026889:	0f 85 b5 fd ff ff    	jne    0x180026644
   18002688f:	0f ba 73 7c 09       	btrl   $0x9,0x7c(%rbx)
   180026894:	e9 76 01 00 00       	jmp    0x180026a0f
   180026899:	83 63 7c fe          	andl   $0xfffffffe,0x7c(%rbx)
   18002689d:	e9 6d 01 00 00       	jmp    0x180026a0f
   1800268a2:	40 38 ab 8d 00 00 00 	cmp    %bpl,0x8d(%rbx)
   1800268a9:	0f 85 95 fd ff ff    	jne    0x180026644
   1800268af:	0f ba 73 7c 07       	btrl   $0x7,0x7c(%rbx)
   1800268b4:	e9 56 01 00 00       	jmp    0x180026a0f
   1800268b9:	81 e9 dc 00 00 00    	sub    $0xdc,%ecx
   1800268bf:	74 3d                	je     0x1800268fe
   1800268c1:	2b cd                	sub    %ebp,%ecx
   1800268c3:	74 22                	je     0x1800268e7
   1800268c5:	83 e9 1d             	sub    $0x1d,%ecx
   1800268c8:	74 0d                	je     0x1800268d7
   1800268ca:	83 e9 04             	sub    $0x4,%ecx
   1800268cd:	74 08                	je     0x1800268d7
   1800268cf:	2b cd                	sub    %ebp,%ecx
   1800268d1:	0f 85 6d fd ff ff    	jne    0x180026644
   1800268d7:	40 8a d7             	mov    %dil,%dl
   1800268da:	48 8b cb             	mov    %rbx,%rcx
   1800268dd:	e8 2e 58 ff ff       	call   0x18001c110
   1800268e2:	e9 5d fd ff ff       	jmp    0x180026644
   1800268e7:	40 38 ab 8d 00 00 00 	cmp    %bpl,0x8d(%rbx)
   1800268ee:	0f 85 50 fd ff ff    	jne    0x180026644
   1800268f4:	0f ba 73 7c 08       	btrl   $0x8,0x7c(%rbx)
   1800268f9:	e9 11 01 00 00       	jmp    0x180026a0f
   1800268fe:	40 38 ab 8d 00 00 00 	cmp    %bpl,0x8d(%rbx)
   180026905:	0f 85 39 fd ff ff    	jne    0x180026644
   18002690b:	83 63 7c bf          	andl   $0xffffffbf,0x7c(%rbx)
   18002690f:	e9 fb 00 00 00       	jmp    0x180026a0f
   180026914:	0f b6 84 11 40 dd 04 	movzbl 0x4dd40(%rcx,%rdx,1),%eax
   18002691b:	00
   18002691c:	66 89 43 7a          	mov    %ax,0x7a(%rbx)
   180026920:	0f b6 84 11 c0 dd 04 	movzbl 0x4ddc0(%rcx,%rdx,1),%eax
   180026927:	00
   180026928:	89 83 84 00 00 00    	mov    %eax,0x84(%rbx)
   18002692e:	66 44 39 63 7a       	cmp    %r12w,0x7a(%rbx)
   180026933:	0f 84 d6 00 00 00    	je     0x180026a0f
   180026939:	e9 ca 00 00 00       	jmp    0x180026a08
   18002693e:	40 80 ff 56          	cmp    $0x56,%dil
   180026942:	75 35                	jne    0x180026979
   180026944:	8a 43 7c             	mov    0x7c(%rbx),%al
   180026947:	24 03                	and    $0x3,%al
   180026949:	40 38 ab 8d 00 00 00 	cmp    %bpl,0x8d(%rbx)
   180026950:	0f b6 c8             	movzbl %al,%ecx
   180026953:	b8 7c 00 00 00       	mov    $0x7c,%eax
   180026958:	41 0f 44 cc          	cmove  %r12d,%ecx
   18002695c:	41 3a cc             	cmp    %r12b,%cl
   18002695f:	75 05                	jne    0x180026966
   180026961:	b8 5c 00 00 00       	mov    $0x5c,%eax
   180026966:	66 89 43 7a          	mov    %ax,0x7a(%rbx)
   18002696a:	c7 83 84 00 00 00 0f 	movl   $0xf,0x84(%rbx)
   180026971:	00 00 00
   180026974:	e9 8f 00 00 00       	jmp    0x180026a08
   180026979:	40 38 ab 8d 00 00 00 	cmp    %bpl,0x8d(%rbx)
   180026980:	74 54                	je     0x1800269d6
   180026982:	8d 47 b9             	lea    -0x47(%rdi),%eax
   180026985:	3c 0c                	cmp    $0xc,%al
   180026987:	77 4d                	ja     0x1800269d6
   180026989:	41 3a f4             	cmp    %r12b,%sil
   18002698c:	75 48                	jne    0x1800269d6
   18002698e:	8a 83 80 00 00 00    	mov    0x80(%rbx),%al
   180026994:	24 02                	and    $0x2,%al
   180026996:	74 06                	je     0x18002699e
   180026998:	f6 43 7c 03          	testb  $0x3,0x7c(%rbx)
   18002699c:	74 17                	je     0x1800269b5
   18002699e:	41 3a c4             	cmp    %r12b,%al
   1800269a1:	75 06                	jne    0x1800269a9
   1800269a3:	f6 43 7c 03          	testb  $0x3,0x7c(%rbx)
   1800269a7:	75 0c                	jne    0x1800269b5
   1800269a9:	40 80 ff 4a          	cmp    $0x4a,%dil
   1800269ad:	74 06                	je     0x1800269b5
   1800269af:	40 80 ff 4e          	cmp    $0x4e,%dil
   1800269b3:	75 21                	jne    0x1800269d6
   1800269b5:	48 8d 15 44 96 fd ff 	lea    -0x269bc(%rip),%rdx        # 0x180000000
   1800269bc:	40 0f b6 cf          	movzbl %dil,%ecx
   1800269c0:	0f b6 84 11 01 de 04 	movzbl 0x4de01(%rcx,%rdx,1),%eax
   1800269c7:	00
   1800269c8:	66 89 43 7a          	mov    %ax,0x7a(%rbx)
   1800269cc:	0f b6 84 11 11 de 04 	movzbl 0x4de11(%rcx,%rdx,1),%eax
   1800269d3:	00
   1800269d4:	eb 2c                	jmp    0x180026a02
   1800269d6:	8a 05 24 74 02 00    	mov    0x27424(%rip),%al        # 0x18004de00
   1800269dc:	48 8d 0d 1d 74 02 00 	lea    0x2741d(%rip),%rcx        # 0x18004de00
   1800269e3:	eb 0b                	jmp    0x1800269f0
   1800269e5:	40 3a f8             	cmp    %al,%dil
   1800269e8:	74 0c                	je     0x1800269f6
   1800269ea:	48 83 c1 03          	add    $0x3,%rcx
   1800269ee:	8a 01                	mov    (%rcx),%al
   1800269f0:	3c ff                	cmp    $0xff,%al
   1800269f2:	75 f1                	jne    0x1800269e5
   1800269f4:	eb 19                	jmp    0x180026a0f
   1800269f6:	0f b6 41 01          	movzbl 0x1(%rcx),%eax
   1800269fa:	66 89 43 78          	mov    %ax,0x78(%rbx)
   1800269fe:	0f b6 41 02          	movzbl 0x2(%rcx),%eax
   180026a02:	89 83 84 00 00 00    	mov    %eax,0x84(%rbx)
   180026a08:	40 88 ab 8c 00 00 00 	mov    %bpl,0x8c(%rbx)
   180026a0f:	48 8b 5c 24 30       	mov    0x30(%rsp),%rbx
   180026a14:	48 8b 6c 24 38       	mov    0x38(%rsp),%rbp
   180026a19:	48 8b 74 24 40       	mov    0x40(%rsp),%rsi
   180026a1e:	48 8b 7c 24 48       	mov    0x48(%rsp),%rdi
   180026a23:	48 83 c4 20          	add    $0x20,%rsp
   180026a27:	41 5c                	pop    %r12
   180026a29:	c3                   	ret
   180026a2a:	cc                   	int3
   180026a2b:	cc                   	int3
   180026a2c:	48 89 5c 24 08       	mov    %rbx,0x8(%rsp)
   180026a31:	48 89 74 24 10       	mov    %rsi,0x10(%rsp)
   180026a36:	57                   	push   %rdi
   180026a37:	48 83 ec 20          	sub    $0x20,%rsp
   180026a3b:	48 8b b9 98 00 00 00 	mov    0x98(%rcx),%rdi
   180026a42:	48 8b d9             	mov    %rcx,%rbx
   180026a45:	48 8b ca             	mov    %rdx,%rcx
   180026a48:	48 8b f2             	mov    %rdx,%rsi
   180026a4b:	e8 4c f8 ff ff       	call   0x18002629c
   180026a50:	48 8b 8b 98 00 00 00 	mov    0x98(%rbx),%rcx
   180026a57:	48 8b 83 90 00 00 00 	mov    0x90(%rbx),%rax
   180026a5e:	48 3b c8             	cmp    %rax,%rcx
   180026a61:	74 25                	je     0x180026a88
   180026a63:	48 83 c7 14          	add    $0x14,%rdi
   180026a67:	48 3b bb a8 00 00 00 	cmp    0xa8(%rbx),%rdi
   180026a6e:	72 07                	jb     0x180026a77
   180026a70:	48 8b bb a0 00 00 00 	mov    0xa0(%rbx),%rdi
   180026a77:	48 3b c7             	cmp    %rdi,%rax
   180026a7a:	75 0c                	jne    0x180026a88
   180026a7c:	48 b8 04 00 00 00 00 	movabs $0x4,%rax
   180026a83:	00 00 00
   180026a86:	eb 36                	jmp    0x180026abe
   180026a88:	48 8b d6             	mov    %rsi,%rdx
   180026a8b:	41 b8 14 00 00 00    	mov    $0x14,%r8d
   180026a91:	e8 7a 30 fe ff       	call   0x180009b10
   180026a96:	48 83 83 98 00 00 00 	addq   $0x14,0x98(%rbx)
   180026a9d:	14
   180026a9e:	48 8b 83 98 00 00 00 	mov    0x98(%rbx),%rax
   180026aa5:	48 3b 83 a8 00 00 00 	cmp    0xa8(%rbx),%rax
   180026aac:	72 0e                	jb     0x180026abc
   180026aae:	48 8b 83 a0 00 00 00 	mov    0xa0(%rbx),%rax
   180026ab5:	48 89 83 98 00 00 00 	mov    %rax,0x98(%rbx)
   180026abc:	33 c0                	xor    %eax,%eax
   180026abe:	48 8b 5c 24 30       	mov    0x30(%rsp),%rbx
   180026ac3:	48 8b 74 24 38       	mov    0x38(%rsp),%rsi
   180026ac8:	48 83 c4 20          	add    $0x20,%rsp
   180026acc:	5f                   	pop    %rdi
   180026acd:	c3                   	ret
   180026ace:	cc                   	int3
   180026acf:	cc                   	int3
   180026ad0:	48 8b 81 98 00 00 00 	mov    0x98(%rcx),%rax
   180026ad7:	48 39 81 90 00 00 00 	cmp    %rax,0x90(%rcx)
   180026ade:	0f 95 c0             	setne  %al
   180026ae1:	c3                   	ret
   180026ae2:	cc                   	int3
   180026ae3:	cc                   	int3
   180026ae4:	40 53                	rex push %rbx
   180026ae6:	48 83 ec 20          	sub    $0x20,%rsp
   180026aea:	48 8b da             	mov    %rdx,%rbx
   180026aed:	48 8d 51 78          	lea    0x78(%rcx),%rdx
   180026af1:	45 33 c0             	xor    %r8d,%r8d
   180026af4:	66 44 39 02          	cmp    %r8w,(%rdx)
   180026af8:	75 39                	jne    0x180026b33
   180026afa:	66 44 39 41 7a       	cmp    %r8w,0x7a(%rcx)
   180026aff:	75 32                	jne    0x180026b33
   180026b01:	8b 41 7c             	mov    0x7c(%rcx),%eax
   180026b04:	0f ba f0 1f          	btr    $0x1f,%eax
   180026b08:	41 3b c0             	cmp    %r8d,%eax
   180026b0b:	74 26                	je     0x180026b33
   180026b0d:	48 8b 05 ac 9e 02 00 	mov    0x29eac(%rip),%rax        # 0x1800509c0
   180026b14:	41 b8 0c 00 00 00    	mov    $0xc,%r8d
   180026b1a:	48 8b cb             	mov    %rbx,%rcx
   180026b1d:	ff 90 60 01 00 00    	call   *0x160(%rax)
   180026b23:	80 4b 08 40          	orb    $0x40,0x8(%rbx)
   180026b27:	48 8b cb             	mov    %rbx,%rcx
   180026b2a:	e8 6d f7 ff ff       	call   0x18002629c
   180026b2f:	33 c0                	xor    %eax,%eax
   180026b31:	eb 0a                	jmp    0x180026b3d
   180026b33:	48 b8 06 00 00 00 00 	movabs $0x8000000000000006,%rax
   180026b3a:	00 00 80
   180026b3d:	48 83 c4 20          	add    $0x20,%rsp
   180026b41:	5b                   	pop    %rbx
   180026b42:	c3                   	ret
   180026b43:	cc                   	int3
   180026b44:	48 89 5c 24 08       	mov    %rbx,0x8(%rsp)
   180026b49:	57                   	push   %rdi
   180026b4a:	48 83 ec 20          	sub    $0x20,%rsp
   180026b4e:	80 b9 b2 00 00 00 01 	cmpb   $0x1,0xb2(%rcx)
   180026b55:	48 8b d9             	mov    %rcx,%rbx
   180026b58:	75 4f                	jne    0x180026ba9
   180026b5a:	e8 c5 51 ff ff       	call   0x18001bd24
   180026b5f:	bf e8 03 00 00       	mov    $0x3e8,%edi
   180026b64:	eb 0c                	jmp    0x180026b72
   180026b66:	a8 20                	test   $0x20,%al
   180026b68:	75 08                	jne    0x180026b72
   180026b6a:	33 c9                	xor    %ecx,%ecx
   180026b6c:	ff 15 be 63 02 00    	call   *0x263be(%rip)        # 0x18004cf30
   180026b72:	b9 64 00 00 00       	mov    $0x64,%ecx
   180026b77:	e8 44 31 fe ff       	call   0x180009cc0
   180026b7c:	a8 01                	test   $0x1,%al
   180026b7e:	75 e6                	jne    0x180026b66
   180026b80:	80 bb b2 00 00 00 00 	cmpb   $0x0,0xb2(%rbx)
   180026b87:	74 20                	je     0x180026ba9
   180026b89:	48 8b 05 08 9f 02 00 	mov    0x29f08(%rip),%rax        # 0x180050a98
   180026b90:	b9 e8 03 00 00       	mov    $0x3e8,%ecx
   180026b95:	48 8b 50 60          	mov    0x60(%rax),%rdx
   180026b99:	ff 92 f8 00 00 00    	call   *0xf8(%rdx)
   180026b9f:	83 c7 ff             	add    $0xffffffff,%edi
   180026ba2:	75 ce                	jne    0x180026b72
   180026ba4:	e8 cb 51 ff ff       	call   0x18001bd74
   180026ba9:	48 8b 5c 24 30       	mov    0x30(%rsp),%rbx
   180026bae:	48 83 c4 20          	add    $0x20,%rsp
   180026bb2:	5f                   	pop    %rdi
   180026bb3:	c3                   	ret
   180026bb4:	40 53                	rex push %rbx
   180026bb6:	48 83 ec 20          	sub    $0x20,%rsp
   180026bba:	48 8b 05 37 a1 02 00 	mov    0x2a137(%rip),%rax        # 0x180050cf8
   180026bc1:	48 8b d9             	mov    %rcx,%rbx
   180026bc4:	48 85 c0             	test   %rax,%rax
   180026bc7:	75 3f                	jne    0x180026c08
   180026bc9:	48 8b 05 f0 9d 02 00 	mov    0x29df0(%rip),%rax        # 0x1800509c0
   180026bd0:	4c 8d 05 21 a1 02 00 	lea    0x2a121(%rip),%r8        # 0x180050cf8
   180026bd7:	48 8d 0d 32 71 02 00 	lea    0x27132(%rip),%rcx        # 0x18004dd10
   180026bde:	33 d2                	xor    %edx,%edx
   180026be0:	ff 90 40 01 00 00    	call   *0x140(%rax)
   180026be6:	48 b9 00 00 00 00 00 	movabs $0x8000000000000000,%rcx
   180026bed:	00 00 80
   180026bf0:	48 85 c1             	test   %rax,%rcx
   180026bf3:	74 0c                	je     0x180026c01
   180026bf5:	48 b8 0e 00 00 00 00 	movabs $0x800000000000000e,%rax
   180026bfc:	00 00 80
   180026bff:	eb 0f                	jmp    0x180026c10
   180026c01:	48 8b 05 f0 a0 02 00 	mov    0x2a0f0(%rip),%rax        # 0x180050cf8
   180026c08:	48 8b d3             	mov    %rbx,%rdx
   180026c0b:	48 8b c8             	mov    %rax,%rcx
   180026c0e:	ff 10                	call   *(%rax)
   180026c10:	48 83 c4 20          	add    $0x20,%rsp
   180026c14:	5b                   	pop    %rbx
   180026c15:	c3                   	ret
   180026c16:	cc                   	int3
   180026c17:	cc                   	int3
   180026c18:	48 89 5c 24 08       	mov    %rbx,0x8(%rsp)
   180026c1d:	57                   	push   %rdi
   180026c1e:	48 83 ec 20          	sub    $0x20,%rsp
   180026c22:	80 3d a9 a1 02 00 00 	cmpb   $0x0,0x2a1a9(%rip)        # 0x180050dd2
   180026c29:	48 8b da             	mov    %rdx,%rbx
   180026c2c:	48 8b f9             	mov    %rcx,%rdi
   180026c2f:	75 4f                	jne    0x180026c80
   180026c31:	80 3d b9 a0 02 00 00 	cmpb   $0x0,0x2a0b9(%rip)        # 0x180050cf1
   180026c38:	75 46                	jne    0x180026c80
   180026c3a:	80 3d b1 a0 02 00 00 	cmpb   $0x0,0x2a0b1(%rip)        # 0x180050cf2
   180026c41:	75 3d                	jne    0x180026c80
   180026c43:	80 3d a9 a0 02 00 00 	cmpb   $0x0,0x2a0a9(%rip)        # 0x180050cf3
   180026c4a:	75 34                	jne    0x180026c80
   180026c4c:	80 3d 25 ac 02 00 00 	cmpb   $0x0,0x2ac25(%rip)        # 0x180051878
   180026c53:	75 2b                	jne    0x180026c80
   180026c55:	48 8b ca             	mov    %rdx,%rcx
   180026c58:	c6 05 93 a0 02 00 01 	movb   $0x1,0x2a093(%rip)        # 0x180050cf2
   180026c5f:	e8 20 57 ff ff       	call   0x18001c384
   180026c64:	c6 05 87 a0 02 00 00 	movb   $0x0,0x2a087(%rip)        # 0x180050cf2
   180026c6b:	48 8b 83 98 00 00 00 	mov    0x98(%rbx),%rax
   180026c72:	48 39 83 90 00 00 00 	cmp    %rax,0x90(%rbx)
   180026c79:	74 23                	je     0x180026c9e
   180026c7b:	48 8b cf             	mov    %rdi,%rcx
   180026c7e:	eb 10                	jmp    0x180026c90
   180026c80:	48 8b 82 98 00 00 00 	mov    0x98(%rdx),%rax
   180026c87:	48 39 82 90 00 00 00 	cmp    %rax,0x90(%rdx)
   180026c8e:	74 0e                	je     0x180026c9e
   180026c90:	48 8b 05 01 9e 02 00 	mov    0x29e01(%rip),%rax        # 0x180050a98
   180026c97:	48 8b 50 60          	mov    0x60(%rax),%rdx
   180026c9b:	ff 52 68             	call   *0x68(%rdx)
   180026c9e:	48 8b 5c 24 30       	mov    0x30(%rsp),%rbx
   180026ca3:	48 83 c4 20          	add    $0x20,%rsp
   180026ca7:	5f                   	pop    %rdi
   180026ca8:	c3                   	ret
   180026ca9:	cc                   	int3
   180026caa:	cc                   	int3
   180026cab:	cc                   	int3
   180026cac:	48 89 5c 24 08       	mov    %rbx,0x8(%rsp)
   180026cb1:	57                   	push   %rdi
   180026cb2:	48 83 ec 20          	sub    $0x20,%rsp
   180026cb6:	8a 81 8d 00 00 00    	mov    0x8d(%rcx),%al
   180026cbc:	33 ff                	xor    %edi,%edi
   180026cbe:	48 8b d9             	mov    %rcx,%rbx
   180026cc1:	40 3a c7             	cmp    %dil,%al
   180026cc4:	75 38                	jne    0x180026cfe
   180026cc6:	0f b6 ca             	movzbl %dl,%ecx
   180026cc9:	81 e9 e0 00 00 00    	sub    $0xe0,%ecx
   180026ccf:	74 21                	je     0x180026cf2
   180026cd1:	83 f9 01             	cmp    $0x1,%ecx
   180026cd4:	74 10                	je     0x180026ce6
   180026cd6:	45 33 c0             	xor    %r8d,%r8d
   180026cd9:	48 8b cb             	mov    %rbx,%rcx
   180026cdc:	e8 73 f8 ff ff       	call   0x180026554
   180026ce1:	e9 dc 00 00 00       	jmp    0x180026dc2
   180026ce6:	c6 83 8d 00 00 00 02 	movb   $0x2,0x8d(%rbx)
   180026ced:	e9 d0 00 00 00       	jmp    0x180026dc2
   180026cf2:	c6 83 8d 00 00 00 01 	movb   $0x1,0x8d(%rbx)
   180026cf9:	e9 c4 00 00 00       	jmp    0x180026dc2
   180026cfe:	3c 02                	cmp    $0x2,%al
   180026d00:	75 50                	jne    0x180026d52
   180026d02:	0f b6 81 b0 00 00 00 	movzbl 0xb0(%rcx),%eax
   180026d09:	4c 8d 05 f0 92 fd ff 	lea    -0x26d10(%rip),%r8        # 0x180000000
   180026d10:	42 3a 94 00 34 dd 04 	cmp    0x4dd34(%rax,%r8,1),%dl
   180026d17:	00
   180026d18:	74 13                	je     0x180026d2d
   180026d1a:	40 88 b9 8d 00 00 00 	mov    %dil,0x8d(%rcx)
   180026d21:	40 88 b9 b0 00 00 00 	mov    %dil,0xb0(%rcx)
   180026d28:	e9 95 00 00 00       	jmp    0x180026dc2
   180026d2d:	3c 02                	cmp    $0x2,%al
   180026d2f:	75 13                	jne    0x180026d44
   180026d31:	c7 81 84 00 00 00 68 	movl   $0x68,0x84(%rcx)
   180026d38:	00 00 00
   180026d3b:	c6 81 8c 00 00 00 01 	movb   $0x1,0x8c(%rcx)
   180026d42:	eb d6                	jmp    0x180026d1a
   180026d44:	3c 04                	cmp    $0x4,%al
   180026d46:	74 64                	je     0x180026dac
   180026d48:	fe c0                	inc    %al
   180026d4a:	88 81 b0 00 00 00    	mov    %al,0xb0(%rcx)
   180026d50:	eb 70                	jmp    0x180026dc2
   180026d52:	3c 01                	cmp    $0x1,%al
   180026d54:	75 56                	jne    0x180026dac
   180026d56:	8a ca                	mov    %dl,%cl
   180026d58:	48 8b c7             	mov    %rdi,%rax
   180026d5b:	4c 8d 05 9e 92 fd ff 	lea    -0x26d62(%rip),%r8        # 0x180000000
   180026d62:	80 e1 7f             	and    $0x7f,%cl
   180026d65:	42 3a 8c 00 08 dd 04 	cmp    0x4dd08(%rax,%r8,1),%cl
   180026d6c:	00
   180026d6d:	74 45                	je     0x180026db4
   180026d6f:	48 ff c0             	inc    %rax
   180026d72:	48 83 f8 03          	cmp    $0x3,%rax
   180026d76:	72 ed                	jb     0x180026d65
   180026d78:	80 fa 2a             	cmp    $0x2a,%dl
   180026d7b:	74 37                	je     0x180026db4
   180026d7d:	80 fa aa             	cmp    $0xaa,%dl
   180026d80:	74 32                	je     0x180026db4
   180026d82:	84 d2                	test   %dl,%dl
   180026d84:	79 1e                	jns    0x180026da4
   180026d86:	80 fa b8             	cmp    $0xb8,%dl
   180026d89:	74 19                	je     0x180026da4
   180026d8b:	80 fa 9d             	cmp    $0x9d,%dl
   180026d8e:	74 14                	je     0x180026da4
   180026d90:	80 fa b7             	cmp    $0xb7,%dl
   180026d93:	74 0f                	je     0x180026da4
   180026d95:	80 fa db             	cmp    $0xdb,%dl
   180026d98:	74 0a                	je     0x180026da4
   180026d9a:	80 fa dc             	cmp    $0xdc,%dl
   180026d9d:	74 05                	je     0x180026da4
   180026d9f:	80 fa dd             	cmp    $0xdd,%dl
   180026da2:	75 10                	jne    0x180026db4
   180026da4:	41 b0 01             	mov    $0x1,%r8b
   180026da7:	48 8b cb             	mov    %rbx,%rcx
   180026daa:	eb 03                	jmp    0x180026daf
   180026dac:	45 33 c0             	xor    %r8d,%r8d
   180026daf:	e8 a0 f7 ff ff       	call   0x180026554
   180026db4:	40 88 bb 8d 00 00 00 	mov    %dil,0x8d(%rbx)
   180026dbb:	40 88 bb b0 00 00 00 	mov    %dil,0xb0(%rbx)
   180026dc2:	48 8b 5c 24 30       	mov    0x30(%rsp),%rbx
   180026dc7:	48 83 c4 20          	add    $0x20,%rsp
   180026dcb:	5f                   	pop    %rdi
   180026dcc:	c3                   	ret
   180026dcd:	cc                   	int3
   180026dce:	cc                   	int3
   180026dcf:	cc                   	int3
   180026dd0:	48 89 5c 24 08       	mov    %rbx,0x8(%rsp)
   180026dd5:	57                   	push   %rdi
   180026dd6:	48 83 ec 20          	sub    $0x20,%rsp
   180026dda:	8a 81 80 00 00 00    	mov    0x80(%rcx),%al
   180026de0:	48 8b d9             	mov    %rcx,%rbx
   180026de3:	24 07                	and    $0x7,%al
   180026de5:	80 3d 6d 9e 02 00 00 	cmpb   $0x0,0x29e6d(%rip)        # 0x180050c59
   180026dec:	0f 85 8d 00 00 00    	jne    0x180026e7f
   180026df2:	80 3d c7 a0 02 00 00 	cmpb   $0x0,0x2a0c7(%rip)        # 0x180050ec0
   180026df9:	c6 05 59 9e 02 00 01 	movb   $0x1,0x29e59(%rip)        # 0x180050c59
   180026e00:	74 61                	je     0x180026e63
   180026e02:	80 3d eb 9e 02 00 00 	cmpb   $0x0,0x29eeb(%rip)        # 0x180050cf4
   180026e09:	74 58                	je     0x180026e63
   180026e0b:	80 3d 16 61 02 00 00 	cmpb   $0x0,0x26116(%rip)        # 0x18004cf28
   180026e12:	74 4f                	je     0x180026e63
   180026e14:	3a 81 b1 00 00 00    	cmp    0xb1(%rcx),%al
   180026e1a:	74 3e                	je     0x180026e5a
   180026e1c:	c6 81 b3 00 00 00 00 	movb   $0x0,0xb3(%rcx)
   180026e23:	e8 a4 52 ff ff       	call   0x18001c0cc
   180026e28:	80 bb b2 00 00 00 01 	cmpb   $0x1,0xb2(%rbx)
   180026e2f:	75 29                	jne    0x180026e5a
   180026e31:	bf e8 03 00 00       	mov    $0x3e8,%edi
   180026e36:	80 bb b2 00 00 00 00 	cmpb   $0x0,0xb2(%rbx)
   180026e3d:	74 1b                	je     0x180026e5a
   180026e3f:	48 8b 05 52 9c 02 00 	mov    0x29c52(%rip),%rax        # 0x180050a98
   180026e46:	b9 e8 03 00 00       	mov    $0x3e8,%ecx
   180026e4b:	48 8b 50 60          	mov    0x60(%rax),%rdx
   180026e4f:	ff 92 f8 00 00 00    	call   *0xf8(%rdx)
   180026e55:	83 c7 ff             	add    $0xffffffff,%edi
   180026e58:	75 dc                	jne    0x180026e36
   180026e5a:	c6 83 b2 00 00 00 00 	movb   $0x0,0xb2(%rbx)
   180026e61:	eb 15                	jmp    0x180026e78
   180026e63:	3a 81 b1 00 00 00    	cmp    0xb1(%rcx),%al
   180026e69:	74 0d                	je     0x180026e78
   180026e6b:	e8 5c 52 ff ff       	call   0x18001c0cc
   180026e70:	48 8b cb             	mov    %rbx,%rcx
   180026e73:	e8 cc fc ff ff       	call   0x180026b44
   180026e78:	c6 05 da 9d 02 00 00 	movb   $0x0,0x29dda(%rip)        # 0x180050c59
   180026e7f:	48 8b 5c 24 30       	mov    0x30(%rsp),%rbx
   180026e84:	48 83 c4 20          	add    $0x20,%rsp
   180026e88:	5f                   	pop    %rdi
   180026e89:	c3                   	ret
   180026e8a:	cc                   	int3
   180026e8b:	cc                   	int3
   180026e8c:	48 89 5c 24 08       	mov    %rbx,0x8(%rsp)
   180026e91:	48 89 74 24 10       	mov    %rsi,0x10(%rsp)
   180026e96:	57                   	push   %rdi
   180026e97:	48 83 ec 40          	sub    $0x40,%rsp
   180026e9b:	48 8b f2             	mov    %rdx,%rsi
   180026e9e:	48 8b 91 90 00 00 00 	mov    0x90(%rcx),%rdx
   180026ea5:	41 8a f8             	mov    %r8b,%dil
   180026ea8:	48 8b d9             	mov    %rcx,%rbx
   180026eab:	48 3b 91 98 00 00 00 	cmp    0x98(%rcx),%rdx
   180026eb2:	75 0c                	jne    0x180026ec0
   180026eb4:	48 b8 06 00 00 00 00 	movabs $0x8000000000000006,%rax
   180026ebb:	00 00 80
   180026ebe:	eb 7a                	jmp    0x180026f3a
   180026ec0:	48 8b 05 f9 9a 02 00 	mov    0x29af9(%rip),%rax        # 0x1800509c0
   180026ec7:	48 8d 4c 24 20       	lea    0x20(%rsp),%rcx
   180026ecc:	41 b8 14 00 00 00    	mov    $0x14,%r8d
   180026ed2:	ff 90 60 01 00 00    	call   *0x160(%rax)
   180026ed8:	48 8d 4c 24 20       	lea    0x20(%rsp),%rcx
   180026edd:	c6 44 24 30 01       	movb   $0x1,0x30(%rsp)
   180026ee2:	c6 44 24 32 01       	movb   $0x1,0x32(%rsp)
   180026ee7:	e8 c8 fc ff ff       	call   0x180026bb4
   180026eec:	66 83 7c 24 22 00    	cmpw   $0x0,0x22(%rsp)
   180026ef2:	74 05                	je     0x180026ef9
   180026ef4:	83 64 24 24 fc       	andl   $0xfffffffc,0x24(%rsp)
   180026ef9:	48 8b 05 c0 9a 02 00 	mov    0x29ac0(%rip),%rax        # 0x1800509c0
   180026f00:	48 8d 54 24 20       	lea    0x20(%rsp),%rdx
   180026f05:	44 0f b6 c7          	movzbl %dil,%r8d
   180026f09:	48 8b ce             	mov    %rsi,%rcx
   180026f0c:	ff 90 60 01 00 00    	call   *0x160(%rax)
   180026f12:	48 83 83 90 00 00 00 	addq   $0x14,0x90(%rbx)
   180026f19:	14
   180026f1a:	48 8b 83 90 00 00 00 	mov    0x90(%rbx),%rax
   180026f21:	48 3b 83 a8 00 00 00 	cmp    0xa8(%rbx),%rax
   180026f28:	72 0e                	jb     0x180026f38
   180026f2a:	48 8b 83 a0 00 00 00 	mov    0xa0(%rbx),%rax
   180026f31:	48 89 83 90 00 00 00 	mov    %rax,0x90(%rbx)
   180026f38:	33 c0                	xor    %eax,%eax
   180026f3a:	48 8b 5c 24 50       	mov    0x50(%rsp),%rbx
   180026f3f:	48 8b 74 24 58       	mov    0x58(%rsp),%rsi
   180026f44:	48 83 c4 40          	add    $0x40,%rsp
   180026f48:	5f                   	pop    %rdi
   180026f49:	c3                   	ret
   180026f4a:	cc                   	int3
   180026f4b:	cc                   	int3
   180026f4c:	48 89 5c 24 08       	mov    %rbx,0x8(%rsp)
   180026f51:	48 89 7c 24 10       	mov    %rdi,0x10(%rsp)
   180026f56:	41 54                	push   %r12
   180026f58:	48 83 ec 30          	sub    $0x30,%rsp
   180026f5c:	80 3d 5d 9f 02 00 00 	cmpb   $0x0,0x29f5d(%rip)        # 0x180050ec0
   180026f63:	74 1b                	je     0x180026f80
   180026f65:	80 3d 88 9d 02 00 00 	cmpb   $0x0,0x29d88(%rip)        # 0x180050cf4
   180026f6c:	74 12                	je     0x180026f80
   180026f6e:	48 8b 05 43 aa 02 00 	mov    0x2aa43(%rip),%rax        # 0x1800519b8
   180026f75:	ba 01 00 00 00       	mov    $0x1,%edx
   180026f7a:	48 8b c8             	mov    %rax,%rcx
   180026f7d:	ff 50 30             	call   *0x30(%rax)
   180026f80:	48 8b 0d d9 a9 02 00 	mov    0x2a9d9(%rip),%rcx        # 0x180051960
   180026f87:	48 8b 05 32 9a 02 00 	mov    0x29a32(%rip),%rax        # 0x1800509c0
   180026f8e:	45 33 c0             	xor    %r8d,%r8d
   180026f91:	ba 40 01 00 00       	mov    $0x140,%edx
   180026f96:	c6 05 56 9d 02 00 01 	movb   $0x1,0x29d56(%rip)        # 0x180050cf3
   180026f9d:	c6 05 a8 a9 02 00 00 	movb   $0x0,0x2a9a8(%rip)        # 0x18005194c
   180026fa4:	48 89 0d a5 a9 02 00 	mov    %rcx,0x2a9a5(%rip)        # 0x180051950
   180026fab:	48 89 0d a6 a9 02 00 	mov    %rcx,0x2a9a6(%rip)        # 0x180051958
   180026fb2:	c6 05 94 a9 02 00 00 	movb   $0x0,0x2a994(%rip)        # 0x18005194d
   180026fb9:	ff 90 68 01 00 00    	call   *0x168(%rax)
   180026fbf:	e8 60 4d ff ff       	call   0x18001bd24
   180026fc4:	48 83 64 24 20 00    	andq   $0x0,0x20(%rsp)
   180026fca:	45 33 c9             	xor    %r9d,%r9d
   180026fcd:	45 33 c0             	xor    %r8d,%r8d
   180026fd0:	ba 01 00 01 01       	mov    $0x1010001,%edx
   180026fd5:	41 8d 49 01          	lea    0x1(%r9),%ecx
   180026fd9:	e8 16 07 fe ff       	call   0x1800076f4
   180026fde:	40 32 ff             	xor    %dil,%dil
   180026fe1:	49 bc 00 00 00 00 00 	movabs $0x8000000000000000,%r12
   180026fe8:	00 00 80
   180026feb:	32 db                	xor    %bl,%bl
   180026fed:	48 8d 54 24 50       	lea    0x50(%rsp),%rdx
   180026ff2:	41 b0 fa             	mov    $0xfa,%r8b
   180026ff5:	b1 f5                	mov    $0xf5,%cl
   180026ff7:	e8 c0 51 ff ff       	call   0x18001c1bc
   180026ffc:	49 85 c4             	test   %rax,%r12
   180026fff:	74 0c                	je     0x18002700d
   180027001:	fe c3                	inc    %bl
   180027003:	80 fb 03             	cmp    $0x3,%bl
   180027006:	72 e5                	jb     0x180026fed
   180027008:	49 85 c4             	test   %rax,%r12
   18002700b:	75 22                	jne    0x18002702f
   18002700d:	32 db                	xor    %bl,%bl
   18002700f:	48 8d 54 24 50       	lea    0x50(%rsp),%rdx
   180027014:	41 b0 fa             	mov    $0xfa,%r8b
   180027017:	b1 f4                	mov    $0xf4,%cl
   180027019:	e8 9e 51 ff ff       	call   0x18001c1bc
   18002701e:	49 85 c4             	test   %rax,%r12
   180027021:	74 15                	je     0x180027038
   180027023:	fe c3                	inc    %bl
   180027025:	80 fb 03             	cmp    $0x3,%bl
   180027028:	72 e5                	jb     0x18002700f
   18002702a:	49 85 c4             	test   %rax,%r12
   18002702d:	74 09                	je     0x180027038
   18002702f:	40 fe c7             	inc    %dil
   180027032:	40 80 ff 04          	cmp    $0x4,%dil
   180027036:	72 b3                	jb     0x180026feb
   180027038:	bb 02 00 00 80       	mov    $0x80000002,%ebx
   18002703d:	49 85 c4             	test   %rax,%r12
   180027040:	74 18                	je     0x18002705a
   180027042:	48 83 64 24 20 00    	andq   $0x0,0x20(%rsp)
   180027048:	45 33 c9             	xor    %r9d,%r9d
   18002704b:	45 33 c0             	xor    %r8d,%r8d
   18002704e:	ba 00 80 01 01       	mov    $0x1018000,%edx
   180027053:	8b cb                	mov    %ebx,%ecx
   180027055:	e8 9a 06 fe ff       	call   0x1800076f4
   18002705a:	c6 05 c7 5e 02 00 00 	movb   $0x0,0x25ec7(%rip)        # 0x18004cf28
   180027061:	e8 0e 4d ff ff       	call   0x18001bd74
   180027066:	49 85 c4             	test   %rax,%r12
   180027069:	74 18                	je     0x180027083
   18002706b:	48 83 64 24 20 00    	andq   $0x0,0x20(%rsp)
   180027071:	45 33 c9             	xor    %r9d,%r9d
   180027074:	45 33 c0             	xor    %r8d,%r8d
   180027077:	ba 06 00 01 01       	mov    $0x1010006,%edx
   18002707c:	8b cb                	mov    %ebx,%ecx
   18002707e:	e8 71 06 fe ff       	call   0x1800076f4
   180027083:	8a 05 6b 9c 02 00    	mov    0x29c6b(%rip),%al        # 0x180050cf4
   180027089:	84 c0                	test   %al,%al
   18002708b:	75 12                	jne    0x18002709f
   18002708d:	48 8d 0d 2c a8 02 00 	lea    0x2a82c(%rip),%rcx        # 0x1800518c0
   180027094:	e8 37 fd ff ff       	call   0x180026dd0
   180027099:	8a 05 55 9c 02 00    	mov    0x29c55(%rip),%al        # 0x180050cf4
   18002709f:	80 3d 1a 9e 02 00 00 	cmpb   $0x0,0x29e1a(%rip)        # 0x180050ec0
   1800270a6:	c6 05 c5 a8 02 00 00 	movb   $0x0,0x2a8c5(%rip)        # 0x180051972
   1800270ad:	c6 05 3f 9c 02 00 00 	movb   $0x0,0x29c3f(%rip)        # 0x180050cf3
   1800270b4:	74 18                	je     0x1800270ce
   1800270b6:	84 c0                	test   %al,%al
   1800270b8:	74 14                	je     0x1800270ce
   1800270ba:	48 8b 05 f7 a8 02 00 	mov    0x2a8f7(%rip),%rax        # 0x1800519b8
   1800270c1:	45 33 c0             	xor    %r8d,%r8d
   1800270c4:	41 8d 50 01          	lea    0x1(%r8),%edx
   1800270c8:	48 8b c8             	mov    %rax,%rcx
   1800270cb:	ff 50 28             	call   *0x28(%rax)
   1800270ce:	48 8b 5c 24 40       	mov    0x40(%rsp),%rbx
   1800270d3:	48 8b 7c 24 48       	mov    0x48(%rsp),%rdi
   1800270d8:	33 c0                	xor    %eax,%eax
   1800270da:	48 83 c4 30          	add    $0x30,%rsp
   1800270de:	41 5c                	pop    %r12
   1800270e0:	c3                   	ret
   1800270e1:	cc                   	int3
   1800270e2:	cc                   	int3
   1800270e3:	cc                   	int3
   1800270e4:	33 c9                	xor    %ecx,%ecx
   1800270e6:	e9 61 fe ff ff       	jmp    0x180026f4c
   1800270eb:	cc                   	int3
   1800270ec:	48 83 ec 28          	sub    $0x28,%rsp
   1800270f0:	48 85 d2             	test   %rdx,%rdx
   1800270f3:	75 0c                	jne    0x180027101
   1800270f5:	48 b8 02 00 00 00 00 	movabs $0x8000000000000002,%rax
   1800270fc:	00 00 80
   1800270ff:	eb 77                	jmp    0x180027178
   180027101:	8a 0a                	mov    (%rdx),%cl
   180027103:	84 c9                	test   %cl,%cl
   180027105:	79 67                	jns    0x18002716e
   180027107:	f6 c1 38             	test   $0x38,%cl
   18002710a:	75 62                	jne    0x18002716e
   18002710c:	8a 05 2e a8 02 00    	mov    0x2a82e(%rip),%al        # 0x180051940
   180027112:	41 b2 01             	mov    $0x1,%r10b
   180027115:	41 b0 04             	mov    $0x4,%r8b
   180027118:	32 c8                	xor    %al,%cl
   18002711a:	41 b1 02             	mov    $0x2,%r9b
   18002711d:	41 84 ca             	test   %cl,%r10b
   180027120:	75 0a                	jne    0x18002712c
   180027122:	41 84 c8             	test   %cl,%r8b
   180027125:	75 05                	jne    0x18002712c
   180027127:	41 84 c9             	test   %cl,%r9b
   18002712a:	74 3e                	je     0x18002716a
   18002712c:	24 f8                	and    $0xf8,%al
   18002712e:	88 05 0c a8 02 00    	mov    %al,0x2a80c(%rip)        # 0x180051940
   180027134:	44 84 12             	test   %r10b,(%rdx)
   180027137:	74 09                	je     0x180027142
   180027139:	41 0a c2             	or     %r10b,%al
   18002713c:	88 05 fe a7 02 00    	mov    %al,0x2a7fe(%rip)        # 0x180051940
   180027142:	44 84 0a             	test   %r9b,(%rdx)
   180027145:	74 09                	je     0x180027150
   180027147:	41 0a c1             	or     %r9b,%al
   18002714a:	88 05 f0 a7 02 00    	mov    %al,0x2a7f0(%rip)        # 0x180051940
   180027150:	44 84 02             	test   %r8b,(%rdx)
   180027153:	74 09                	je     0x18002715e
   180027155:	41 0a c0             	or     %r8b,%al
   180027158:	88 05 e2 a7 02 00    	mov    %al,0x2a7e2(%rip)        # 0x180051940
   18002715e:	48 8d 0d 5b a7 02 00 	lea    0x2a75b(%rip),%rcx        # 0x1800518c0
   180027165:	e8 66 fc ff ff       	call   0x180026dd0
   18002716a:	33 c0                	xor    %eax,%eax
   18002716c:	eb 0a                	jmp    0x180027178
   18002716e:	48 b8 03 00 00 00 00 	movabs $0x8000000000000003,%rax
   180027175:	00 00 80
   180027178:	48 83 c4 28          	add    $0x28,%rsp
   18002717c:	c3                   	ret
   18002717d:	cc                   	int3
   18002717e:	cc                   	int3
   18002717f:	cc                   	int3
   180027180:	48 89 5c 24 08       	mov    %rbx,0x8(%rsp)
   180027185:	57                   	push   %rdi
   180027186:	48 83 ec 30          	sub    $0x30,%rsp
   18002718a:	48 8b d9             	mov    %rcx,%rbx
   18002718d:	e8 1a fb ff ff       	call   0x180026cac
   180027192:	33 ff                	xor    %edi,%edi
   180027194:	40 38 bb 8c 00 00 00 	cmp    %dil,0x8c(%rbx)
   18002719b:	74 24                	je     0x1800271c1
   18002719d:	0f b7 53 7c          	movzwl 0x7c(%rbx),%edx
   1800271a1:	8a 8b 89 00 00 00    	mov    0x89(%rbx),%cl
   1800271a7:	e8 ac c4 00 00       	call   0x180033658
   1800271ac:	48 8d 53 78          	lea    0x78(%rbx),%rdx
   1800271b0:	48 8b cb             	mov    %rbx,%rcx
   1800271b3:	e8 74 f8 ff ff       	call   0x180026a2c
   1800271b8:	40 88 bb 8c 00 00 00 	mov    %dil,0x8c(%rbx)
   1800271bf:	eb 4a                	jmp    0x18002720b
   1800271c1:	48 8d 53 78          	lea    0x78(%rbx),%rdx
   1800271c5:	66 39 3a             	cmp    %di,(%rdx)
   1800271c8:	75 41                	jne    0x18002720b
   1800271ca:	66 39 7b 7a          	cmp    %di,0x7a(%rbx)
   1800271ce:	75 3b                	jne    0x18002720b
   1800271d0:	40 38 bb 8d 00 00 00 	cmp    %dil,0x8d(%rbx)
   1800271d7:	75 32                	jne    0x18002720b
   1800271d9:	8b 43 7c             	mov    0x7c(%rbx),%eax
   1800271dc:	0f ba f0 1f          	btr    $0x1f,%eax
   1800271e0:	3b c7                	cmp    %edi,%eax
   1800271e2:	74 27                	je     0x18002720b
   1800271e4:	48 8b 05 d5 97 02 00 	mov    0x297d5(%rip),%rax        # 0x1800509c0
   1800271eb:	48 8d 4c 24 20       	lea    0x20(%rsp),%rcx
   1800271f0:	41 b8 0c 00 00 00    	mov    $0xc,%r8d
   1800271f6:	ff 90 60 01 00 00    	call   *0x160(%rax)
   1800271fc:	80 4c 24 28 40       	orb    $0x40,0x28(%rsp)
   180027201:	48 8d 4c 24 20       	lea    0x20(%rsp),%rcx
   180027206:	e8 91 f0 ff ff       	call   0x18002629c
   18002720b:	48 8b 5c 24 40       	mov    0x40(%rsp),%rbx
   180027210:	48 83 c4 30          	add    $0x30,%rsp
   180027214:	5f                   	pop    %rdi
   180027215:	c3                   	ret
   180027216:	cc                   	int3
   180027217:	cc                   	int3
   180027218:	48 89 5c 24 08       	mov    %rbx,0x8(%rsp)
   18002721d:	57                   	push   %rdi
   18002721e:	48 83 ec 20          	sub    $0x20,%rsp
   180027222:	8a 1d 18 a7 02 00    	mov    0x2a718(%rip),%bl        # 0x180051940
   180027228:	b9 60 00 00 00       	mov    $0x60,%ecx
   18002722d:	80 e3 07             	and    $0x7,%bl
   180027230:	e8 8b 2a fe ff       	call   0x180009cc0
   180027235:	48 8b 15 74 a6 02 00 	mov    0x2a674(%rip),%rdx        # 0x1800518b0
   18002723c:	48 8b ca             	mov    %rdx,%rcx
   18002723f:	0f b6 f8             	movzbl %al,%edi
   180027242:	ff 52 10             	call   *0x10(%rdx)
   180027245:	44 8b df             	mov    %edi,%r11d
   180027248:	41 81 eb fa 00 00 00 	sub    $0xfa,%r11d
   18002724f:	0f 84 91 00 00 00    	je     0x1800272e6
   180027255:	41 83 eb 04          	sub    $0x4,%r11d
   180027259:	74 57                	je     0x1800272b2
   18002725b:	33 c9                	xor    %ecx,%ecx
   18002725d:	41 83 fb 01          	cmp    $0x1,%r11d
   180027261:	74 40                	je     0x1800272a3
   180027263:	38 0d 8c 9a 02 00    	cmp    %cl,0x29a8c(%rip)        # 0x180050cf5
   180027269:	75 27                	jne    0x180027292
   18002726b:	8a 05 1f a7 02 00    	mov    0x2a71f(%rip),%al        # 0x180051990
   180027271:	3c 10                	cmp    $0x10,%al
   180027273:	0f 83 a6 00 00 00    	jae    0x18002731f
   180027279:	48 8d 0d 00 a7 02 00 	lea    0x2a700(%rip),%rcx        # 0x180051980
   180027280:	0f b6 c0             	movzbl %al,%eax
   180027283:	40 88 3c 08          	mov    %dil,(%rax,%rcx,1)
   180027287:	fe 05 03 a7 02 00    	incb   0x2a703(%rip)        # 0x180051990
   18002728d:	e9 8d 00 00 00       	jmp    0x18002731f
   180027292:	48 8d 0d 27 a6 02 00 	lea    0x2a627(%rip),%rcx        # 0x1800518c0
   180027299:	40 8a d7             	mov    %dil,%dl
   18002729c:	e8 df fe ff ff       	call   0x180027180
   1800272a1:	eb 7c                	jmp    0x18002731f
   1800272a3:	c6 05 c9 a6 02 00 fe 	movb   $0xfe,0x2a6c9(%rip)        # 0x180051973
   1800272aa:	88 0d c2 a6 02 00    	mov    %cl,0x2a6c2(%rip)        # 0x180051972
   1800272b0:	eb 6d                	jmp    0x18002731f
   1800272b2:	8a 05 ba a6 02 00    	mov    0x2a6ba(%rip),%al        # 0x180051972
   1800272b8:	c6 05 b4 a6 02 00 fe 	movb   $0xfe,0x2a6b4(%rip)        # 0x180051973
   1800272bf:	3c 01                	cmp    $0x1,%al
   1800272c1:	74 04                	je     0x1800272c7
   1800272c3:	3c 02                	cmp    $0x2,%al
   1800272c5:	75 58                	jne    0x18002731f
   1800272c7:	b1 f4                	mov    $0xf4,%cl
   1800272c9:	e8 6e 4d ff ff       	call   0x18001c03c
   1800272ce:	80 25 6b a6 02 00 f8 	andb   $0xf8,0x2a66b(%rip)        # 0x180051940
   1800272d5:	33 c9                	xor    %ecx,%ecx
   1800272d7:	80 25 93 a6 02 00 f0 	andb   $0xf0,0x2a693(%rip)        # 0x180051971
   1800272de:	88 0d 8e a6 02 00    	mov    %cl,0x2a68e(%rip)        # 0x180051972
   1800272e4:	eb 39                	jmp    0x18002731f
   1800272e6:	8a 15 86 a6 02 00    	mov    0x2a686(%rip),%dl        # 0x180051972
   1800272ec:	c6 05 80 a6 02 00 fa 	movb   $0xfa,0x2a680(%rip)        # 0x180051973
   1800272f3:	80 fa 01             	cmp    $0x1,%dl
   1800272f6:	75 16                	jne    0x18002730e
   1800272f8:	8a cb                	mov    %bl,%cl
   1800272fa:	c6 05 71 a6 02 00 02 	movb   $0x2,0x2a671(%rip)        # 0x180051972
   180027301:	88 1d 6a a6 02 00    	mov    %bl,0x2a66a(%rip)        # 0x180051971
   180027307:	e8 30 4d ff ff       	call   0x18001c03c
   18002730c:	eb 11                	jmp    0x18002731f
   18002730e:	33 c9                	xor    %ecx,%ecx
   180027310:	0f b6 c2             	movzbl %dl,%eax
   180027313:	80 fa 02             	cmp    $0x2,%dl
   180027316:	0f 44 c1             	cmove  %ecx,%eax
   180027319:	88 05 53 a6 02 00    	mov    %al,0x2a653(%rip)        # 0x180051972
   18002731f:	48 8b 05 92 a6 02 00 	mov    0x2a692(%rip),%rax        # 0x1800519b8
   180027326:	ba 01 00 00 00       	mov    $0x1,%edx
   18002732b:	48 8b c8             	mov    %rax,%rcx
   18002732e:	ff 50 40             	call   *0x40(%rax)
   180027331:	4c 8b 1d 78 a5 02 00 	mov    0x2a578(%rip),%r11        # 0x1800518b0
   180027338:	49 8b cb             	mov    %r11,%rcx
   18002733b:	41 ff 53 08          	call   *0x8(%r11)
   18002733f:	48 8b 5c 24 30       	mov    0x30(%rsp),%rbx
   180027344:	48 83 c4 20          	add    $0x20,%rsp
   180027348:	5f                   	pop    %rdi
   180027349:	c3                   	ret
   18002734a:	cc                   	int3
   18002734b:	cc                   	int3
   18002734c:	40 56                	rex push %rsi
   18002734e:	48 83 ec 40          	sub    $0x40,%rsp
   180027352:	83 64 24 50 00       	andl   $0x0,0x50(%rsp)
   180027357:	80 3d 96 99 02 00 00 	cmpb   $0x0,0x29996(%rip)        # 0x180050cf4
   18002735e:	b8 e0 4f 00 00       	mov    $0x4fe0,%eax
   180027363:	66 89 44 24 24       	mov    %ax,0x24(%rsp)
   180027368:	b8 17 4e 00 00       	mov    $0x4e17,%eax
   18002736d:	c7 44 24 20 ba 1d 32 	movl   $0x38321dba,0x20(%rsp)
   180027374:	38
   180027375:	66 89 44 24 26       	mov    %ax,0x26(%rsp)
   18002737a:	b8 42 6f 00 00       	mov    $0x6f42,%eax
   18002737f:	c6 44 24 28 8a       	movb   $0x8a,0x28(%rsp)
   180027384:	66 89 44 24 34       	mov    %ax,0x34(%rsp)
   180027389:	b8 d4 11 00 00       	mov    $0x11d4,%eax
   18002738e:	c6 44 24 29 ec       	movb   $0xec,0x29(%rsp)
   180027393:	c6 44 24 2a 41       	movb   $0x41,0x2a(%rsp)
   180027398:	c6 44 24 2b 30       	movb   $0x30,0x2b(%rsp)
   18002739d:	c6 44 24 2c 55       	movb   $0x55,0x2c(%rsp)
   1800273a2:	66 89 44 24 36       	mov    %ax,0x36(%rsp)
   1800273a7:	c6 44 24 2d ea       	movb   $0xea,0x2d(%rsp)
   1800273ac:	c6 44 24 2e ed       	movb   $0xed,0x2e(%rsp)
   1800273b1:	c6 44 24 2f c1       	movb   $0xc1,0x2f(%rsp)
   1800273b6:	c7 44 24 30 b1 cc ba 	movl   $0x26baccb1,0x30(%rsp)
   1800273bd:	26
   1800273be:	c6 44 24 38 bc       	movb   $0xbc,0x38(%rsp)
   1800273c3:	c6 44 24 39 e7       	movb   $0xe7,0x39(%rsp)
   1800273c8:	c6 44 24 3a 00       	movb   $0x0,0x3a(%rsp)
   1800273cd:	c6 44 24 3b 80       	movb   $0x80,0x3b(%rsp)
   1800273d2:	c6 44 24 3c c7       	movb   $0xc7,0x3c(%rsp)
   1800273d7:	c6 44 24 3d 3c       	movb   $0x3c,0x3d(%rsp)
   1800273dc:	c6 44 24 3e 88       	movb   $0x88,0x3e(%rsp)
   1800273e1:	c6 44 24 3f 81       	movb   $0x81,0x3f(%rsp)
   1800273e6:	0f 85 a5 00 00 00    	jne    0x180027491
   1800273ec:	48 8b 05 cd 95 02 00 	mov    0x295cd(%rip),%rax        # 0x1800509c0
   1800273f3:	4c 8d 05 be a5 02 00 	lea    0x2a5be(%rip),%r8        # 0x1800519b8
   1800273fa:	48 8d 4c 24 20       	lea    0x20(%rsp),%rcx
   1800273ff:	33 d2                	xor    %edx,%edx
   180027401:	ff 90 40 01 00 00    	call   *0x140(%rax)
   180027407:	48 be 00 00 00 00 00 	movabs $0x8000000000000000,%rsi
   18002740e:	00 00 80
   180027411:	48 85 c6             	test   %rax,%rsi
   180027414:	75 7b                	jne    0x180027491
   180027416:	48 8b 05 a3 95 02 00 	mov    0x295a3(%rip),%rax        # 0x1800509c0
   18002741d:	4c 8d 05 8c a4 02 00 	lea    0x2a48c(%rip),%r8        # 0x1800518b0
   180027424:	48 8d 4c 24 30       	lea    0x30(%rsp),%rcx
   180027429:	33 d2                	xor    %edx,%edx
   18002742b:	ff 90 40 01 00 00    	call   *0x140(%rax)
   180027431:	48 85 c6             	test   %rax,%rsi
   180027434:	75 5b                	jne    0x180027491
   180027436:	48 8b 05 7b a5 02 00 	mov    0x2a57b(%rip),%rax        # 0x1800519b8
   18002743d:	4c 8d 44 24 50       	lea    0x50(%rsp),%r8
   180027442:	ba 01 00 00 00       	mov    $0x1,%edx
   180027447:	48 8b c8             	mov    %rax,%rcx
   18002744a:	ff 50 20             	call   *0x20(%rax)
   18002744d:	48 85 c6             	test   %rax,%rsi
   180027450:	75 3f                	jne    0x180027491
   180027452:	48 8b 05 57 a4 02 00 	mov    0x2a457(%rip),%rax        # 0x1800518b0
   180027459:	8b 54 24 50          	mov    0x50(%rsp),%edx
   18002745d:	4c 8d 05 b4 fd ff ff 	lea    -0x24c(%rip),%r8        # 0x180027218
   180027464:	48 8b c8             	mov    %rax,%rcx
   180027467:	ff 50 28             	call   *0x28(%rax)
   18002746a:	48 85 c6             	test   %rax,%rsi
   18002746d:	75 22                	jne    0x180027491
   18002746f:	48 8b 05 42 a5 02 00 	mov    0x2a542(%rip),%rax        # 0x1800519b8
   180027476:	45 33 c0             	xor    %r8d,%r8d
   180027479:	c6 05 10 a5 02 00 00 	movb   $0x0,0x2a510(%rip)        # 0x180051990
   180027480:	41 8d 50 01          	lea    0x1(%r8),%edx
   180027484:	48 8b c8             	mov    %rax,%rcx
   180027487:	c6 05 66 98 02 00 01 	movb   $0x1,0x29866(%rip)        # 0x180050cf4
   18002748e:	ff 50 28             	call   *0x28(%rax)
   180027491:	48 83 c4 40          	add    $0x40,%rsp
   180027495:	5e                   	pop    %rsi
   180027496:	c3                   	ret
   180027497:	cc                   	int3
   180027498:	40 53                	rex push %rbx
   18002749a:	48 83 ec 20          	sub    $0x20,%rsp
   18002749e:	80 3d 2d 99 02 00 00 	cmpb   $0x0,0x2992d(%rip)        # 0x180050dd2
   1800274a5:	48 8b da             	mov    %rdx,%rbx
   1800274a8:	0f 85 b4 00 00 00    	jne    0x180027562
   1800274ae:	80 3d 3c 98 02 00 00 	cmpb   $0x0,0x2983c(%rip)        # 0x180050cf1
   1800274b5:	0f 85 a7 00 00 00    	jne    0x180027562
   1800274bb:	80 3d 30 98 02 00 00 	cmpb   $0x0,0x29830(%rip)        # 0x180050cf2
   1800274c2:	0f 85 9a 00 00 00    	jne    0x180027562
   1800274c8:	80 3d 24 98 02 00 00 	cmpb   $0x0,0x29824(%rip)        # 0x180050cf3
   1800274cf:	0f 85 8d 00 00 00    	jne    0x180027562
   1800274d5:	80 3d 9c a3 02 00 00 	cmpb   $0x0,0x2a39c(%rip)        # 0x180051878
   1800274dc:	0f 85 80 00 00 00    	jne    0x180027562
   1800274e2:	c6 05 08 98 02 00 01 	movb   $0x1,0x29808(%rip)        # 0x180050cf1
   1800274e9:	e8 96 4e ff ff       	call   0x18001c384
   1800274ee:	80 3d fb 97 02 00 00 	cmpb   $0x0,0x297fb(%rip)        # 0x180050cf0
   1800274f5:	c6 05 f5 97 02 00 00 	movb   $0x0,0x297f5(%rip)        # 0x180050cf1
   1800274fc:	74 61                	je     0x18002755f
   1800274fe:	48 8b 05 53 a4 02 00 	mov    0x2a453(%rip),%rax        # 0x180051958
   180027505:	48 39 05 44 a4 02 00 	cmp    %rax,0x2a444(%rip)        # 0x180051950
   18002750c:	75 51                	jne    0x18002755f
   18002750e:	48 8b 05 e3 67 02 00 	mov    0x267e3(%rip),%rax        # 0x18004dcf8
   180027515:	0f b7 08             	movzwl (%rax),%ecx
   180027518:	48 8b 05 e1 67 02 00 	mov    0x267e1(%rip),%rax        # 0x18004dd00
   18002751f:	66 3b 08             	cmp    (%rax),%cx
   180027522:	74 3b                	je     0x18002755f
   180027524:	0f b7 05 c5 67 02 00 	movzwl 0x267c5(%rip),%eax        # 0x18004dcf0
   18002752b:	0f b7 c9             	movzwl %cx,%ecx
   18002752e:	8a 54 01 01          	mov    0x1(%rcx,%rax,1),%dl
   180027532:	48 8d 0d 87 a3 02 00 	lea    0x2a387(%rip),%rcx        # 0x1800518c0
   180027539:	e8 42 fc ff ff       	call   0x180027180
   18002753e:	4c 8b 1d b3 67 02 00 	mov    0x267b3(%rip),%r11        # 0x18004dcf8
   180027545:	66 41 83 03 02       	addw   $0x2,(%r11)
   18002754a:	48 8b 05 a7 67 02 00 	mov    0x267a7(%rip),%rax        # 0x18004dcf8
   180027551:	66 83 38 3e          	cmpw   $0x3e,(%rax)
   180027555:	75 08                	jne    0x18002755f
   180027557:	b9 1e 00 00 00       	mov    $0x1e,%ecx
   18002755c:	66 89 08             	mov    %cx,(%rax)
   18002755f:	48 8b d3             	mov    %rbx,%rdx
   180027562:	48 8d 0d 57 a3 02 00 	lea    0x2a357(%rip),%rcx        # 0x1800518c0
   180027569:	41 b0 04             	mov    $0x4,%r8b
   18002756c:	48 83 c4 20          	add    $0x20,%rsp
   180027570:	5b                   	pop    %rbx
   180027571:	e9 16 f9 ff ff       	jmp    0x180026e8c
   180027576:	cc                   	int3
   180027577:	cc                   	int3
   180027578:	40 53                	rex push %rbx
   18002757a:	48 83 ec 20          	sub    $0x20,%rsp
   18002757e:	48 8b da             	mov    %rdx,%rbx
   180027581:	48 85 d2             	test   %rdx,%rdx
   180027584:	75 0f                	jne    0x180027595
   180027586:	48 b8 02 00 00 00 00 	movabs $0x8000000000000002,%rax
   18002758d:	00 00 80
   180027590:	e9 f5 00 00 00       	jmp    0x18002768a
   180027595:	80 3d 36 98 02 00 00 	cmpb   $0x0,0x29836(%rip)        # 0x180050dd2
   18002759c:	75 37                	jne    0x1800275d5
   18002759e:	80 3d 4c 97 02 00 00 	cmpb   $0x0,0x2974c(%rip)        # 0x180050cf1
   1800275a5:	75 2e                	jne    0x1800275d5
   1800275a7:	80 3d 44 97 02 00 00 	cmpb   $0x0,0x29744(%rip)        # 0x180050cf2
   1800275ae:	75 25                	jne    0x1800275d5
   1800275b0:	80 3d 3c 97 02 00 00 	cmpb   $0x0,0x2973c(%rip)        # 0x180050cf3
   1800275b7:	75 1c                	jne    0x1800275d5
   1800275b9:	80 3d b8 a2 02 00 00 	cmpb   $0x0,0x2a2b8(%rip)        # 0x180051878
   1800275c0:	75 13                	jne    0x1800275d5
   1800275c2:	c6 05 28 97 02 00 01 	movb   $0x1,0x29728(%rip)        # 0x180050cf1
   1800275c9:	e8 b6 4d ff ff       	call   0x18001c384
   1800275ce:	c6 05 1c 97 02 00 00 	movb   $0x0,0x2971c(%rip)        # 0x180050cf1
   1800275d5:	80 3d 14 97 02 00 00 	cmpb   $0x0,0x29714(%rip)        # 0x180050cf0
   1800275dc:	74 61                	je     0x18002763f
   1800275de:	48 8b 05 73 a3 02 00 	mov    0x2a373(%rip),%rax        # 0x180051958
   1800275e5:	48 39 05 64 a3 02 00 	cmp    %rax,0x2a364(%rip)        # 0x180051950
   1800275ec:	75 51                	jne    0x18002763f
   1800275ee:	48 8b 05 03 67 02 00 	mov    0x26703(%rip),%rax        # 0x18004dcf8
   1800275f5:	0f b7 08             	movzwl (%rax),%ecx
   1800275f8:	48 8b 05 01 67 02 00 	mov    0x26701(%rip),%rax        # 0x18004dd00
   1800275ff:	66 3b 08             	cmp    (%rax),%cx
   180027602:	74 3b                	je     0x18002763f
   180027604:	0f b7 05 e5 66 02 00 	movzwl 0x266e5(%rip),%eax        # 0x18004dcf0
   18002760b:	0f b7 c9             	movzwl %cx,%ecx
   18002760e:	8a 54 01 01          	mov    0x1(%rcx,%rax,1),%dl
   180027612:	48 8d 0d a7 a2 02 00 	lea    0x2a2a7(%rip),%rcx        # 0x1800518c0
   180027619:	e8 62 fb ff ff       	call   0x180027180
   18002761e:	4c 8b 1d d3 66 02 00 	mov    0x266d3(%rip),%r11        # 0x18004dcf8
   180027625:	66 41 83 03 02       	addw   $0x2,(%r11)
   18002762a:	48 8b 05 c7 66 02 00 	mov    0x266c7(%rip),%rax        # 0x18004dcf8
   180027631:	66 83 38 3e          	cmpw   $0x3e,(%rax)
   180027635:	75 08                	jne    0x18002763f
   180027637:	b9 1e 00 00 00       	mov    $0x1e,%ecx
   18002763c:	66 89 08             	mov    %cx,(%rax)
   18002763f:	48 8d 0d 7a a2 02 00 	lea    0x2a27a(%rip),%rcx        # 0x1800518c0
   180027646:	41 b0 0c             	mov    $0xc,%r8b
   180027649:	48 8b d3             	mov    %rbx,%rdx
   18002764c:	e8 3b f8 ff ff       	call   0x180026e8c
   180027651:	49 b8 00 00 00 00 00 	movabs $0x8000000000000000,%r8
   180027658:	00 00 80
   18002765b:	49 85 c0             	test   %rax,%r8
   18002765e:	74 28                	je     0x180027688
   180027660:	48 8b 05 59 93 02 00 	mov    0x29359(%rip),%rax        # 0x1800509c0
   180027667:	45 33 c0             	xor    %r8d,%r8d
   18002766a:	48 8b cb             	mov    %rbx,%rcx
   18002766d:	41 8d 50 0c          	lea    0xc(%r8),%edx
   180027671:	ff 90 68 01 00 00    	call   *0x168(%rax)
   180027677:	48 8d 0d 42 a2 02 00 	lea    0x2a242(%rip),%rcx        # 0x1800518c0
   18002767e:	48 8b d3             	mov    %rbx,%rdx
   180027681:	e8 5e f4 ff ff       	call   0x180026ae4
   180027686:	eb 02                	jmp    0x18002768a
   180027688:	33 c0                	xor    %eax,%eax
   18002768a:	48 83 c4 20          	add    $0x20,%rsp
   18002768e:	5b                   	pop    %rbx
   18002768f:	c3                   	ret
   180027690:	40 53                	rex push %rbx
   180027692:	48 83 ec 20          	sub    $0x20,%rsp
   180027696:	80 3d 35 97 02 00 00 	cmpb   $0x0,0x29735(%rip)        # 0x180050dd2
   18002769d:	48 8b da             	mov    %rdx,%rbx
   1800276a0:	75 37                	jne    0x1800276d9
   1800276a2:	80 3d 48 96 02 00 00 	cmpb   $0x0,0x29648(%rip)        # 0x180050cf1
   1800276a9:	75 2e                	jne    0x1800276d9
   1800276ab:	80 3d 40 96 02 00 00 	cmpb   $0x0,0x29640(%rip)        # 0x180050cf2
   1800276b2:	75 25                	jne    0x1800276d9
   1800276b4:	80 3d 38 96 02 00 00 	cmpb   $0x0,0x29638(%rip)        # 0x180050cf3
   1800276bb:	75 1c                	jne    0x1800276d9
   1800276bd:	80 3d b4 a1 02 00 00 	cmpb   $0x0,0x2a1b4(%rip)        # 0x180051878
   1800276c4:	75 13                	jne    0x1800276d9
   1800276c6:	c6 05 24 96 02 00 01 	movb   $0x1,0x29624(%rip)        # 0x180050cf1
   1800276cd:	e8 b2 4c ff ff       	call   0x18001c384
   1800276d2:	c6 05 18 96 02 00 00 	movb   $0x0,0x29618(%rip)        # 0x180050cf1
   1800276d9:	80 3d 10 96 02 00 00 	cmpb   $0x0,0x29610(%rip)        # 0x180050cf0
   1800276e0:	74 61                	je     0x180027743
   1800276e2:	48 8b 05 6f a2 02 00 	mov    0x2a26f(%rip),%rax        # 0x180051958
   1800276e9:	48 39 05 60 a2 02 00 	cmp    %rax,0x2a260(%rip)        # 0x180051950
   1800276f0:	75 51                	jne    0x180027743
   1800276f2:	48 8b 05 ff 65 02 00 	mov    0x265ff(%rip),%rax        # 0x18004dcf8
   1800276f9:	0f b7 08             	movzwl (%rax),%ecx
   1800276fc:	48 8b 05 fd 65 02 00 	mov    0x265fd(%rip),%rax        # 0x18004dd00
   180027703:	66 3b 08             	cmp    (%rax),%cx
   180027706:	74 3b                	je     0x180027743
   180027708:	0f b7 05 e1 65 02 00 	movzwl 0x265e1(%rip),%eax        # 0x18004dcf0
   18002770f:	0f b7 c9             	movzwl %cx,%ecx
   180027712:	8a 54 01 01          	mov    0x1(%rcx,%rax,1),%dl
   180027716:	48 8d 0d a3 a1 02 00 	lea    0x2a1a3(%rip),%rcx        # 0x1800518c0
   18002771d:	e8 5e fa ff ff       	call   0x180027180
   180027722:	4c 8b 1d cf 65 02 00 	mov    0x265cf(%rip),%r11        # 0x18004dcf8
   180027729:	66 41 83 03 02       	addw   $0x2,(%r11)
   18002772e:	48 8b 05 c3 65 02 00 	mov    0x265c3(%rip),%rax        # 0x18004dcf8
   180027735:	66 83 38 3e          	cmpw   $0x3e,(%rax)
   180027739:	75 08                	jne    0x180027743
   18002773b:	b9 1e 00 00 00       	mov    $0x1e,%ecx
   180027740:	66 89 08             	mov    %cx,(%rax)
   180027743:	48 8d 0d 76 a1 02 00 	lea    0x2a176(%rip),%rcx        # 0x1800518c0
   18002774a:	41 b0 14             	mov    $0x14,%r8b
   18002774d:	48 8b d3             	mov    %rbx,%rdx
   180027750:	e8 37 f7 ff ff       	call   0x180026e8c
   180027755:	49 b8 00 00 00 00 00 	movabs $0x8000000000000000,%r8
   18002775c:	00 00 80
   18002775f:	49 85 c0             	test   %rax,%r8
   180027762:	74 26                	je     0x18002778a
   180027764:	48 8b 05 55 92 02 00 	mov    0x29255(%rip),%rax        # 0x1800509c0
   18002776b:	45 33 c0             	xor    %r8d,%r8d
   18002776e:	48 8b cb             	mov    %rbx,%rcx
   180027771:	41 8d 50 14          	lea    0x14(%r8),%edx
   180027775:	ff 90 68 01 00 00    	call   *0x168(%rax)
   18002777b:	48 8d 0d 3e a1 02 00 	lea    0x2a13e(%rip),%rcx        # 0x1800518c0
   180027782:	48 8b d3             	mov    %rbx,%rdx
   180027785:	e8 5a f3 ff ff       	call   0x180026ae4
   18002778a:	48 83 c4 20          	add    $0x20,%rsp
   18002778e:	5b                   	pop    %rbx
   18002778f:	c3                   	ret
   180027790:	48 83 ec 28          	sub    $0x28,%rsp
   180027794:	e8 53 48 ff ff       	call   0x18001bfec
   180027799:	48 8d 0d 20 a1 02 00 	lea    0x2a120(%rip),%rcx        # 0x1800518c0
   1800277a0:	8a d0                	mov    %al,%dl
   1800277a2:	48 83 c4 28          	add    $0x28,%rsp
   1800277a6:	e9 d5 f9 ff ff       	jmp    0x180027180
   1800277ab:	cc                   	int3
   1800277ac:	48 89 54 24 10       	mov    %rdx,0x10(%rsp)
   1800277b1:	53                   	push   %rbx
   1800277b2:	57                   	push   %rdi
   1800277b3:	41 54                	push   %r12
   1800277b5:	41 55                	push   %r13
   1800277b7:	41 56                	push   %r14
   1800277b9:	48 83 ec 40          	sub    $0x40,%rsp
   1800277bd:	48 8b 05 d4 92 02 00 	mov    0x292d4(%rip),%rax        # 0x180050a98
   1800277c4:	4c 8b 49 28          	mov    0x28(%rcx),%r9
   1800277c8:	4c 8b da             	mov    %rdx,%r11
   1800277cb:	4c 8b 50 60          	mov    0x60(%rax),%r10
   1800277cf:	48 8b d9             	mov    %rcx,%rbx
   1800277d2:	41 be 10 00 00 00    	mov    $0x10,%r14d
   1800277d8:	44 89 74 24 28       	mov    %r14d,0x28(%rsp)
   1800277dd:	48 89 54 24 20       	mov    %rdx,0x20(%rsp)
   1800277e2:	4c 8d 44 24 70       	lea    0x70(%rsp),%r8
   1800277e7:	48 8d 15 12 3e 02 00 	lea    0x23e12(%rip),%rdx        # 0x18004b600
   1800277ee:	49 8b cb             	mov    %r11,%rcx
   1800277f1:	41 ff 92 18 01 00 00 	call   *0x118(%r10)
   1800277f8:	49 bd 00 00 00 00 00 	movabs $0x8000000000000000,%r13
   1800277ff:	00 00 80
   180027802:	49 85 c5             	test   %rax,%r13
   180027805:	74 0f                	je     0x180027816
   180027807:	48 b8 02 00 00 00 00 	movabs $0x8000000000000002,%rax
   18002780e:	00 00 80
   180027811:	e9 8e 03 00 00       	jmp    0x180027ba4
   180027816:	e8 f9 49 ff ff       	call   0x18001c214
   18002781b:	e8 a4 47 ff ff       	call   0x18001bfc4
   180027820:	49 85 c5             	test   %rax,%r13
   180027823:	74 34                	je     0x180027859
   180027825:	48 8b 05 6c 92 02 00 	mov    0x2926c(%rip),%rax        # 0x180050a98
   18002782c:	48 8b 4c 24 78       	mov    0x78(%rsp),%rcx
   180027831:	4c 8b 43 28          	mov    0x28(%rbx),%r8
   180027835:	4c 8b 50 60          	mov    0x60(%rax),%r10
   180027839:	48 8d 15 c0 3d 02 00 	lea    0x23dc0(%rip),%rdx        # 0x18004b600
   180027840:	4c 8b c9             	mov    %rcx,%r9
   180027843:	41 ff 92 20 01 00 00 	call   *0x120(%r10)
   18002784a:	48 b8 07 00 00 00 00 	movabs $0x8000000000000007,%rax
   180027851:	00 00 80
   180027854:	e9 4b 03 00 00       	jmp    0x180027ba4
   180027859:	48 8d 0d 58 ec ff ff 	lea    -0x13a8(%rip),%rcx        # 0x1800264b8
   180027860:	4c 8d 0d 7d f8 ff ff 	lea    -0x783(%rip),%r9        # 0x1800270e4
   180027867:	4c 8d 05 7e f8 ff ff 	lea    -0x782(%rip),%r8        # 0x1800270ec
   18002786e:	48 8d 15 63 eb ff ff 	lea    -0x149d(%rip),%rdx        # 0x1800263d8
   180027875:	4c 89 0d 5c a0 02 00 	mov    %r9,0x2a05c(%rip)        # 0x1800518d8
   18002787c:	4c 89 05 6d a0 02 00 	mov    %r8,0x2a06d(%rip)        # 0x1800518f0
   180027883:	48 89 0d 76 a0 02 00 	mov    %rcx,0x2a076(%rip)        # 0x180051900
   18002788a:	4c 89 0d 77 a0 02 00 	mov    %r9,0x2a077(%rip)        # 0x180051908
   180027891:	4c 89 05 88 a0 02 00 	mov    %r8,0x2a088(%rip)        # 0x180051920
   180027898:	48 89 15 59 a0 02 00 	mov    %rdx,0x2a059(%rip)        # 0x1800518f8
   18002789f:	48 89 15 82 a0 02 00 	mov    %rdx,0x2a082(%rip)        # 0x180051928
   1800278a6:	48 89 0d 83 a0 02 00 	mov    %rcx,0x2a083(%rip)        # 0x180051930
   1800278ad:	48 8d 05 98 f6 ff ff 	lea    -0x968(%rip),%rax        # 0x180026f4c
   1800278b4:	4c 8d 25 05 a0 02 00 	lea    0x2a005(%rip),%r12        # 0x1800518c0
   1800278bb:	bf 00 01 00 00       	mov    $0x100,%edi
   1800278c0:	48 89 05 f9 9f 02 00 	mov    %rax,0x29ff9(%rip)        # 0x1800518c0
   1800278c7:	48 8d 05 ca fb ff ff 	lea    -0x436(%rip),%rax        # 0x180027498
   1800278ce:	4c 8d 05 43 f3 ff ff 	lea    -0xcbd(%rip),%r8        # 0x180026c18
   1800278d5:	48 89 05 ec 9f 02 00 	mov    %rax,0x29fec(%rip)        # 0x1800518c8
   1800278dc:	48 8d 05 95 fc ff ff 	lea    -0x36b(%rip),%rax        # 0x180027578
   1800278e3:	4d 8b cc             	mov    %r12,%r9
   1800278e6:	48 89 05 f3 9f 02 00 	mov    %rax,0x29ff3(%rip)        # 0x1800518e0
   1800278ed:	48 8d 05 9c fd ff ff 	lea    -0x264(%rip),%rax        # 0x180027690
   1800278f4:	49 8b d6             	mov    %r14,%rdx
   1800278f7:	48 89 05 12 a0 02 00 	mov    %rax,0x2a012(%rip)        # 0x180051910
   1800278fe:	48 8b 05 93 91 02 00 	mov    0x29193(%rip),%rax        # 0x180050a98
   180027905:	8b cf                	mov    %edi,%ecx
   180027907:	4c 8b 50 60          	mov    0x60(%rax),%r10
   18002790b:	48 8d 05 be 9f 02 00 	lea    0x29fbe(%rip),%rax        # 0x1800518d0
   180027912:	48 89 44 24 20       	mov    %rax,0x20(%rsp)
   180027917:	41 ff 52 50          	call   *0x50(%r10)
   18002791b:	4c 8b 1d 76 91 02 00 	mov    0x29176(%rip),%r11        # 0x180050a98
   180027922:	49 8b 43 60          	mov    0x60(%r11),%rax
   180027926:	48 8d 15 bb 9f 02 00 	lea    0x29fbb(%rip),%rdx        # 0x1800518e8
   18002792d:	4c 8d 05 e4 f2 ff ff 	lea    -0xd1c(%rip),%r8        # 0x180026c18
   180027934:	48 89 54 24 20       	mov    %rdx,0x20(%rsp)
   180027939:	4d 8b cc             	mov    %r12,%r9
   18002793c:	8b cf                	mov    %edi,%ecx
   18002793e:	49 8b d6             	mov    %r14,%rdx
   180027941:	ff 50 50             	call   *0x50(%rax)
   180027944:	4c 8b 1d 4d 91 02 00 	mov    0x2914d(%rip),%r11        # 0x180050a98
   18002794b:	48 8d 15 c6 9f 02 00 	lea    0x29fc6(%rip),%rdx        # 0x180051918
   180027952:	49 8b 43 60          	mov    0x60(%r11),%rax
   180027956:	48 89 54 24 20       	mov    %rdx,0x20(%rsp)
   18002795b:	4c 8d 05 b6 f2 ff ff 	lea    -0xd4a(%rip),%r8        # 0x180026c18
   180027962:	4d 8b cc             	mov    %r12,%r9
   180027965:	49 8b d6             	mov    %r14,%rdx
   180027968:	8b cf                	mov    %edi,%ecx
   18002796a:	ff 50 50             	call   *0x50(%rax)
   18002796d:	48 83 64 24 38 00    	andq   $0x0,0x38(%rsp)
   180027973:	4c 8b 1d 1e 91 02 00 	mov    0x2911e(%rip),%r11        # 0x180050a98
   18002797a:	49 8b 43 60          	mov    0x60(%r11),%rax
   18002797e:	48 8d 0d 83 9f 02 00 	lea    0x29f83(%rip),%rcx        # 0x180051908
   180027985:	4c 8d 0d 34 8a 02 00 	lea    0x28a34(%rip),%r9        # 0x1800503c0
   18002798c:	48 89 4c 24 30       	mov    %rcx,0x30(%rsp)
   180027991:	48 8d 0d 38 8a 02 00 	lea    0x28a38(%rip),%rcx        # 0x1800503d0
   180027998:	48 8d 15 11 8a 02 00 	lea    0x28a11(%rip),%rdx        # 0x1800503b0
   18002799f:	48 89 4c 24 28       	mov    %rcx,0x28(%rsp)
   1800279a4:	48 8d 0d 2d 9f 02 00 	lea    0x29f2d(%rip),%rcx        # 0x1800518d8
   1800279ab:	4d 8b c4             	mov    %r12,%r8
   1800279ae:	48 89 4c 24 20       	mov    %rcx,0x20(%rsp)
   1800279b3:	48 8d 4c 24 78       	lea    0x78(%rsp),%rcx
   1800279b8:	ff 90 48 01 00 00    	call   *0x148(%rax)
   1800279be:	48 8b f8             	mov    %rax,%rdi
   1800279c1:	49 23 fd             	and    %r13,%rdi
   1800279c4:	74 64                	je     0x180027a2a
   1800279c6:	48 8b 0d cb 90 02 00 	mov    0x290cb(%rip),%rcx        # 0x180050a98
   1800279cd:	4c 8b 43 28          	mov    0x28(%rbx),%r8
   1800279d1:	48 8d 15 28 3c 02 00 	lea    0x23c28(%rip),%rdx        # 0x18004b600
   1800279d8:	4c 8b 51 60          	mov    0x60(%rcx),%r10
   1800279dc:	48 8b 4c 24 78       	mov    0x78(%rsp),%rcx
   1800279e1:	4c 8b c9             	mov    %rcx,%r9
   1800279e4:	41 ff 92 20 01 00 00 	call   *0x120(%r10)
   1800279eb:	4c 8b 1d a6 90 02 00 	mov    0x290a6(%rip),%r11        # 0x180050a98
   1800279f2:	48 8b 0d d7 9e 02 00 	mov    0x29ed7(%rip),%rcx        # 0x1800518d0
   1800279f9:	49 8b 43 60          	mov    0x60(%r11),%rax
   1800279fd:	ff 50 70             	call   *0x70(%rax)
   180027a00:	4c 8b 1d 91 90 02 00 	mov    0x29091(%rip),%r11        # 0x180050a98
   180027a07:	48 8b 0d da 9e 02 00 	mov    0x29eda(%rip),%rcx        # 0x1800518e8
   180027a0e:	49 8b 43 60          	mov    0x60(%r11),%rax
   180027a12:	ff 50 70             	call   *0x70(%rax)
   180027a15:	4c 8b 1d 7c 90 02 00 	mov    0x2907c(%rip),%r11        # 0x180050a98
   180027a1c:	48 8b 0d f5 9e 02 00 	mov    0x29ef5(%rip),%rcx        # 0x180051918
   180027a23:	49 8b 43 60          	mov    0x60(%r11),%rax
   180027a27:	ff 50 70             	call   *0x70(%rax)
   180027a2a:	48 85 ff             	test   %rdi,%rdi
   180027a2d:	0f 85 c1 00 00 00    	jne    0x180027af4
   180027a33:	8a 05 b2 86 02 00    	mov    0x286b2(%rip),%al        # 0x1800500eb
   180027a39:	b9 40 01 00 00       	mov    $0x140,%ecx
   180027a3e:	40 88 3d 07 9f 02 00 	mov    %dil,0x29f07(%rip)        # 0x18005194c
   180027a45:	0c 80                	or     $0x80,%al
   180027a47:	40 88 3d ff 9e 02 00 	mov    %dil,0x29eff(%rip)        # 0x18005194d
   180027a4e:	c7 05 e4 9e 02 00 00 	movl   $0x80000000,0x29ee4(%rip)        # 0x18005193c
   180027a55:	00 00 80
   180027a58:	88 05 e2 9e 02 00    	mov    %al,0x29ee2(%rip)        # 0x180051940
   180027a5e:	e8 29 00 fe ff       	call   0x180007a8c
   180027a63:	48 89 05 f6 9e 02 00 	mov    %rax,0x29ef6(%rip)        # 0x180051960
   180027a6a:	48 85 c0             	test   %rax,%rax
   180027a6d:	75 0f                	jne    0x180027a7e
   180027a6f:	48 b8 09 00 00 00 00 	movabs $0x8000000000000009,%rax
   180027a76:	00 00 80
   180027a79:	e9 26 01 00 00       	jmp    0x180027ba4
   180027a7e:	48 89 05 cb 9e 02 00 	mov    %rax,0x29ecb(%rip)        # 0x180051950
   180027a85:	48 89 05 cc 9e 02 00 	mov    %rax,0x29ecc(%rip)        # 0x180051958
   180027a8c:	48 05 40 01 00 00    	add    $0x140,%rax
   180027a92:	48 89 05 cf 9e 02 00 	mov    %rax,0x29ecf(%rip)        # 0x180051968
   180027a99:	48 8d 05 f0 fc ff ff 	lea    -0x310(%rip),%rax        # 0x180027790
   180027aa0:	49 8b cc             	mov    %r12,%rcx
   180027aa3:	48 89 05 86 54 02 00 	mov    %rax,0x25486(%rip)        # 0x18004cf30
   180027aaa:	e8 21 f3 ff ff       	call   0x180026dd0
   180027aaf:	48 8b 4c 24 78       	mov    0x78(%rsp),%rcx
   180027ab4:	e8 17 ba 00 00       	call   0x1800334d0
   180027ab9:	48 8d 84 24 80 00 00 	lea    0x80(%rsp),%rax
   180027ac0:	00
   180027ac1:	4c 8d 8c 24 88 00 00 	lea    0x88(%rsp),%r9
   180027ac8:	00
   180027ac9:	48 8d 15 1c e6 ff ff 	lea    -0x19e4(%rip),%rdx        # 0x1800260ec
   180027ad0:	48 8d 0d 09 3c 02 00 	lea    0x23c09(%rip),%rcx        # 0x18004b6e0
   180027ad7:	45 33 c0             	xor    %r8d,%r8d
   180027ada:	48 89 44 24 20       	mov    %rax,0x20(%rsp)
   180027adf:	c6 05 8c 9e 02 00 00 	movb   $0x0,0x29e8c(%rip)        # 0x180051972
   180027ae6:	e8 0d 0d fe ff       	call   0x1800087f8
   180027aeb:	33 d2                	xor    %edx,%edx
   180027aed:	33 c9                	xor    %ecx,%ecx
   180027aef:	e8 f8 e5 ff ff       	call   0x1800260ec
   180027af4:	48 8d 0d a5 9e 02 00 	lea    0x29ea5(%rip),%rcx        # 0x1800519a0
   180027afb:	e8 38 0a fe ff       	call   0x180008538
   180027b00:	48 8b 05 b9 8e 02 00 	mov    0x28eb9(%rip),%rax        # 0x1800509c0
   180027b07:	4c 8d 1d 8a 9e 02 00 	lea    0x29e8a(%rip),%r11        # 0x180051998
   180027b0e:	4c 8d 05 3b e7 ff ff 	lea    -0x18c5(%rip),%r8        # 0x180026250
   180027b15:	4d 8b cc             	mov    %r12,%r9
   180027b18:	49 8b d6             	mov    %r14,%rdx
   180027b1b:	b9 00 02 00 80       	mov    $0x80000200,%ecx
   180027b20:	4c 89 5c 24 20       	mov    %r11,0x20(%rsp)
   180027b25:	ff 50 50             	call   *0x50(%rax)
   180027b28:	8a 0d 94 93 02 00    	mov    0x29394(%rip),%cl        # 0x180050ec2
   180027b2e:	48 8b f8             	mov    %rax,%rdi
   180027b31:	84 c9                	test   %cl,%cl
   180027b33:	74 2f                	je     0x180027b64
   180027b35:	32 db                	xor    %bl,%bl
   180027b37:	38 1d 53 9e 02 00    	cmp    %bl,0x29e53(%rip)        # 0x180051990
   180027b3d:	76 25                	jbe    0x180027b64
   180027b3f:	48 8d 05 3a 9e 02 00 	lea    0x29e3a(%rip),%rax        # 0x180051980
   180027b46:	0f b6 cb             	movzbl %bl,%ecx
   180027b49:	8a 14 01             	mov    (%rcx,%rax,1),%dl
   180027b4c:	49 8b cc             	mov    %r12,%rcx
   180027b4f:	e8 2c f6 ff ff       	call   0x180027180
   180027b54:	fe c3                	inc    %bl
   180027b56:	3a 1d 34 9e 02 00    	cmp    0x29e34(%rip),%bl        # 0x180051990
   180027b5c:	72 e1                	jb     0x180027b3f
   180027b5e:	8a 0d 5e 93 02 00    	mov    0x2935e(%rip),%cl        # 0x180050ec2
   180027b64:	80 3d 55 93 02 00 00 	cmpb   $0x0,0x29355(%rip)        # 0x180050ec0
   180027b6b:	c6 05 83 91 02 00 01 	movb   $0x1,0x29183(%rip)        # 0x180050cf5
   180027b72:	74 26                	je     0x180027b9a
   180027b74:	84 c9                	test   %cl,%cl
   180027b76:	74 1d                	je     0x180027b95
   180027b78:	48 8b 05 39 9e 02 00 	mov    0x29e39(%rip),%rax        # 0x1800519b8
   180027b7f:	45 33 c0             	xor    %r8d,%r8d
   180027b82:	c6 05 6b 91 02 00 01 	movb   $0x1,0x2916b(%rip)        # 0x180050cf4
   180027b89:	41 8d 50 01          	lea    0x1(%r8),%edx
   180027b8d:	48 8b c8             	mov    %rax,%rcx
   180027b90:	ff 50 28             	call   *0x28(%rax)
   180027b93:	eb 05                	jmp    0x180027b9a
   180027b95:	e8 b2 f7 ff ff       	call   0x18002734c
   180027b9a:	b1 65                	mov    $0x65,%cl
   180027b9c:	e8 df 44 ff ff       	call   0x18001c080
   180027ba1:	48 8b c7             	mov    %rdi,%rax
   180027ba4:	48 83 c4 40          	add    $0x40,%rsp
   180027ba8:	41 5e                	pop    %r14
   180027baa:	41 5d                	pop    %r13
   180027bac:	41 5c                	pop    %r12
   180027bae:	5f                   	pop    %rdi
   180027baf:	5b                   	pop    %rbx
   180027bb0:	c3                   	ret
   180027bb1:	cc                   	int3
   180027bb2:	cc                   	int3
   180027bb3:	cc                   	int3
   180027bb4:	48 89 54 24 10       	mov    %rdx,0x10(%rsp)
   180027bb9:	53                   	push   %rbx
   180027bba:	55                   	push   %rbp
   180027bbb:	57                   	push   %rdi
   180027bbc:	48 83 ec 30          	sub    $0x30,%rsp
   180027bc0:	48 8b 05 d1 8e 02 00 	mov    0x28ed1(%rip),%rax        # 0x180050a98
   180027bc7:	48 83 64 24 50 00    	andq   $0x0,0x50(%rsp)
   180027bcd:	4c 8b 49 28          	mov    0x28(%rcx),%r9
   180027bd1:	4c 8b 50 60          	mov    0x60(%rax),%r10
   180027bd5:	4c 8b da             	mov    %rdx,%r11
   180027bd8:	48 8b d9             	mov    %rcx,%rbx
   180027bdb:	bf 10 00 00 00       	mov    $0x10,%edi
   180027be0:	4c 8d 44 24 60       	lea    0x60(%rsp),%r8
   180027be5:	49 8b cb             	mov    %r11,%rcx
   180027be8:	89 7c 24 28          	mov    %edi,0x28(%rsp)
   180027bec:	48 89 54 24 20       	mov    %rdx,0x20(%rsp)
   180027bf1:	48 8d 15 a8 44 02 00 	lea    0x244a8(%rip),%rdx        # 0x18004c0a0
   180027bf8:	41 ff 92 18 01 00 00 	call   *0x118(%r10)
   180027bff:	48 bd 00 00 00 00 00 	movabs $0x8000000000000000,%rbp
   180027c06:	00 00 80
   180027c09:	48 85 c5             	test   %rax,%rbp
   180027c0c:	74 0f                	je     0x180027c1d
   180027c0e:	48 b8 02 00 00 00 00 	movabs $0x8000000000000002,%rax
   180027c15:	00 00 80
   180027c18:	e9 d5 00 00 00       	jmp    0x180027cf2
   180027c1d:	e8 f2 45 ff ff       	call   0x18001c214
   180027c22:	48 8d 4c 24 50       	lea    0x50(%rsp),%rcx
   180027c27:	e8 60 b4 00 00       	call   0x18003308c
   180027c2c:	48 85 c5             	test   %rax,%rbp
   180027c2f:	48 8b 05 62 8e 02 00 	mov    0x28e62(%rip),%rax        # 0x180050a98
   180027c36:	4c 8b 50 60          	mov    0x60(%rax),%r10
   180027c3a:	74 29                	je     0x180027c65
   180027c3c:	48 8b 4c 24 58       	mov    0x58(%rsp),%rcx
   180027c41:	4c 8b 43 28          	mov    0x28(%rbx),%r8
   180027c45:	48 8d 15 54 44 02 00 	lea    0x24454(%rip),%rdx        # 0x18004c0a0
   180027c4c:	4c 8b c9             	mov    %rcx,%r9
   180027c4f:	41 ff 92 20 01 00 00 	call   *0x120(%r10)
   180027c56:	48 b8 07 00 00 00 00 	movabs $0x8000000000000007,%rax
   180027c5d:	00 00 80
   180027c60:	e9 8d 00 00 00       	jmp    0x180027cf2
   180027c65:	4c 8b 4c 24 50       	mov    0x50(%rsp),%r9
   180027c6a:	4c 8d 05 a7 b3 00 00 	lea    0xb3a7(%rip),%r8        # 0x180033018
   180027c71:	48 8b d7             	mov    %rdi,%rdx
   180027c74:	49 8d 41 10          	lea    0x10(%r9),%rax
   180027c78:	b9 00 01 00 00       	mov    $0x100,%ecx
   180027c7d:	48 89 44 24 20       	mov    %rax,0x20(%rsp)
   180027c82:	41 ff 52 50          	call   *0x50(%r10)
   180027c86:	4c 8b 1d 0b 8e 02 00 	mov    0x28e0b(%rip),%r11        # 0x180050a98
   180027c8d:	49 8b 43 60          	mov    0x60(%r11),%rax
   180027c91:	4c 8b 4c 24 50       	mov    0x50(%rsp),%r9
   180027c96:	48 8d 15 cb 61 02 00 	lea    0x261cb(%rip),%rdx        # 0x18004de68
   180027c9d:	48 8d 4c 24 58       	lea    0x58(%rsp),%rcx
   180027ca2:	45 33 c0             	xor    %r8d,%r8d
   180027ca5:	ff 90 80 00 00 00    	call   *0x80(%rax)
   180027cab:	48 8b f8             	mov    %rax,%rdi
   180027cae:	48 85 c5             	test   %rax,%rbp
   180027cb1:	74 3c                	je     0x180027cef
   180027cb3:	48 8b 0d de 8d 02 00 	mov    0x28dde(%rip),%rcx        # 0x180050a98
   180027cba:	4c 8b 43 28          	mov    0x28(%rbx),%r8
   180027cbe:	48 8d 15 db 43 02 00 	lea    0x243db(%rip),%rdx        # 0x18004c0a0
   180027cc5:	4c 8b 51 60          	mov    0x60(%rcx),%r10
   180027cc9:	48 8b 4c 24 58       	mov    0x58(%rsp),%rcx
   180027cce:	4c 8b c9             	mov    %rcx,%r9
   180027cd1:	41 ff 92 20 01 00 00 	call   *0x120(%r10)
   180027cd8:	4c 8b 1d b9 8d 02 00 	mov    0x28db9(%rip),%r11        # 0x180050a98
   180027cdf:	48 8b 4c 24 50       	mov    0x50(%rsp),%rcx
   180027ce4:	49 8b 43 60          	mov    0x60(%r11),%rax
   180027ce8:	48 8b 49 10          	mov    0x10(%rcx),%rcx
   180027cec:	ff 50 70             	call   *0x70(%rax)
   180027cef:	48 8b c7             	mov    %rdi,%rax
   180027cf2:	48 83 c4 30          	add    $0x30,%rsp
   180027cf6:	5f                   	pop    %rdi
   180027cf7:	5d                   	pop    %rbp
   180027cf8:	5b                   	pop    %rbx
   180027cf9:	c3                   	ret
   180027cfa:	cc                   	int3
   180027cfb:	cc                   	int3
   180027cfc:	48 89 5c 24 08       	mov    %rbx,0x8(%rsp)
   180027d01:	48 89 74 24 10       	mov    %rsi,0x10(%rsp)
   180027d06:	57                   	push   %rdi
   180027d07:	48 83 ec 20          	sub    $0x20,%rsp
   180027d0b:	48 8b 05 86 8d 02 00 	mov    0x28d86(%rip),%rax        # 0x180050a98
   180027d12:	48 8b f9             	mov    %rcx,%rdi
   180027d15:	48 8b 0d d4 90 02 00 	mov    0x290d4(%rip),%rcx        # 0x180050df0
   180027d1c:	4c 8b 40 60          	mov    0x60(%rax),%r8
   180027d20:	48 8b da             	mov    %rdx,%rbx
   180027d23:	41 ff 50 70          	call   *0x70(%r8)
   180027d27:	48 be 00 00 00 00 00 	movabs $0x8000000000000000,%rsi
   180027d2e:	00 00 80
   180027d31:	48 85 c6             	test   %rax,%rsi
   180027d34:	75 6a                	jne    0x180027da0
   180027d36:	48 8b 05 5b 8d 02 00 	mov    0x28d5b(%rip),%rax        # 0x180050a98
   180027d3d:	4c 8d 05 9c 90 02 00 	lea    0x2909c(%rip),%r8        # 0x180050de0
   180027d44:	48 8d 15 1d 61 02 00 	lea    0x2611d(%rip),%rdx        # 0x18004de68
   180027d4b:	4c 8b 50 60          	mov    0x60(%rax),%r10
   180027d4f:	45 33 c9             	xor    %r9d,%r9d
   180027d52:	48 8b cb             	mov    %rbx,%rcx
   180027d55:	41 ff 92 50 01 00 00 	call   *0x150(%r10)
   180027d5c:	48 85 c6             	test   %rax,%rsi
   180027d5f:	75 3f                	jne    0x180027da0
   180027d61:	48 8b 05 30 8d 02 00 	mov    0x28d30(%rip),%rax        # 0x180050a98
   180027d68:	4c 8b 47 28          	mov    0x28(%rdi),%r8
   180027d6c:	48 8d 15 8d 38 02 00 	lea    0x2388d(%rip),%rdx        # 0x18004b600
   180027d73:	4c 8b 50 60          	mov    0x60(%rax),%r10
   180027d77:	4c 8b cb             	mov    %rbx,%r9
   180027d7a:	48 8b cb             	mov    %rbx,%rcx
   180027d7d:	41 ff 92 20 01 00 00 	call   *0x120(%r10)
   180027d84:	48 8b d8             	mov    %rax,%rbx
   180027d87:	48 85 c6             	test   %rax,%rsi
   180027d8a:	75 14                	jne    0x180027da0
   180027d8c:	48 8b 05 2d 8c 02 00 	mov    0x28c2d(%rip),%rax        # 0x1800509c0
   180027d93:	48 8b 0d 5e 90 02 00 	mov    0x2905e(%rip),%rcx        # 0x180050df8
   180027d9a:	ff 50 48             	call   *0x48(%rax)
   180027d9d:	48 8b c3             	mov    %rbx,%rax
   180027da0:	48 8b 5c 24 30       	mov    0x30(%rsp),%rbx
   180027da5:	48 8b 74 24 38       	mov    0x38(%rsp),%rsi
   180027daa:	48 83 c4 20          	add    $0x20,%rsp
   180027dae:	5f                   	pop    %rdi
   180027daf:	c3                   	ret
   180027db0:	40 53                	rex push %rbx
   180027db2:	48 83 ec 20          	sub    $0x20,%rsp
   180027db6:	49 8b d8             	mov    %r8,%rbx
   180027db9:	48 8b c2             	mov    %rdx,%rax
   180027dbc:	48 85 d2             	test   %rdx,%rdx
   180027dbf:	74 32                	je     0x180027df3
   180027dc1:	48 85 db             	test   %rbx,%rbx
   180027dc4:	74 2d                	je     0x180027df3
   180027dc6:	48 8d 15 d3 eb 01 00 	lea    0x1ebd3(%rip),%rdx        # 0x1800469a0
   180027dcd:	48 8b c8             	mov    %rax,%rcx
   180027dd0:	e8 a7 0e fe ff       	call   0x180008c7c
   180027dd5:	84 c0                	test   %al,%al
   180027dd7:	75 0c                	jne    0x180027de5
   180027dd9:	48 b8 03 00 00 00 00 	movabs $0x8000000000000003,%rax
   180027de0:	00 00 80
   180027de3:	eb 18                	jmp    0x180027dfd
   180027de5:	48 8b 05 8c 60 02 00 	mov    0x2608c(%rip),%rax        # 0x18004de78
   180027dec:	48 89 03             	mov    %rax,(%rbx)
   180027def:	33 c0                	xor    %eax,%eax
   180027df1:	eb 0a                	jmp    0x180027dfd
   180027df3:	48 b8 02 00 00 00 00 	movabs $0x8000000000000002,%rax
   180027dfa:	00 00 80
   180027dfd:	48 83 c4 20          	add    $0x20,%rsp
   180027e01:	5b                   	pop    %rbx
   180027e02:	c3                   	ret
   180027e03:	cc                   	int3
   180027e04:	48 89 5c 24 08       	mov    %rbx,0x8(%rsp)
   180027e09:	57                   	push   %rdi
   180027e0a:	48 83 ec 30          	sub    $0x30,%rsp
   180027e0e:	48 83 64 24 58 00    	andq   $0x0,0x58(%rsp)
   180027e14:	48 8b fa             	mov    %rdx,%rdi
   180027e17:	4d 85 c9             	test   %r9,%r9
   180027e1a:	0f 84 83 00 00 00    	je     0x180027ea3
   180027e20:	48 8b 5c 24 60       	mov    0x60(%rsp),%rbx
   180027e25:	48 85 db             	test   %rbx,%rbx
   180027e28:	74 79                	je     0x180027ea3
   180027e2a:	48 8d 15 6f eb 01 00 	lea    0x1eb6f(%rip),%rdx        # 0x1800469a0
   180027e31:	49 8b c9             	mov    %r9,%rcx
   180027e34:	e8 43 0e fe ff       	call   0x180008c7c
   180027e39:	84 c0                	test   %al,%al
   180027e3b:	75 0c                	jne    0x180027e49
   180027e3d:	48 b8 03 00 00 00 00 	movabs $0x8000000000000003,%rax
   180027e44:	00 00 80
   180027e47:	eb 64                	jmp    0x180027ead
   180027e49:	4c 8d 44 24 20       	lea    0x20(%rsp),%r8
   180027e4e:	48 8d 0d 5b 42 02 00 	lea    0x2425b(%rip),%rcx        # 0x18004c0b0
   180027e55:	41 b9 02 00 00 00    	mov    $0x2,%r9d
   180027e5b:	48 8b d7             	mov    %rdi,%rdx
   180027e5e:	e8 e9 25 fe ff       	call   0x18000a44c
   180027e63:	48 b9 00 00 00 00 00 	movabs $0x8000000000000000,%rcx
   180027e6a:	00 00 80
   180027e6d:	48 85 c1             	test   %rax,%rcx
   180027e70:	75 cb                	jne    0x180027e3d
   180027e72:	48 8b 44 24 20       	mov    0x20(%rsp),%rax
   180027e77:	4c 8d 4c 24 58       	lea    0x58(%rsp),%r9
   180027e7c:	48 8d 0d 6d 42 02 00 	lea    0x2426d(%rip),%rcx        # 0x18004c0f0
   180027e83:	44 8b 40 08          	mov    0x8(%rax),%r8d
   180027e87:	8b 50 04             	mov    0x4(%rax),%edx
   180027e8a:	e8 79 25 fe ff       	call   0x18000a408
   180027e8f:	84 c0                	test   %al,%al
   180027e91:	74 aa                	je     0x180027e3d
   180027e93:	48 8b 44 24 58       	mov    0x58(%rsp),%rax
   180027e98:	48 8b 48 20          	mov    0x20(%rax),%rcx
   180027e9c:	33 c0                	xor    %eax,%eax
   180027e9e:	48 89 0b             	mov    %rcx,(%rbx)
   180027ea1:	eb 0a                	jmp    0x180027ead
   180027ea3:	48 b8 02 00 00 00 00 	movabs $0x8000000000000002,%rax
   180027eaa:	00 00 80
   180027ead:	48 8b 5c 24 40       	mov    0x40(%rsp),%rbx
   180027eb2:	48 83 c4 30          	add    $0x30,%rsp
   180027eb6:	5f                   	pop    %rdi
   180027eb7:	c3                   	ret
   180027eb8:	48 89 5c 24 08       	mov    %rbx,0x8(%rsp)
   180027ebd:	48 89 74 24 10       	mov    %rsi,0x10(%rsp)
   180027ec2:	57                   	push   %rdi
   180027ec3:	48 83 ec 30          	sub    $0x30,%rsp
   180027ec7:	48 8b 41 08          	mov    0x8(%rcx),%rax
   180027ecb:	48 8b da             	mov    %rdx,%rbx
   180027ece:	48 89 54 24 20       	mov    %rdx,0x20(%rsp)
   180027ed3:	44 8b 48 0c          	mov    0xc(%rax),%r9d
   180027ed7:	8b 10                	mov    (%rax),%edx
   180027ed9:	48 8b f1             	mov    %rcx,%rsi
   180027edc:	45 33 c0             	xor    %r8d,%r8d
   180027edf:	40 32 ff             	xor    %dil,%dil
   180027ee2:	ff 56 18             	call   *0x18(%rsi)
   180027ee5:	48 b9 00 00 00 00 00 	movabs $0x8000000000000000,%rcx
   180027eec:	00 00 80
   180027eef:	48 85 c1             	test   %rax,%rcx
   180027ef2:	74 07                	je     0x180027efb
   180027ef4:	32 c0                	xor    %al,%al
   180027ef6:	e9 98 00 00 00       	jmp    0x180027f93
   180027efb:	b8 55 aa 00 00       	mov    $0xaa55,%eax
   180027f00:	66 39 83 fe 01 00 00 	cmp    %ax,0x1fe(%rbx)
   180027f07:	75 eb                	jne    0x180027ef4
   180027f09:	32 d2                	xor    %dl,%dl
   180027f0b:	41 b1 01             	mov    $0x1,%r9b
   180027f0e:	41 b2 04             	mov    $0x4,%r10b
   180027f11:	0f b6 c2             	movzbl %dl,%eax
   180027f14:	48 c1 e0 04          	shl    $0x4,%rax
   180027f18:	80 bc 18 c2 01 00 00 	cmpb   $0x0,0x1c2(%rax,%rbx,1)
   180027f1f:	00
   180027f20:	74 63                	je     0x180027f85
   180027f22:	44 8b 84 18 ca 01 00 	mov    0x1ca(%rax,%rbx,1),%r8d
   180027f29:	00
   180027f2a:	45 85 c0             	test   %r8d,%r8d
   180027f2d:	74 56                	je     0x180027f85
   180027f2f:	8b 8c 18 c6 01 00 00 	mov    0x1c6(%rax,%rbx,1),%ecx
   180027f36:	85 c9                	test   %ecx,%ecx
   180027f38:	74 4b                	je     0x180027f85
   180027f3a:	48 8b 46 08          	mov    0x8(%rsi),%rax
   180027f3e:	4e 8d 44 01 ff       	lea    -0x1(%rcx,%r8,1),%r8
   180027f43:	41 02 f9             	add    %r9b,%dil
   180027f46:	4c 3b 40 18          	cmp    0x18(%rax),%r8
   180027f4a:	77 a8                	ja     0x180027ef4
   180027f4c:	41 8d 0c 11          	lea    (%r9,%rdx,1),%ecx
   180027f50:	eb 2e                	jmp    0x180027f80
   180027f52:	0f b6 c1             	movzbl %cl,%eax
   180027f55:	48 c1 e0 04          	shl    $0x4,%rax
   180027f59:	80 bc 18 c2 01 00 00 	cmpb   $0x0,0x1c2(%rax,%rbx,1)
   180027f60:	00
   180027f61:	74 1a                	je     0x180027f7d
   180027f63:	83 bc 18 ca 01 00 00 	cmpl   $0x0,0x1ca(%rax,%rbx,1)
   180027f6a:	00
   180027f6b:	74 10                	je     0x180027f7d
   180027f6d:	8b 84 18 c6 01 00 00 	mov    0x1c6(%rax,%rbx,1),%eax
   180027f74:	4c 3b c0             	cmp    %rax,%r8
   180027f77:	0f 83 77 ff ff ff    	jae    0x180027ef4
   180027f7d:	41 02 c9             	add    %r9b,%cl
   180027f80:	41 3a ca             	cmp    %r10b,%cl
   180027f83:	72 cd                	jb     0x180027f52
   180027f85:	41 02 d1             	add    %r9b,%dl
   180027f88:	41 3a d2             	cmp    %r10b,%dl
   180027f8b:	72 84                	jb     0x180027f11
   180027f8d:	40 84 ff             	test   %dil,%dil
   180027f90:	0f 95 c0             	setne  %al
   180027f93:	48 8b 5c 24 40       	mov    0x40(%rsp),%rbx
   180027f98:	48 8b 74 24 48       	mov    0x48(%rsp),%rsi
   180027f9d:	48 83 c4 30          	add    $0x30,%rsp
   180027fa1:	5f                   	pop    %rdi
   180027fa2:	c3                   	ret
   180027fa3:	cc                   	int3
   180027fa4:	4c 8b dc             	mov    %rsp,%r11
   180027fa7:	49 89 5b 08          	mov    %rbx,0x8(%r11)
   180027fab:	4d 89 4b 20          	mov    %r9,0x20(%r11)
   180027faf:	4d 89 43 18          	mov    %r8,0x18(%r11)
   180027fb3:	55                   	push   %rbp
   180027fb4:	56                   	push   %rsi
   180027fb5:	57                   	push   %rdi
   180027fb6:	41 54                	push   %r12
   180027fb8:	41 55                	push   %r13
   180027fba:	41 56                	push   %r14
   180027fbc:	41 57                	push   %r15
   180027fbe:	48 81 ec f0 00 00 00 	sub    $0xf0,%rsp
   180027fc5:	48 8b 42 08          	mov    0x8(%rdx),%rax
   180027fc9:	49 83 63 10 00       	andq   $0x0,0x10(%r11)
   180027fce:	48 83 64 24 30 00    	andq   $0x0,0x30(%rsp)
   180027fd4:	48 8b fa             	mov    %rdx,%rdi
   180027fd7:	8b 50 0c             	mov    0xc(%rax),%edx
   180027fda:	48 8b 05 77 3e 02 00 	mov    0x23e77(%rip),%rax        # 0x18004be58
   180027fe1:	49 8b f0             	mov    %r8,%rsi
   180027fe4:	4c 8b e9             	mov    %rcx,%r13
   180027fe7:	45 33 ff             	xor    %r15d,%r15d
   180027fea:	4d 8d 43 10          	lea    0x10(%r11),%r8
   180027fee:	41 8d 4f 04          	lea    0x4(%r15),%ecx
   180027ff2:	49 8b e9             	mov    %r9,%rbp
   180027ff5:	ff 50 40             	call   *0x40(%rax)
   180027ff8:	48 b9 00 00 00 00 00 	movabs $0x8000000000000000,%rcx
   180027fff:	00 00 80
   180028002:	48 85 c1             	test   %rax,%rcx
   180028005:	74 0f                	je     0x180028016
   180028007:	48 b8 09 00 00 00 00 	movabs $0x8000000000000009,%rax
   18002800e:	00 00 80
   180028011:	e9 c4 03 00 00       	jmp    0x1800283da
   180028016:	48 8b 47 08          	mov    0x8(%rdi),%rax
   18002801a:	48 8b 8c 24 38 01 00 	mov    0x138(%rsp),%rcx
   180028021:	00
   180028022:	45 33 c0             	xor    %r8d,%r8d
   180028025:	8b 50 0c             	mov    0xc(%rax),%edx
   180028028:	48 8b 05 29 3e 02 00 	mov    0x23e29(%rip),%rax        # 0x18004be58
   18002802f:	ff 90 68 01 00 00    	call   *0x168(%rax)
   180028035:	48 8b 94 24 38 01 00 	mov    0x138(%rsp),%rdx
   18002803c:	00
   18002803d:	48 8b cf             	mov    %rdi,%rcx
   180028040:	e8 73 fe ff ff       	call   0x180027eb8
   180028045:	84 c0                	test   %al,%al
   180028047:	75 0f                	jne    0x180028058
   180028049:	48 bb 02 00 00 00 00 	movabs $0x8000000000000002,%rbx
   180028050:	00 00 80
   180028053:	e9 b1 03 00 00       	jmp    0x180028409
   180028058:	4c 8b b4 24 50 01 00 	mov    0x150(%rsp),%r14
   18002805f:	00
   180028060:	b8 2a 00 00 00       	mov    $0x2a,%eax
   180028065:	c6 44 24 38 04       	movb   $0x4,0x38(%rsp)
   18002806a:	66 89 44 24 3a       	mov    %ax,0x3a(%rsp)
   18002806f:	c6 44 24 39 01       	movb   $0x1,0x39(%rsp)
   180028074:	45 32 e4             	xor    %r12b,%r12b
   180028077:	48 8b 84 24 38 01 00 	mov    0x138(%rsp),%rax
   18002807e:	00
   18002807f:	41 0f b6 dc          	movzbl %r12b,%ebx
   180028083:	48 03 db             	add    %rbx,%rbx
   180028086:	80 bc d8 c2 01 00 00 	cmpb   $0x0,0x1c2(%rax,%rbx,8)
   18002808d:	00
   18002808e:	0f 84 13 03 00 00    	je     0x1800283a7
   180028094:	83 bc d8 ca 01 00 00 	cmpl   $0x0,0x1ca(%rax,%rbx,8)
   18002809b:	00
   18002809c:	0f 84 05 03 00 00    	je     0x1800283a7
   1800280a2:	48 8b 05 af 3d 02 00 	mov    0x23daf(%rip),%rax        # 0x18004be58
   1800280a9:	45 33 c0             	xor    %r8d,%r8d
   1800280ac:	48 8d 4c 24 70       	lea    0x70(%rsp),%rcx
   1800280b1:	41 8d 50 78          	lea    0x78(%r8),%edx
   1800280b5:	ff 90 68 01 00 00    	call   *0x168(%rax)
   1800280bb:	48 8b 05 fe 88 02 00 	mov    0x288fe(%rip),%rax        # 0x1800509c0
   1800280c2:	45 33 c0             	xor    %r8d,%r8d
   1800280c5:	48 8d 4c 24 50       	lea    0x50(%rsp),%rcx
   1800280ca:	41 8d 50 10          	lea    0x10(%r8),%edx
   1800280ce:	c6 44 24 60 01       	movb   $0x1,0x60(%rsp)
   1800280d3:	c6 44 24 61 01       	movb   $0x1,0x61(%rsp)
   1800280d8:	ff 90 68 01 00 00    	call   *0x168(%rax)
   1800280de:	48 83 a4 24 a0 00 00 	andq   $0x0,0xa0(%rsp)
   1800280e5:	00 00
   1800280e7:	48 8b 94 24 38 01 00 	mov    0x138(%rsp),%rdx
   1800280ee:	00
   1800280ef:	48 89 bc 24 a8 00 00 	mov    %rdi,0xa8(%rsp)
   1800280f6:	00
   1800280f7:	48 89 b4 24 b0 00 00 	mov    %rsi,0xb0(%rsp)
   1800280fe:	00
   1800280ff:	8a 84 da c2 01 00 00 	mov    0x1c2(%rdx,%rbx,8),%al
   180028106:	3c 05                	cmp    $0x5,%al
   180028108:	0f 84 d5 00 00 00    	je     0x1800281e3
   18002810e:	3c 0f                	cmp    $0xf,%al
   180028110:	0f 84 cd 00 00 00    	je     0x1800281e3
   180028116:	41 ff c7             	inc    %r15d
   180028119:	48 8d 4c 24 50       	lea    0x50(%rsp),%rcx
   18002811e:	48 81 c2 b8 01 00 00 	add    $0x1b8,%rdx
   180028125:	44 89 7c 24 3c       	mov    %r15d,0x3c(%rsp)
   18002812a:	8b 44 da 0e          	mov    0xe(%rdx,%rbx,8),%eax
   18002812e:	41 b8 04 00 00 00    	mov    $0x4,%r8d
   180028134:	48 89 44 24 40       	mov    %rax,0x40(%rsp)
   180028139:	8b 44 da 12          	mov    0x12(%rdx,%rbx,8),%eax
   18002813d:	48 89 44 24 48       	mov    %rax,0x48(%rsp)
   180028142:	48 8b 05 0f 3d 02 00 	mov    0x23d0f(%rip),%rax        # 0x18004be58
   180028149:	ff 90 60 01 00 00    	call   *0x160(%rax)
   18002814f:	48 8d 54 24 38       	lea    0x38(%rsp),%rdx
   180028154:	48 8b cd             	mov    %rbp,%rcx
   180028157:	e8 a4 0c fe ff       	call   0x180008e00
   18002815c:	48 8b 94 24 38 01 00 	mov    0x138(%rsp),%rdx
   180028163:	00
   180028164:	48 89 84 24 b8 00 00 	mov    %rax,0xb8(%rsp)
   18002816b:	00
   18002816c:	8b 84 da c6 01 00 00 	mov    0x1c6(%rdx,%rbx,8),%eax
   180028173:	48 89 84 24 c0 00 00 	mov    %rax,0xc0(%rsp)
   18002817a:	00
   18002817b:	8b 8c da ca 01 00 00 	mov    0x1ca(%rdx,%rbx,8),%ecx
   180028182:	8b 84 da c6 01 00 00 	mov    0x1c6(%rdx,%rbx,8),%eax
   180028189:	8d 44 01 ff          	lea    -0x1(%rcx,%rax,1),%eax
   18002818d:	4c 89 b4 24 e0 00 00 	mov    %r14,0xe0(%rsp)
   180028194:	00
   180028195:	48 89 84 24 c8 00 00 	mov    %rax,0xc8(%rsp)
   18002819c:	00
   18002819d:	80 bc da c2 01 00 00 	cmpb   $0xef,0x1c2(%rdx,%rbx,8)
   1800281a4:	ef
   1800281a5:	75 22                	jne    0x1800281c9
   1800281a7:	48 8b 05 aa 3c 02 00 	mov    0x23caa(%rip),%rax        # 0x18004be58
   1800281ae:	48 8d 15 e3 5c 02 00 	lea    0x25ce3(%rip),%rdx        # 0x18004de98
   1800281b5:	48 8d 8c 24 d0 00 00 	lea    0xd0(%rsp),%rcx
   1800281bc:	00
   1800281bd:	41 b8 10 00 00 00    	mov    $0x10,%r8d
   1800281c3:	ff 90 60 01 00 00    	call   *0x160(%rax)
   1800281c9:	48 8b 47 08          	mov    0x8(%rdi),%rax
   1800281cd:	48 8d 54 24 70       	lea    0x70(%rsp),%rdx
   1800281d2:	49 8b cd             	mov    %r13,%rcx
   1800281d5:	44 8b 40 0c          	mov    0xc(%rax),%r8d
   1800281d9:	e8 ea 2c fe ff       	call   0x18000aec8
   1800281de:	e9 c4 01 00 00       	jmp    0x1800283a7
   1800281e3:	48 8b 47 08          	mov    0x8(%rdi),%rax
   1800281e7:	4c 8d 44 24 30       	lea    0x30(%rsp),%r8
   1800281ec:	b9 04 00 00 00       	mov    $0x4,%ecx
   1800281f1:	8b 50 0c             	mov    0xc(%rax),%edx
   1800281f4:	48 8b 05 5d 3c 02 00 	mov    0x23c5d(%rip),%rax        # 0x18004be58
   1800281fb:	ff 50 40             	call   *0x40(%rax)
   1800281fe:	48 b9 00 00 00 00 00 	movabs $0x8000000000000000,%rcx
   180028205:	00 00 80
   180028208:	48 85 c1             	test   %rax,%rcx
   18002820b:	0f 85 ee 01 00 00    	jne    0x1800283ff
   180028211:	48 8b 84 24 38 01 00 	mov    0x138(%rsp),%rax
   180028218:	00
   180028219:	8b ac d8 c6 01 00 00 	mov    0x1c6(%rax,%rbx,8),%ebp
   180028220:	48 85 ed             	test   %rbp,%rbp
   180028223:	0f 84 76 01 00 00    	je     0x18002839f
   180028229:	48 8b 54 24 30       	mov    0x30(%rsp),%rdx
   18002822e:	48 8b 47 08          	mov    0x8(%rdi),%rax
   180028232:	48 89 54 24 20       	mov    %rdx,0x20(%rsp)
   180028237:	4c 8b c5             	mov    %rbp,%r8
   18002823a:	44 8b 48 0c          	mov    0xc(%rax),%r9d
   18002823e:	8b 10                	mov    (%rax),%edx
   180028240:	48 8b cf             	mov    %rdi,%rcx
   180028243:	ff 57 18             	call   *0x18(%rdi)
   180028246:	48 8b f0             	mov    %rax,%rsi
   180028249:	48 b8 00 00 00 00 00 	movabs $0x8000000000000000,%rax
   180028250:	00 00 80
   180028253:	48 85 f0             	test   %rsi,%rax
   180028256:	0f 85 5a 01 00 00    	jne    0x1800283b6
   18002825c:	4c 8b 44 24 30       	mov    0x30(%rsp),%r8
   180028261:	41 80 b8 c2 01 00 00 	cmpb   $0x0,0x1c2(%r8)
   180028268:	00
   180028269:	0f 84 28 01 00 00    	je     0x180028397
   18002826f:	48 8b 84 24 38 01 00 	mov    0x138(%rsp),%rax
   180028276:	00
   180028277:	8b 94 d8 c6 01 00 00 	mov    0x1c6(%rax,%rbx,8),%edx
   18002827e:	03 94 d8 ca 01 00 00 	add    0x1ca(%rax,%rbx,8),%edx
   180028285:	41 8b 80 ca 01 00 00 	mov    0x1ca(%r8),%eax
   18002828c:	48 03 c5             	add    %rbp,%rax
   18002828f:	48 3b c2             	cmp    %rdx,%rax
   180028292:	0f 87 ff 00 00 00    	ja     0x180028397
   180028298:	49 8d 90 b8 01 00 00 	lea    0x1b8(%r8),%rdx
   18002829f:	41 ff c7             	inc    %r15d
   1800282a2:	48 8d 4c 24 50       	lea    0x50(%rsp),%rcx
   1800282a7:	44 89 7c 24 3c       	mov    %r15d,0x3c(%rsp)
   1800282ac:	41 8b 80 c6 01 00 00 	mov    0x1c6(%r8),%eax
   1800282b3:	48 03 c5             	add    %rbp,%rax
   1800282b6:	48 89 44 24 40       	mov    %rax,0x40(%rsp)
   1800282bb:	41 8b 80 ca 01 00 00 	mov    0x1ca(%r8),%eax
   1800282c2:	41 b8 04 00 00 00    	mov    $0x4,%r8d
   1800282c8:	48 89 44 24 48       	mov    %rax,0x48(%rsp)
   1800282cd:	48 8b 05 84 3b 02 00 	mov    0x23b84(%rip),%rax        # 0x18004be58
   1800282d4:	ff 90 60 01 00 00    	call   *0x160(%rax)
   1800282da:	4c 8b 5c 24 40       	mov    0x40(%rsp),%r11
   1800282df:	48 8b 44 24 30       	mov    0x30(%rsp),%rax
   1800282e4:	48 8b ac 24 48 01 00 	mov    0x148(%rsp),%rbp
   1800282eb:	00
   1800282ec:	4c 89 9c 24 c0 00 00 	mov    %r11,0xc0(%rsp)
   1800282f3:	00
   1800282f4:	8b 88 ca 01 00 00    	mov    0x1ca(%rax),%ecx
   1800282fa:	4a 8d 44 19 ff       	lea    -0x1(%rcx,%r11,1),%rax
   1800282ff:	48 8d 54 24 38       	lea    0x38(%rsp),%rdx
   180028304:	48 8b cd             	mov    %rbp,%rcx
   180028307:	48 89 84 24 c8 00 00 	mov    %rax,0xc8(%rsp)
   18002830e:	00
   18002830f:	e8 ec 0a fe ff       	call   0x180008e00
   180028314:	4c 89 b4 24 e0 00 00 	mov    %r14,0xe0(%rsp)
   18002831b:	00
   18002831c:	48 89 84 24 b8 00 00 	mov    %rax,0xb8(%rsp)
   180028323:	00
   180028324:	48 8b 44 24 30       	mov    0x30(%rsp),%rax
   180028329:	80 b8 c2 01 00 00 ef 	cmpb   $0xef,0x1c2(%rax)
   180028330:	75 22                	jne    0x180028354
   180028332:	48 8b 05 1f 3b 02 00 	mov    0x23b1f(%rip),%rax        # 0x18004be58
   180028339:	48 8d 15 58 5b 02 00 	lea    0x25b58(%rip),%rdx        # 0x18004de98
   180028340:	48 8d 8c 24 d0 00 00 	lea    0xd0(%rsp),%rcx
   180028347:	00
   180028348:	41 b8 10 00 00 00    	mov    $0x10,%r8d
   18002834e:	ff 90 60 01 00 00    	call   *0x160(%rax)
   180028354:	48 8b 47 08          	mov    0x8(%rdi),%rax
   180028358:	48 8d 54 24 70       	lea    0x70(%rsp),%rdx
   18002835d:	49 8b cd             	mov    %r13,%rcx
   180028360:	44 8b 40 0c          	mov    0xc(%rax),%r8d
   180028364:	e8 5f 2b fe ff       	call   0x18000aec8
   180028369:	48 8b 54 24 30       	mov    0x30(%rsp),%rdx
   18002836e:	8a 82 d2 01 00 00    	mov    0x1d2(%rdx),%al
   180028374:	3c 05                	cmp    $0x5,%al
   180028376:	74 04                	je     0x18002837c
   180028378:	3c 0f                	cmp    $0xf,%al
   18002837a:	75 79                	jne    0x1800283f5
   18002837c:	48 8b 84 24 38 01 00 	mov    0x138(%rsp),%rax
   180028383:	00
   180028384:	8b ac d8 c6 01 00 00 	mov    0x1c6(%rax,%rbx,8),%ebp
   18002838b:	03 aa d6 01 00 00    	add    0x1d6(%rdx),%ebp
   180028391:	0f 85 97 fe ff ff    	jne    0x18002822e
   180028397:	48 8b b4 24 40 01 00 	mov    0x140(%rsp),%rsi
   18002839e:	00
   18002839f:	48 8b ac 24 48 01 00 	mov    0x148(%rsp),%rbp
   1800283a6:	00
   1800283a7:	41 fe c4             	inc    %r12b
   1800283aa:	41 80 fc 04          	cmp    $0x4,%r12b
   1800283ae:	0f 82 c3 fc ff ff    	jb     0x180028077
   1800283b4:	33 f6                	xor    %esi,%esi
   1800283b6:	48 8b 05 9b 3a 02 00 	mov    0x23a9b(%rip),%rax        # 0x18004be58
   1800283bd:	48 8b 8c 24 38 01 00 	mov    0x138(%rsp),%rcx
   1800283c4:	00
   1800283c5:	ff 50 48             	call   *0x48(%rax)
   1800283c8:	48 8b 05 89 3a 02 00 	mov    0x23a89(%rip),%rax        # 0x18004be58
   1800283cf:	48 8b 4c 24 30       	mov    0x30(%rsp),%rcx
   1800283d4:	ff 50 48             	call   *0x48(%rax)
   1800283d7:	48 8b c6             	mov    %rsi,%rax
   1800283da:	48 8b 9c 24 30 01 00 	mov    0x130(%rsp),%rbx
   1800283e1:	00
   1800283e2:	48 81 c4 f0 00 00 00 	add    $0xf0,%rsp
   1800283e9:	41 5f                	pop    %r15
   1800283eb:	41 5e                	pop    %r14
   1800283ed:	41 5d                	pop    %r13
   1800283ef:	41 5c                	pop    %r12
   1800283f1:	5f                   	pop    %rdi
   1800283f2:	5e                   	pop    %rsi
   1800283f3:	5d                   	pop    %rbp
   1800283f4:	c3                   	ret
   1800283f5:	48 8b b4 24 40 01 00 	mov    0x140(%rsp),%rsi
   1800283fc:	00
   1800283fd:	eb a8                	jmp    0x1800283a7
   1800283ff:	48 bb 09 00 00 00 00 	movabs $0x8000000000000009,%rbx
   180028406:	00 00 80
   180028409:	48 8b 15 48 3a 02 00 	mov    0x23a48(%rip),%rdx        # 0x18004be58
   180028410:	48 8b 8c 24 38 01 00 	mov    0x138(%rsp),%rcx
   180028417:	00
   180028418:	ff 52 48             	call   *0x48(%rdx)
   18002841b:	48 8b c3             	mov    %rbx,%rax
   18002841e:	eb ba                	jmp    0x1800283da
   180028420:	48 8b c4             	mov    %rsp,%rax
   180028423:	48 89 58 08          	mov    %rbx,0x8(%rax)
   180028427:	4c 89 48 20          	mov    %r9,0x20(%rax)
   18002842b:	4c 89 40 18          	mov    %r8,0x18(%rax)
   18002842f:	55                   	push   %rbp
   180028430:	56                   	push   %rsi
   180028431:	57                   	push   %rdi
   180028432:	41 54                	push   %r12
   180028434:	41 55                	push   %r13
   180028436:	41 56                	push   %r14
   180028438:	41 57                	push   %r15
   18002843a:	48 81 ec c0 01 00 00 	sub    $0x1c0,%rsp
   180028441:	45 33 e4             	xor    %r12d,%r12d
   180028444:	4c 8b f1             	mov    %rcx,%r14
   180028447:	b9 00 08 00 00       	mov    $0x800,%ecx
   18002844c:	4c 89 60 10          	mov    %r12,0x10(%rax)
   180028450:	48 8b 42 08          	mov    0x8(%rdx),%rax
   180028454:	4c 89 64 24 30       	mov    %r12,0x30(%rsp)
   180028459:	49 8b f1             	mov    %r9,%rsi
   18002845c:	49 8b e8             	mov    %r8,%rbp
   18002845f:	48 8b fa             	mov    %rdx,%rdi
   180028462:	39 48 0c             	cmp    %ecx,0xc(%rax)
   180028465:	74 0f                	je     0x180028476
   180028467:	48 b8 02 00 00 00 00 	movabs $0x8000000000000002,%rax
   18002846e:	00 00 80
   180028471:	e9 f3 04 00 00       	jmp    0x180028969
   180028476:	48 8b 05 db 39 02 00 	mov    0x239db(%rip),%rax        # 0x18004be58
   18002847d:	48 8b d1             	mov    %rcx,%rdx
   180028480:	4c 8d 84 24 08 02 00 	lea    0x208(%rsp),%r8
   180028487:	00
   180028488:	b9 04 00 00 00       	mov    $0x4,%ecx
   18002848d:	ff 50 40             	call   *0x40(%rax)
   180028490:	48 bb 00 00 00 00 00 	movabs $0x8000000000000000,%rbx
   180028497:	00 00 80
   18002849a:	48 85 c3             	test   %rax,%rbx
   18002849d:	74 0f                	je     0x1800284ae
   18002849f:	48 b8 09 00 00 00 00 	movabs $0x8000000000000009,%rax
   1800284a6:	00 00 80
   1800284a9:	e9 bb 04 00 00       	jmp    0x180028969
   1800284ae:	48 8b 4f 08          	mov    0x8(%rdi),%rcx
   1800284b2:	48 8b 84 24 08 02 00 	mov    0x208(%rsp),%rax
   1800284b9:	00
   1800284ba:	41 b8 10 00 00 00    	mov    $0x10,%r8d
   1800284c0:	44 8b 49 0c          	mov    0xc(%rcx),%r9d
   1800284c4:	8b 11                	mov    (%rcx),%edx
   1800284c6:	48 8b cf             	mov    %rdi,%rcx
   1800284c9:	48 89 44 24 20       	mov    %rax,0x20(%rsp)
   1800284ce:	ff 57 18             	call   *0x18(%rdi)
   1800284d1:	48 8b 8c 24 08 02 00 	mov    0x208(%rsp),%rcx
   1800284d8:	00
   1800284d9:	48 85 c3             	test   %rax,%rbx
   1800284dc:	74 0f                	je     0x1800284ed
   1800284de:	48 8b 05 73 39 02 00 	mov    0x23973(%rip),%rax        # 0x18004be58
   1800284e5:	ff 50 48             	call   *0x48(%rax)
   1800284e8:	e9 7a ff ff ff       	jmp    0x180028467
   1800284ed:	48 8d 15 2c eb 01 00 	lea    0x1eb2c(%rip),%rdx        # 0x180047020
   1800284f4:	48 ff c1             	inc    %rcx
   1800284f7:	41 b8 05 00 00 00    	mov    $0x5,%r8d
   1800284fd:	e8 82 f0 fd ff       	call   0x180007584
   180028502:	49 3b c4             	cmp    %r12,%rax
   180028505:	74 0a                	je     0x180028511
   180028507:	48 8b 8c 24 08 02 00 	mov    0x208(%rsp),%rcx
   18002850e:	00
   18002850f:	eb cd                	jmp    0x1800284de
   180028511:	f3 0f 6f 05 8f 59 02 	movdqu 0x2598f(%rip),%xmm0        # 0x18004dea8
   180028518:	00
   180028519:	48 8b 9c 24 08 02 00 	mov    0x208(%rsp),%rbx
   180028520:	00
   180028521:	c6 44 24 60 04       	movb   $0x4,0x60(%rsp)
   180028526:	c6 44 24 61 03       	movb   $0x3,0x61(%rsp)
   18002852b:	48 8d 4c 24 7c       	lea    0x7c(%rsp),%rcx
   180028530:	48 8d 93 9c 00 00 00 	lea    0x9c(%rbx),%rdx
   180028537:	f3 0f 7f 44 24 64    	movdqu %xmm0,0x64(%rsp)
   18002853d:	48 8b 43 50          	mov    0x50(%rbx),%rax
   180028541:	41 b8 22 00 00 00    	mov    $0x22,%r8d
   180028547:	48 89 44 24 74       	mov    %rax,0x74(%rsp)
   18002854c:	e8 bf 15 fe ff       	call   0x180009b10
   180028551:	48 8d 53 28          	lea    0x28(%rbx),%rdx
   180028555:	48 8d 8c 24 9e 00 00 	lea    0x9e(%rsp),%rcx
   18002855c:	00
   18002855d:	41 b8 20 00 00 00    	mov    $0x20,%r8d
   180028563:	e8 a8 15 fe ff       	call   0x180009b10
   180028568:	48 8b 05 e9 38 02 00 	mov    0x238e9(%rip),%rax        # 0x18004be58
   18002856f:	41 bb 5e 00 00 00    	mov    $0x5e,%r11d
   180028575:	48 8d 8c 24 40 01 00 	lea    0x140(%rsp),%rcx
   18002857c:	00
   18002857d:	41 8d 53 1a          	lea    0x1a(%r11),%edx
   180028581:	45 33 c0             	xor    %r8d,%r8d
   180028584:	66 44 89 5c 24 62    	mov    %r11w,0x62(%rsp)
   18002858a:	ff 90 68 01 00 00    	call   *0x168(%rax)
   180028590:	48 8d 54 24 60       	lea    0x60(%rsp),%rdx
   180028595:	48 8b ce             	mov    %rsi,%rcx
   180028598:	e8 63 08 fe ff       	call   0x180008e00
   18002859d:	48 8b 4f 08          	mov    0x8(%rdi),%rcx
   1800285a1:	4c 89 a4 24 70 01 00 	mov    %r12,0x170(%rsp)
   1800285a8:	00
   1800285a9:	48 89 84 24 88 01 00 	mov    %rax,0x188(%rsp)
   1800285b0:	00
   1800285b1:	48 89 bc 24 78 01 00 	mov    %rdi,0x178(%rsp)
   1800285b8:	00
   1800285b9:	48 89 ac 24 80 01 00 	mov    %rbp,0x180(%rsp)
   1800285c0:	00
   1800285c1:	4c 89 a4 24 90 01 00 	mov    %r12,0x190(%rsp)
   1800285c8:	00
   1800285c9:	48 8b 41 18          	mov    0x18(%rcx),%rax
   1800285cd:	41 b8 11 00 00 00    	mov    $0x11,%r8d
   1800285d3:	48 89 84 24 98 01 00 	mov    %rax,0x198(%rsp)
   1800285da:	00
   1800285db:	48 8b 84 24 20 02 00 	mov    0x220(%rsp),%rax
   1800285e2:	00
   1800285e3:	48 89 84 24 b0 01 00 	mov    %rax,0x1b0(%rsp)
   1800285ea:	00
   1800285eb:	48 8b 84 24 08 02 00 	mov    0x208(%rsp),%rax
   1800285f2:	00
   1800285f3:	44 8b 49 0c          	mov    0xc(%rcx),%r9d
   1800285f7:	8b 11                	mov    (%rcx),%edx
   1800285f9:	44 8b 78 50          	mov    0x50(%rax),%r15d
   1800285fd:	48 8b cf             	mov    %rdi,%rcx
   180028600:	48 89 44 24 20       	mov    %rax,0x20(%rsp)
   180028605:	ff 57 18             	call   *0x18(%rdi)
   180028608:	48 8b 8c 24 08 02 00 	mov    0x208(%rsp),%rcx
   18002860f:	00
   180028610:	48 be 00 00 00 00 00 	movabs $0x8000000000000000,%rsi
   180028617:	00 00 80
   18002861a:	4c 8b e8             	mov    %rax,%r13
   18002861d:	48 85 c6             	test   %rax,%rsi
   180028620:	74 17                	je     0x180028639
   180028622:	48 8b 15 2f 38 02 00 	mov    0x2382f(%rip),%rdx        # 0x18004be58
   180028629:	ff 52 48             	call   *0x48(%rdx)
   18002862c:	4c 89 a4 24 08 02 00 	mov    %r12,0x208(%rsp)
   180028633:	00
   180028634:	e9 f7 02 00 00       	jmp    0x180028930
   180028639:	44 38 21             	cmp    %r12b,(%rcx)
   18002863c:	0f 85 c5 02 00 00    	jne    0x180028907
   180028642:	48 8d 15 d7 e9 01 00 	lea    0x1e9d7(%rip),%rdx        # 0x180047020
   180028649:	48 ff c1             	inc    %rcx
   18002864c:	41 b8 05 00 00 00    	mov    $0x5,%r8d
   180028652:	e8 2d ef fd ff       	call   0x180007584
   180028657:	49 3b c4             	cmp    %r12,%rax
   18002865a:	0f 85 9f 02 00 00    	jne    0x1800288ff
   180028660:	48 8b 8c 24 08 02 00 	mov    0x208(%rsp),%rcx
   180028667:	00
   180028668:	80 79 06 01          	cmpb   $0x1,0x6(%rcx)
   18002866c:	0f 85 95 02 00 00    	jne    0x180028907
   180028672:	48 8d 15 8f e9 01 00 	lea    0x1e98f(%rip),%rdx        # 0x180047008
   180028679:	48 83 c1 07          	add    $0x7,%rcx
   18002867d:	41 b8 17 00 00 00    	mov    $0x17,%r8d
   180028683:	e8 fc ee fd ff       	call   0x180007584
   180028688:	49 3b c4             	cmp    %r12,%rax
   18002868b:	0f 85 6e 02 00 00    	jne    0x1800288ff
   180028691:	48 8b 84 24 08 02 00 	mov    0x208(%rsp),%rax
   180028698:	00
   180028699:	4c 8d 44 24 30       	lea    0x30(%rsp),%r8
   18002869e:	b9 04 00 00 00       	mov    $0x4,%ecx
   1800286a3:	8b 58 47             	mov    0x47(%rax),%ebx
   1800286a6:	48 8b 47 08          	mov    0x8(%rdi),%rax
   1800286aa:	8b 50 0c             	mov    0xc(%rax),%edx
   1800286ad:	48 8b 05 a4 37 02 00 	mov    0x237a4(%rip),%rax        # 0x18004be58
   1800286b4:	ff 50 40             	call   *0x40(%rax)
   1800286b7:	4c 8b e8             	mov    %rax,%r13
   1800286ba:	48 85 c6             	test   %rax,%rsi
   1800286bd:	74 17                	je     0x1800286d6
   1800286bf:	48 8b 05 92 37 02 00 	mov    0x23792(%rip),%rax        # 0x18004be58
   1800286c6:	48 8b 8c 24 08 02 00 	mov    0x208(%rsp),%rcx
   1800286cd:	00
   1800286ce:	ff 50 48             	call   *0x48(%rax)
   1800286d1:	e9 56 ff ff ff       	jmp    0x18002862c
   1800286d6:	48 8b 4f 08          	mov    0x8(%rdi),%rcx
   1800286da:	48 8b 44 24 30       	mov    0x30(%rsp),%rax
   1800286df:	4c 8b c3             	mov    %rbx,%r8
   1800286e2:	44 8b 49 0c          	mov    0xc(%rcx),%r9d
   1800286e6:	8b 11                	mov    (%rcx),%edx
   1800286e8:	48 8b cf             	mov    %rdi,%rcx
   1800286eb:	48 89 44 24 20       	mov    %rax,0x20(%rsp)
   1800286f0:	ff 57 18             	call   *0x18(%rdi)
   1800286f3:	4c 8b 5c 24 30       	mov    0x30(%rsp),%r11
   1800286f8:	41 b9 01 00 00 00    	mov    $0x1,%r9d
   1800286fe:	45 38 0b             	cmp    %r9b,(%r11)
   180028701:	0f 85 c8 01 00 00    	jne    0x1800288cf
   180028707:	b8 55 aa 00 00       	mov    $0xaa55,%eax
   18002870c:	66 41 39 43 1e       	cmp    %ax,0x1e(%r11)
   180028711:	0f 85 b8 01 00 00    	jne    0x1800288cf
   180028717:	41 0f b7 cc          	movzwl %r12w,%ecx
   18002871b:	49 8b c4             	mov    %r12,%rax
   18002871e:	66 41 03 0c 43       	add    (%r11,%rax,2),%cx
   180028723:	49 03 c1             	add    %r9,%rax
   180028726:	48 83 f8 10          	cmp    $0x10,%rax
   18002872a:	72 f2                	jb     0x18002871e
   18002872c:	66 41 3b cc          	cmp    %r12w,%cx
   180028730:	0f 85 99 01 00 00    	jne    0x1800288cf
   180028736:	49 8d 6b 20          	lea    0x20(%r11),%rbp
   18002873a:	33 db                	xor    %ebx,%ebx
   18002873c:	80 7d 00 88          	cmpb   $0x88,0x0(%rbp)
   180028740:	0f 85 73 01 00 00    	jne    0x1800288b9
   180028746:	48 8b 57 08          	mov    0x8(%rdi),%rdx
   18002874a:	8b 72 0c             	mov    0xc(%rdx),%esi
   18002874d:	85 f6                	test   %esi,%esi
   18002874f:	74 05                	je     0x180028756
   180028751:	83 fe ff             	cmp    $0xffffffff,%esi
   180028754:	75 05                	jne    0x18002875b
   180028756:	be 00 02 00 00       	mov    $0x200,%esi
   18002875b:	0f b6 4d 01          	movzbl 0x1(%rbp),%ecx
   18002875f:	44 0f b7 45 06       	movzwl 0x6(%rbp),%r8d
   180028764:	85 c9                	test   %ecx,%ecx
   180028766:	74 37                	je     0x18002879f
   180028768:	41 2b c9             	sub    %r9d,%ecx
   18002876b:	74 2a                	je     0x180028797
   18002876d:	41 2b c9             	sub    %r9d,%ecx
   180028770:	74 1d                	je     0x18002878f
   180028772:	41 2b c9             	sub    %r9d,%ecx
   180028775:	74 10                	je     0x180028787
   180028777:	41 3b c9             	cmp    %r9d,%ecx
   18002877a:	0f 85 39 01 00 00    	jne    0x1800288b9
   180028780:	be 00 02 00 00       	mov    $0x200,%esi
   180028785:	eb 1d                	jmp    0x1800287a4
   180028787:	41 b8 a0 05 00 00    	mov    $0x5a0,%r8d
   18002878d:	eb 15                	jmp    0x1800287a4
   18002878f:	41 b8 d0 02 00 00    	mov    $0x2d0,%r8d
   180028795:	eb 0d                	jmp    0x1800287a4
   180028797:	41 b8 67 02 00 00    	mov    $0x267,%r8d
   18002879d:	eb 05                	jmp    0x1800287a4
   18002879f:	be 00 08 00 00       	mov    $0x800,%esi
   1800287a4:	4d 85 e4             	test   %r12,%r12
   1800287a7:	74 07                	je     0x1800287b0
   1800287a9:	48 85 db             	test   %rbx,%rbx
   1800287ac:	49 0f 44 d9          	cmove  %r9,%rbx
   1800287b0:	89 5c 24 3c          	mov    %ebx,0x3c(%rsp)
   1800287b4:	8b 45 08             	mov    0x8(%rbp),%eax
   1800287b7:	49 03 d9             	add    %r9,%rbx
   1800287ba:	48 89 44 24 40       	mov    %rax,0x40(%rsp)
   1800287bf:	41 83 f8 02          	cmp    $0x2,%r8d
   1800287c3:	73 21                	jae    0x1800287e6
   1800287c5:	48 8b 4a 18          	mov    0x18(%rdx),%rcx
   1800287c9:	49 03 c9             	add    %r9,%rcx
   1800287cc:	4c 3b f9             	cmp    %rcx,%r15
   1800287cf:	76 0c                	jbe    0x1800287dd
   1800287d1:	8b 42 18             	mov    0x18(%rdx),%eax
   1800287d4:	2b 44 24 40          	sub    0x40(%rsp),%eax
   1800287d8:	41 03 c1             	add    %r9d,%eax
   1800287db:	eb 22                	jmp    0x1800287ff
   1800287dd:	41 8b c7             	mov    %r15d,%eax
   1800287e0:	2b 44 24 40          	sub    0x40(%rsp),%eax
   1800287e4:	eb 19                	jmp    0x1800287ff
   1800287e6:	8b 4a 0c             	mov    0xc(%rdx),%ecx
   1800287e9:	44 0f af c6          	imul   %esi,%r8d
   1800287ed:	48 8b d1             	mov    %rcx,%rdx
   1800287f0:	41 8d 4c 08 ff       	lea    -0x1(%r8,%rcx,1),%ecx
   1800287f5:	4c 8d 44 24 50       	lea    0x50(%rsp),%r8
   1800287fa:	e8 71 15 fe ff       	call   0x180009d70
   1800287ff:	48 89 44 24 48       	mov    %rax,0x48(%rsp)
   180028804:	b8 18 00 00 00       	mov    $0x18,%eax
   180028809:	48 8d 8c 24 c0 00 00 	lea    0xc0(%rsp),%rcx
   180028810:	00
   180028811:	8d 50 60             	lea    0x60(%rax),%edx
   180028814:	66 89 44 24 3a       	mov    %ax,0x3a(%rsp)
   180028819:	48 8b 05 38 36 02 00 	mov    0x23638(%rip),%rax        # 0x18004be58
   180028820:	45 33 c0             	xor    %r8d,%r8d
   180028823:	c6 44 24 38 04       	movb   $0x4,0x38(%rsp)
   180028828:	c6 44 24 39 02       	movb   $0x2,0x39(%rsp)
   18002882d:	ff 90 68 01 00 00    	call   *0x168(%rax)
   180028833:	48 8b 8c 24 18 02 00 	mov    0x218(%rsp),%rcx
   18002883a:	00
   18002883b:	48 8d 54 24 38       	lea    0x38(%rsp),%rdx
   180028840:	e8 bb 05 fe ff       	call   0x180008e00
   180028845:	48 8b 4c 24 40       	mov    0x40(%rsp),%rcx
   18002884a:	48 83 a4 24 f0 00 00 	andq   $0x0,0xf0(%rsp)
   180028851:	00 00
   180028853:	48 89 84 24 08 01 00 	mov    %rax,0x108(%rsp)
   18002885a:	00
   18002885b:	48 8b 84 24 10 02 00 	mov    0x210(%rsp),%rax
   180028862:	00
   180028863:	48 89 8c 24 10 01 00 	mov    %rcx,0x110(%rsp)
   18002886a:	00
   18002886b:	48 89 84 24 00 01 00 	mov    %rax,0x100(%rsp)
   180028872:	00
   180028873:	48 8b 44 24 48       	mov    0x48(%rsp),%rax
   180028878:	48 8d 94 24 c0 00 00 	lea    0xc0(%rsp),%rdx
   18002887f:	00
   180028880:	48 8d 4c 08 ff       	lea    -0x1(%rax,%rcx,1),%rcx
   180028885:	48 8b 84 24 20 02 00 	mov    0x220(%rsp),%rax
   18002888c:	00
   18002888d:	44 8b c6             	mov    %esi,%r8d
   180028890:	48 89 8c 24 18 01 00 	mov    %rcx,0x118(%rsp)
   180028897:	00
   180028898:	49 8b ce             	mov    %r14,%rcx
   18002889b:	48 89 bc 24 f8 00 00 	mov    %rdi,0xf8(%rsp)
   1800288a2:	00
   1800288a3:	48 89 84 24 30 01 00 	mov    %rax,0x130(%rsp)
   1800288aa:	00
   1800288ab:	e8 18 26 fe ff       	call   0x18000aec8
   1800288b0:	41 b9 01 00 00 00    	mov    $0x1,%r9d
   1800288b6:	4c 8b e8             	mov    %rax,%r13
   1800288b9:	4d 03 e1             	add    %r9,%r12
   1800288bc:	48 83 c5 20          	add    $0x20,%rbp
   1800288c0:	49 83 fc 3f          	cmp    $0x3f,%r12
   1800288c4:	0f 82 72 fe ff ff    	jb     0x18002873c
   1800288ca:	45 33 e4             	xor    %r12d,%r12d
   1800288cd:	eb 4a                	jmp    0x180028919
   1800288cf:	48 8b 05 82 35 02 00 	mov    0x23582(%rip),%rax        # 0x18004be58
   1800288d6:	48 8b 8c 24 08 02 00 	mov    0x208(%rsp),%rcx
   1800288dd:	00
   1800288de:	ff 50 48             	call   *0x48(%rax)
   1800288e1:	48 8b 05 70 35 02 00 	mov    0x23570(%rip),%rax        # 0x18004be58
   1800288e8:	48 8b 4c 24 30       	mov    0x30(%rsp),%rcx
   1800288ed:	4c 89 a4 24 08 02 00 	mov    %r12,0x208(%rsp)
   1800288f4:	00
   1800288f5:	ff 50 48             	call   *0x48(%rax)
   1800288f8:	4c 89 64 24 30       	mov    %r12,0x30(%rsp)
   1800288fd:	eb 1a                	jmp    0x180028919
   1800288ff:	48 8b 8c 24 08 02 00 	mov    0x208(%rsp),%rcx
   180028906:	00
   180028907:	48 8b 05 4a 35 02 00 	mov    0x2354a(%rip),%rax        # 0x18004be58
   18002890e:	ff 50 48             	call   *0x48(%rax)
   180028911:	4c 89 a4 24 08 02 00 	mov    %r12,0x208(%rsp)
   180028918:	00
   180028919:	48 8b 8c 24 08 02 00 	mov    0x208(%rsp),%rcx
   180028920:	00
   180028921:	49 3b cc             	cmp    %r12,%rcx
   180028924:	74 0a                	je     0x180028930
   180028926:	48 8b 05 2b 35 02 00 	mov    0x2352b(%rip),%rax        # 0x18004be58
   18002892d:	ff 50 48             	call   *0x48(%rax)
   180028930:	48 8b 4c 24 30       	mov    0x30(%rsp),%rcx
   180028935:	49 3b cc             	cmp    %r12,%rcx
   180028938:	74 0a                	je     0x180028944
   18002893a:	48 8b 05 17 35 02 00 	mov    0x23517(%rip),%rax        # 0x18004be58
   180028941:	ff 50 48             	call   *0x48(%rax)
   180028944:	44 38 25 17 dc 01 00 	cmp    %r12b,0x1dc17(%rip)        # 0x180046562
   18002894b:	74 19                	je     0x180028966
   18002894d:	48 8d 94 24 40 01 00 	lea    0x140(%rsp),%rdx
   180028954:	00
   180028955:	41 b8 00 08 00 00    	mov    $0x800,%r8d
   18002895b:	49 8b ce             	mov    %r14,%rcx
   18002895e:	e8 65 25 fe ff       	call   0x18000aec8
   180028963:	4c 8b e8             	mov    %rax,%r13
   180028966:	49 8b c5             	mov    %r13,%rax
   180028969:	48 8b 9c 24 00 02 00 	mov    0x200(%rsp),%rbx
   180028970:	00
   180028971:	48 81 c4 c0 01 00 00 	add    $0x1c0,%rsp
   180028978:	41 5f                	pop    %r15
   18002897a:	41 5e                	pop    %r14
   18002897c:	41 5d                	pop    %r13
   18002897e:	41 5c                	pop    %r12
   180028980:	5f                   	pop    %rdi
   180028981:	5e                   	pop    %rsi
   180028982:	5d                   	pop    %rbp
   180028983:	c3                   	ret
   180028984:	48 8b 41 08          	mov    0x8(%rcx),%rax
   180028988:	4c 8b ca             	mov    %rdx,%r9
   18002898b:	33 d2                	xor    %edx,%edx
   18002898d:	44 8b 40 0c          	mov    0xc(%rax),%r8d
   180028991:	49 8b 01             	mov    (%r9),%rax
   180028994:	49 f7 f0             	div    %r8
   180028997:	4c 0f af c0          	imul   %rax,%r8
   18002899b:	48 85 d2             	test   %rdx,%rdx
   18002899e:	74 0a                	je     0x1800289aa
   1800289a0:	48 8b 41 08          	mov    0x8(%rcx),%rax
   1800289a4:	8b 48 0c             	mov    0xc(%rax),%ecx
   1800289a7:	4c 03 c1             	add    %rcx,%r8
   1800289aa:	4d 89 01             	mov    %r8,(%r9)
   1800289ad:	c3                   	ret
   1800289ae:	cc                   	int3
   1800289af:	cc                   	int3
   1800289b0:	48 89 5c 24 10       	mov    %rbx,0x10(%rsp)
   1800289b5:	55                   	push   %rbp
   1800289b6:	56                   	push   %rsi
   1800289b7:	57                   	push   %rdi
   1800289b8:	48 83 ec 30          	sub    $0x30,%rsp
   1800289bc:	41 8b 41 50          	mov    0x50(%r9),%eax
   1800289c0:	48 8d 54 24 68       	lea    0x68(%rsp),%rdx
   1800289c5:	49 8b f9             	mov    %r9,%rdi
   1800289c8:	49 8b e8             	mov    %r8,%rbp
   1800289cb:	48 8b f1             	mov    %rcx,%rsi
   1800289ce:	41 0f af 41 54       	imul   0x54(%r9),%eax
   1800289d3:	48 89 44 24 68       	mov    %rax,0x68(%rsp)
   1800289d8:	e8 a7 ff ff ff       	call   0x180028984
   1800289dd:	48 83 7f 18 01       	cmpq   $0x1,0x18(%rdi)
   1800289e2:	75 06                	jne    0x1800289ea
   1800289e4:	48 8b 5f 30          	mov    0x30(%rdi),%rbx
   1800289e8:	eb 04                	jmp    0x1800289ee
   1800289ea:	48 8b 5f 20          	mov    0x20(%rdi),%rbx
   1800289ee:	48 8b 05 63 34 02 00 	mov    0x23463(%rip),%rax        # 0x18004be58
   1800289f5:	41 b8 5c 00 00 00    	mov    $0x5c,%r8d
   1800289fb:	48 8b d7             	mov    %rdi,%rdx
   1800289fe:	48 8b cd             	mov    %rbp,%rcx
   180028a01:	48 ff c3             	inc    %rbx
   180028a04:	ff 90 60 01 00 00    	call   *0x160(%rax)
   180028a0a:	48 8b 47 20          	mov    0x20(%rdi),%rax
   180028a0e:	4c 8d 44 24 60       	lea    0x60(%rsp),%r8
   180028a13:	48 89 45 18          	mov    %rax,0x18(%rbp)
   180028a17:	48 8b 47 18          	mov    0x18(%rdi),%rax
   180028a1b:	83 65 58 00          	andl   $0x0,0x58(%rbp)
   180028a1f:	83 65 10 00          	andl   $0x0,0x10(%rbp)
   180028a23:	48 89 5d 48          	mov    %rbx,0x48(%rbp)
   180028a27:	48 8b 5c 24 68       	mov    0x68(%rsp),%rbx
   180028a2c:	48 89 45 20          	mov    %rax,0x20(%rbp)
   180028a30:	48 8b 05 21 34 02 00 	mov    0x23421(%rip),%rax        # 0x18004be58
   180028a37:	48 8b d3             	mov    %rbx,%rdx
   180028a3a:	b9 04 00 00 00       	mov    $0x4,%ecx
   180028a3f:	ff 50 40             	call   *0x40(%rax)
   180028a42:	48 8b 05 0f 34 02 00 	mov    0x2340f(%rip),%rax        # 0x18004be58
   180028a49:	48 8b 4c 24 60       	mov    0x60(%rsp),%rcx
   180028a4e:	45 33 c0             	xor    %r8d,%r8d
   180028a51:	48 8b d3             	mov    %rbx,%rdx
   180028a54:	ff 90 68 01 00 00    	call   *0x168(%rax)
   180028a5a:	48 8b 4e 08          	mov    0x8(%rsi),%rcx
   180028a5e:	48 8b 44 24 60       	mov    0x60(%rsp),%rax
   180028a63:	8b 11                	mov    (%rcx),%edx
   180028a65:	4c 8b 47 48          	mov    0x48(%rdi),%r8
   180028a69:	4c 8b cb             	mov    %rbx,%r9
   180028a6c:	48 8b ce             	mov    %rsi,%rcx
   180028a6f:	48 89 44 24 20       	mov    %rax,0x20(%rsp)
   180028a74:	ff 56 18             	call   *0x18(%rsi)
   180028a77:	8b 57 50             	mov    0x50(%rdi),%edx
   180028a7a:	48 8b 05 d7 33 02 00 	mov    0x233d7(%rip),%rax        # 0x18004be58
   180028a81:	0f af 57 54          	imul   0x54(%rdi),%edx
   180028a85:	48 8b 4c 24 60       	mov    0x60(%rsp),%rcx
   180028a8a:	4c 8d 44 24 50       	lea    0x50(%rsp),%r8
   180028a8f:	ff 90 58 01 00 00    	call   *0x158(%rax)
   180028a95:	44 8b 5c 24 50       	mov    0x50(%rsp),%r11d
   180028a9a:	4c 8d 44 24 50       	lea    0x50(%rsp),%r8
   180028a9f:	44 89 5d 58          	mov    %r11d,0x58(%rbp)
   180028aa3:	48 8b 05 ae 33 02 00 	mov    0x233ae(%rip),%rax        # 0x18004be58
   180028aaa:	ba 5c 00 00 00       	mov    $0x5c,%edx
   180028aaf:	48 8b cd             	mov    %rbp,%rcx
   180028ab2:	ff 90 58 01 00 00    	call   *0x158(%rax)
   180028ab8:	44 8b 5c 24 50       	mov    0x50(%rsp),%r11d
   180028abd:	4c 8b 45 18          	mov    0x18(%rbp),%r8
   180028ac1:	44 89 5d 10          	mov    %r11d,0x10(%rbp)
   180028ac5:	48 8b 46 08          	mov    0x8(%rsi),%rax
   180028ac9:	48 8b ce             	mov    %rsi,%rcx
   180028acc:	44 8b 48 0c          	mov    0xc(%rax),%r9d
   180028ad0:	8b 10                	mov    (%rax),%edx
   180028ad2:	48 89 6c 24 20       	mov    %rbp,0x20(%rsp)
   180028ad7:	ff 56 20             	call   *0x20(%rsi)
   180028ada:	4c 8b 5e 08          	mov    0x8(%rsi),%r11
   180028ade:	48 8b 44 24 60       	mov    0x60(%rsp),%rax
   180028ae3:	41 8b 13             	mov    (%r11),%edx
   180028ae6:	4c 8b 45 48          	mov    0x48(%rbp),%r8
   180028aea:	4c 8b cb             	mov    %rbx,%r9
   180028aed:	48 8b ce             	mov    %rsi,%rcx
   180028af0:	48 89 44 24 20       	mov    %rax,0x20(%rsp)
   180028af5:	ff 56 20             	call   *0x20(%rsi)
   180028af8:	48 8b 05 59 33 02 00 	mov    0x23359(%rip),%rax        # 0x18004be58
   180028aff:	48 8b 4c 24 60       	mov    0x60(%rsp),%rcx
   180028b04:	ff 50 48             	call   *0x48(%rax)
   180028b07:	48 8b 5c 24 58       	mov    0x58(%rsp),%rbx
   180028b0c:	48 83 c4 30          	add    $0x30,%rsp
   180028b10:	5f                   	pop    %rdi
   180028b11:	5e                   	pop    %rsi
   180028b12:	5d                   	pop    %rbp
   180028b13:	c3                   	ret
   180028b14:	48 89 5c 24 08       	mov    %rbx,0x8(%rsp)
   180028b19:	55                   	push   %rbp
   180028b1a:	56                   	push   %rsi
   180028b1b:	57                   	push   %rdi
   180028b1c:	48 83 ec 40          	sub    $0x40,%rsp
   180028b20:	8b 72 10             	mov    0x10(%rdx),%esi
   180028b23:	83 62 10 00          	andl   $0x0,0x10(%rdx)
   180028b27:	48 8b 05 2a 33 02 00 	mov    0x2332a(%rip),%rax        # 0x18004be58
   180028b2e:	48 8b da             	mov    %rdx,%rbx
   180028b31:	49 8b f8             	mov    %r8,%rdi
   180028b34:	48 8b e9             	mov    %rcx,%rbp
   180028b37:	4c 8d 44 24 68       	lea    0x68(%rsp),%r8
   180028b3c:	ba 5c 00 00 00       	mov    $0x5c,%edx
   180028b41:	48 8b cb             	mov    %rbx,%rcx
   180028b44:	ff 90 58 01 00 00    	call   *0x158(%rax)
   180028b4a:	44 8b 5c 24 68       	mov    0x68(%rsp),%r11d
   180028b4f:	48 8d 0d d2 e4 01 00 	lea    0x1e4d2(%rip),%rcx        # 0x180047028
   180028b56:	41 b8 08 00 00 00    	mov    $0x8,%r8d
   180028b5c:	48 8b d3             	mov    %rbx,%rdx
   180028b5f:	44 89 5b 10          	mov    %r11d,0x10(%rbx)
   180028b63:	e8 1c ea fd ff       	call   0x180007584
   180028b68:	48 85 c0             	test   %rax,%rax
   180028b6b:	0f 85 cd 00 00 00    	jne    0x180028c3e
   180028b71:	3b 74 24 68          	cmp    0x68(%rsp),%esi
   180028b75:	0f 85 c3 00 00 00    	jne    0x180028c3e
   180028b7b:	48 39 7b 18          	cmp    %rdi,0x18(%rbx)
   180028b7f:	0f 85 b9 00 00 00    	jne    0x180028c3e
   180028b85:	8b 43 50             	mov    0x50(%rbx),%eax
   180028b88:	48 8d 54 24 78       	lea    0x78(%rsp),%rdx
   180028b8d:	48 8b cd             	mov    %rbp,%rcx
   180028b90:	0f af 43 54          	imul   0x54(%rbx),%eax
   180028b94:	48 89 44 24 78       	mov    %rax,0x78(%rsp)
   180028b99:	e8 e6 fd ff ff       	call   0x180028984
   180028b9e:	48 8b 05 b3 32 02 00 	mov    0x232b3(%rip),%rax        # 0x18004be58
   180028ba5:	48 8b 54 24 78       	mov    0x78(%rsp),%rdx
   180028baa:	4c 8d 44 24 30       	lea    0x30(%rsp),%r8
   180028baf:	b9 04 00 00 00       	mov    $0x4,%ecx
   180028bb4:	ff 50 40             	call   *0x40(%rax)
   180028bb7:	48 b9 00 00 00 00 00 	movabs $0x8000000000000000,%rcx
   180028bbe:	00 00 80
   180028bc1:	48 85 c1             	test   %rax,%rcx
   180028bc4:	74 0c                	je     0x180028bd2
   180028bc6:	48 b8 09 00 00 00 00 	movabs $0x8000000000000009,%rax
   180028bcd:	00 00 80
   180028bd0:	eb 76                	jmp    0x180028c48
   180028bd2:	48 8b 4d 08          	mov    0x8(%rbp),%rcx
   180028bd6:	48 8b 44 24 30       	mov    0x30(%rsp),%rax
   180028bdb:	4c 8b 4c 24 78       	mov    0x78(%rsp),%r9
   180028be0:	8b 11                	mov    (%rcx),%edx
   180028be2:	4c 8b 43 48          	mov    0x48(%rbx),%r8
   180028be6:	48 8b cd             	mov    %rbp,%rcx
   180028be9:	48 89 44 24 20       	mov    %rax,0x20(%rsp)
   180028bee:	ff 55 18             	call   *0x18(%rbp)
   180028bf1:	8b 53 50             	mov    0x50(%rbx),%edx
   180028bf4:	0f af 53 54          	imul   0x54(%rbx),%edx
   180028bf8:	48 8b 05 59 32 02 00 	mov    0x23259(%rip),%rax        # 0x18004be58
   180028bff:	48 8b 4c 24 30       	mov    0x30(%rsp),%rcx
   180028c04:	4c 8d 44 24 68       	lea    0x68(%rsp),%r8
   180028c09:	ff 90 58 01 00 00    	call   *0x158(%rax)
   180028c0f:	48 8b 4c 24 30       	mov    0x30(%rsp),%rcx
   180028c14:	48 85 c9             	test   %rcx,%rcx
   180028c17:	74 0a                	je     0x180028c23
   180028c19:	48 8b 05 38 32 02 00 	mov    0x23238(%rip),%rax        # 0x18004be58
   180028c20:	ff 50 48             	call   *0x48(%rax)
   180028c23:	8b 44 24 68          	mov    0x68(%rsp),%eax
   180028c27:	48 b9 02 00 00 00 00 	movabs $0x8000000000000002,%rcx
   180028c2e:	00 00 80
   180028c31:	2b 43 58             	sub    0x58(%rbx),%eax
   180028c34:	f7 d8                	neg    %eax
   180028c36:	48 1b c0             	sbb    %rax,%rax
   180028c39:	48 23 c1             	and    %rcx,%rax
   180028c3c:	eb 0a                	jmp    0x180028c48
   180028c3e:	48 b8 02 00 00 00 00 	movabs $0x8000000000000002,%rax
   180028c45:	00 00 80
   180028c48:	48 8b 5c 24 60       	mov    0x60(%rsp),%rbx
   180028c4d:	48 83 c4 40          	add    $0x40,%rsp
   180028c51:	5f                   	pop    %rdi
   180028c52:	5e                   	pop    %rsi
   180028c53:	5d                   	pop    %rbp
   180028c54:	c3                   	ret
   180028c55:	cc                   	int3
   180028c56:	cc                   	int3
   180028c57:	cc                   	int3
   180028c58:	4c 8b dc             	mov    %rsp,%r11
   180028c5b:	49 89 5b 10          	mov    %rbx,0x10(%r11)
   180028c5f:	49 89 6b 18          	mov    %rbp,0x18(%r11)
   180028c63:	56                   	push   %rsi
   180028c64:	57                   	push   %rdi
   180028c65:	41 54                	push   %r12
   180028c67:	41 55                	push   %r13
   180028c69:	41 56                	push   %r14
   180028c6b:	48 83 ec 40          	sub    $0x40,%rsp
   180028c6f:	48 8b 41 08          	mov    0x8(%rcx),%rax
   180028c73:	33 db                	xor    %ebx,%ebx
   180028c75:	4c 8b e2             	mov    %rdx,%r12
   180028c78:	49 89 5b 08          	mov    %rbx,0x8(%r11)
   180028c7c:	49 89 5b 20          	mov    %rbx,0x20(%r11)
   180028c80:	49 89 5b c8          	mov    %rbx,-0x38(%r11)
   180028c84:	8b 50 0c             	mov    0xc(%rax),%edx
   180028c87:	48 8b 05 ca 31 02 00 	mov    0x231ca(%rip),%rax        # 0x18004be58
   180028c8e:	4d 8b e8             	mov    %r8,%r13
   180028c91:	48 8b f9             	mov    %rcx,%rdi
   180028c94:	4d 8d 43 c8          	lea    -0x38(%r11),%r8
   180028c98:	8d 4b 04             	lea    0x4(%rbx),%ecx
   180028c9b:	40 8a eb             	mov    %bl,%bpl
   180028c9e:	ff 50 40             	call   *0x40(%rax)
   180028ca1:	49 be 00 00 00 00 00 	movabs $0x8000000000000000,%r14
   180028ca8:	00 00 80
   180028cab:	49 85 c6             	test   %rax,%r14
   180028cae:	74 0f                	je     0x180028cbf
   180028cb0:	48 b8 09 00 00 00 00 	movabs $0x8000000000000009,%rax
   180028cb7:	00 00 80
   180028cba:	e9 fa 01 00 00       	jmp    0x180028eb9
   180028cbf:	48 8b 4f 08          	mov    0x8(%rdi),%rcx
   180028cc3:	48 8b 44 24 30       	mov    0x30(%rsp),%rax
   180028cc8:	45 33 c0             	xor    %r8d,%r8d
   180028ccb:	44 8b 49 0c          	mov    0xc(%rcx),%r9d
   180028ccf:	8b 11                	mov    (%rcx),%edx
   180028cd1:	48 8b cf             	mov    %rdi,%rcx
   180028cd4:	48 89 44 24 20       	mov    %rax,0x20(%rsp)
   180028cd9:	ff 57 18             	call   *0x18(%rdi)
   180028cdc:	48 8b f0             	mov    %rax,%rsi
   180028cdf:	49 85 c6             	test   %rax,%r14
   180028ce2:	75 7e                	jne    0x180028d62
   180028ce4:	48 8b 44 24 30       	mov    0x30(%rsp),%rax
   180028ce9:	b9 04 00 00 00       	mov    $0x4,%ecx
   180028cee:	48 05 c2 01 00 00    	add    $0x1c2,%rax
   180028cf4:	38 58 fc             	cmp    %bl,-0x4(%rax)
   180028cf7:	75 0e                	jne    0x180028d07
   180028cf9:	80 38 ee             	cmpb   $0xee,(%rax)
   180028cfc:	75 09                	jne    0x180028d07
   180028cfe:	83 78 04 01          	cmpl   $0x1,0x4(%rax)
   180028d02:	75 03                	jne    0x180028d07
   180028d04:	40 fe c5             	inc    %bpl
   180028d07:	48 83 c0 10          	add    $0x10,%rax
   180028d0b:	48 83 e9 01          	sub    $0x1,%rcx
   180028d0f:	75 e3                	jne    0x180028cf4
   180028d11:	40 3a eb             	cmp    %bl,%bpl
   180028d14:	75 0c                	jne    0x180028d22
   180028d16:	48 be 03 00 00 00 00 	movabs $0x8000000000000003,%rsi
   180028d1d:	00 00 80
   180028d20:	eb 40                	jmp    0x180028d62
   180028d22:	48 8d 54 24 38       	lea    0x38(%rsp),%rdx
   180028d27:	bd 5c 00 00 00       	mov    $0x5c,%ebp
   180028d2c:	48 8b cf             	mov    %rdi,%rcx
   180028d2f:	48 89 6c 24 38       	mov    %rbp,0x38(%rsp)
   180028d34:	e8 4b fc ff ff       	call   0x180028984
   180028d39:	48 8b 74 24 38       	mov    0x38(%rsp),%rsi
   180028d3e:	48 8b 05 13 31 02 00 	mov    0x23113(%rip),%rax        # 0x18004be58
   180028d45:	4c 8d 44 24 70       	lea    0x70(%rsp),%r8
   180028d4a:	8d 4d a8             	lea    -0x58(%rbp),%ecx
   180028d4d:	48 8b d6             	mov    %rsi,%rdx
   180028d50:	ff 50 40             	call   *0x40(%rax)
   180028d53:	49 85 c6             	test   %rax,%r14
   180028d56:	74 21                	je     0x180028d79
   180028d58:	48 be 09 00 00 00 00 	movabs $0x8000000000000009,%rsi
   180028d5f:	00 00 80
   180028d62:	48 8b 05 ef 30 02 00 	mov    0x230ef(%rip),%rax        # 0x18004be58
   180028d69:	48 8b 4c 24 30       	mov    0x30(%rsp),%rcx
   180028d6e:	ff 50 48             	call   *0x48(%rax)
   180028d71:	48 8b c6             	mov    %rsi,%rax
   180028d74:	e9 40 01 00 00       	jmp    0x180028eb9
   180028d79:	48 8b 05 d8 30 02 00 	mov    0x230d8(%rip),%rax        # 0x18004be58
   180028d80:	4c 8d 84 24 88 00 00 	lea    0x88(%rsp),%r8
   180028d87:	00
   180028d88:	48 8b d6             	mov    %rsi,%rdx
   180028d8b:	b9 04 00 00 00       	mov    $0x4,%ecx
   180028d90:	ff 50 40             	call   *0x40(%rax)
   180028d93:	49 85 c6             	test   %rax,%r14
   180028d96:	74 23                	je     0x180028dbb
   180028d98:	48 8b 05 b9 30 02 00 	mov    0x230b9(%rip),%rax        # 0x18004be58
   180028d9f:	48 8b 4c 24 30       	mov    0x30(%rsp),%rcx
   180028da4:	ff 50 48             	call   *0x48(%rax)
   180028da7:	48 8b 05 aa 30 02 00 	mov    0x230aa(%rip),%rax        # 0x18004be58
   180028dae:	48 8b 4c 24 70       	mov    0x70(%rsp),%rcx
   180028db3:	ff 50 48             	call   *0x48(%rax)
   180028db6:	e9 f5 fe ff ff       	jmp    0x180028cb0
   180028dbb:	48 8b 4f 08          	mov    0x8(%rdi),%rcx
   180028dbf:	48 8b 44 24 70       	mov    0x70(%rsp),%rax
   180028dc4:	4c 8b ce             	mov    %rsi,%r9
   180028dc7:	8b 11                	mov    (%rcx),%edx
   180028dc9:	41 b8 01 00 00 00    	mov    $0x1,%r8d
   180028dcf:	48 8b cf             	mov    %rdi,%rcx
   180028dd2:	48 89 44 24 20       	mov    %rax,0x20(%rsp)
   180028dd7:	ff 57 18             	call   *0x18(%rdi)
   180028dda:	4c 8b 5f 08          	mov    0x8(%rdi),%r11
   180028dde:	48 8b 84 24 88 00 00 	mov    0x88(%rsp),%rax
   180028de5:	00
   180028de6:	4d 8b 43 18          	mov    0x18(%r11),%r8
   180028dea:	41 8b 13             	mov    (%r11),%edx
   180028ded:	4c 8b ce             	mov    %rsi,%r9
   180028df0:	48 8b cf             	mov    %rdi,%rcx
   180028df3:	48 89 44 24 20       	mov    %rax,0x20(%rsp)
   180028df8:	ff 57 18             	call   *0x18(%rdi)
   180028dfb:	48 8b 54 24 70       	mov    0x70(%rsp),%rdx
   180028e00:	41 b8 01 00 00 00    	mov    $0x1,%r8d
   180028e06:	48 8b cf             	mov    %rdi,%rcx
   180028e09:	e8 06 fd ff ff       	call   0x180028b14
   180028e0e:	4c 8b 47 08          	mov    0x8(%rdi),%r8
   180028e12:	48 8b 94 24 88 00 00 	mov    0x88(%rsp),%rdx
   180028e19:	00
   180028e1a:	4d 8b 40 18          	mov    0x18(%r8),%r8
   180028e1e:	48 8b cf             	mov    %rdi,%rcx
   180028e21:	49 85 c6             	test   %rax,%r14
   180028e24:	74 25                	je     0x180028e4b
   180028e26:	e8 e9 fc ff ff       	call   0x180028b14
   180028e2b:	49 85 c6             	test   %rax,%r14
   180028e2e:	74 0c                	je     0x180028e3c
   180028e30:	48 bb 03 00 00 00 00 	movabs $0x8000000000000003,%rbx
   180028e37:	00 00 80
   180028e3a:	eb 4a                	jmp    0x180028e86
   180028e3c:	4c 8b 8c 24 88 00 00 	mov    0x88(%rsp),%r9
   180028e43:	00
   180028e44:	4c 8b 44 24 70       	mov    0x70(%rsp),%r8
   180028e49:	eb 17                	jmp    0x180028e62
   180028e4b:	e8 c4 fc ff ff       	call   0x180028b14
   180028e50:	49 85 c6             	test   %rax,%r14
   180028e53:	74 18                	je     0x180028e6d
   180028e55:	4c 8b 4c 24 70       	mov    0x70(%rsp),%r9
   180028e5a:	4c 8b 84 24 88 00 00 	mov    0x88(%rsp),%r8
   180028e61:	00
   180028e62:	49 8b d4             	mov    %r12,%rdx
   180028e65:	48 8b cf             	mov    %rdi,%rcx
   180028e68:	e8 43 fb ff ff       	call   0x1800289b0
   180028e6d:	4c 8b 0d e4 2f 02 00 	mov    0x22fe4(%rip),%r9        # 0x18004be58
   180028e74:	48 8b 54 24 70       	mov    0x70(%rsp),%rdx
   180028e79:	4c 8b c5             	mov    %rbp,%r8
   180028e7c:	49 8b cd             	mov    %r13,%rcx
   180028e7f:	41 ff 91 60 01 00 00 	call   *0x160(%r9)
   180028e86:	48 8b 15 cb 2f 02 00 	mov    0x22fcb(%rip),%rdx        # 0x18004be58
   180028e8d:	48 8b 4c 24 30       	mov    0x30(%rsp),%rcx
   180028e92:	ff 52 48             	call   *0x48(%rdx)
   180028e95:	48 8b 15 bc 2f 02 00 	mov    0x22fbc(%rip),%rdx        # 0x18004be58
   180028e9c:	48 8b 4c 24 70       	mov    0x70(%rsp),%rcx
   180028ea1:	ff 52 48             	call   *0x48(%rdx)
   180028ea4:	48 8b 15 ad 2f 02 00 	mov    0x22fad(%rip),%rdx        # 0x18004be58
   180028eab:	48 8b 8c 24 88 00 00 	mov    0x88(%rsp),%rcx
   180028eb2:	00
   180028eb3:	ff 52 48             	call   *0x48(%rdx)
   180028eb6:	48 8b c3             	mov    %rbx,%rax
   180028eb9:	4c 8d 5c 24 40       	lea    0x40(%rsp),%r11
   180028ebe:	49 8b 5b 38          	mov    0x38(%r11),%rbx
   180028ec2:	49 8b 6b 40          	mov    0x40(%r11),%rbp
   180028ec6:	49 8b e3             	mov    %r11,%rsp
   180028ec9:	41 5e                	pop    %r14
   180028ecb:	41 5d                	pop    %r13
   180028ecd:	41 5c                	pop    %r12
   180028ecf:	5f                   	pop    %rdi
   180028ed0:	5e                   	pop    %rsi
   180028ed1:	c3                   	ret
   180028ed2:	cc                   	int3
   180028ed3:	cc                   	int3
   180028ed4:	48 8b c4             	mov    %rsp,%rax
   180028ed7:	48 89 58 08          	mov    %rbx,0x8(%rax)
   180028edb:	48 89 68 10          	mov    %rbp,0x10(%rax)
   180028edf:	48 89 70 18          	mov    %rsi,0x18(%rax)
   180028ee3:	48 89 78 20          	mov    %rdi,0x20(%rax)
   180028ee7:	41 54                	push   %r12
   180028ee9:	41 55                	push   %r13
   180028eeb:	41 56                	push   %r14
   180028eed:	48 81 ec 00 01 00 00 	sub    $0x100,%rsp
   180028ef4:	48 8b 05 5d 2f 02 00 	mov    0x22f5d(%rip),%rax        # 0x18004be58
   180028efb:	48 83 64 24 30 00    	andq   $0x0,0x30(%rsp)
   180028f01:	48 83 64 24 38 00    	andq   $0x0,0x38(%rsp)
   180028f07:	48 8b fa             	mov    %rdx,%rdi
   180028f0a:	ba 5c 00 00 00       	mov    $0x5c,%edx
   180028f0f:	49 8b e8             	mov    %r8,%rbp
   180028f12:	8d 72 a8             	lea    -0x58(%rdx),%esi
   180028f15:	4c 8b f1             	mov    %rcx,%r14
   180028f18:	4c 8d 44 24 30       	lea    0x30(%rsp),%r8
   180028f1d:	8b ce                	mov    %esi,%ecx
   180028f1f:	4d 8b e9             	mov    %r9,%r13
   180028f22:	ff 50 40             	call   *0x40(%rax)
   180028f25:	48 bb 00 00 00 00 00 	movabs $0x8000000000000000,%rbx
   180028f2c:	00 00 80
   180028f2f:	48 85 c3             	test   %rax,%rbx
   180028f32:	74 0f                	je     0x180028f43
   180028f34:	48 b8 09 00 00 00 00 	movabs $0x8000000000000009,%rax
   180028f3b:	00 00 80
   180028f3e:	e9 16 02 00 00       	jmp    0x180029159
   180028f43:	4c 8b 44 24 30       	mov    0x30(%rsp),%r8
   180028f48:	48 8b d5             	mov    %rbp,%rdx
   180028f4b:	48 8b cf             	mov    %rdi,%rcx
   180028f4e:	e8 05 fd ff ff       	call   0x180028c58
   180028f53:	48 85 c3             	test   %rax,%rbx
   180028f56:	74 0c                	je     0x180028f64
   180028f58:	48 bb 02 00 00 00 00 	movabs $0x8000000000000002,%rbx
   180028f5f:	00 00 80
   180028f62:	eb 45                	jmp    0x180028fa9
   180028f64:	48 8b 44 24 30       	mov    0x30(%rsp),%rax
   180028f69:	48 8d 54 24 40       	lea    0x40(%rsp),%rdx
   180028f6e:	8b 48 54             	mov    0x54(%rax),%ecx
   180028f71:	0f af 48 50          	imul   0x50(%rax),%ecx
   180028f75:	8b c1                	mov    %ecx,%eax
   180028f77:	48 8b cf             	mov    %rdi,%rcx
   180028f7a:	48 89 44 24 40       	mov    %rax,0x40(%rsp)
   180028f7f:	e8 00 fa ff ff       	call   0x180028984
   180028f84:	48 8b 05 cd 2e 02 00 	mov    0x22ecd(%rip),%rax        # 0x18004be58
   180028f8b:	48 8b 54 24 40       	mov    0x40(%rsp),%rdx
   180028f90:	4c 8d 44 24 38       	lea    0x38(%rsp),%r8
   180028f95:	8b ce                	mov    %esi,%ecx
   180028f97:	ff 50 40             	call   *0x40(%rax)
   180028f9a:	48 85 c3             	test   %rax,%rbx
   180028f9d:	74 21                	je     0x180028fc0
   180028f9f:	48 bb 09 00 00 00 00 	movabs $0x8000000000000009,%rbx
   180028fa6:	00 00 80
   180028fa9:	48 8b 15 a8 2e 02 00 	mov    0x22ea8(%rip),%rdx        # 0x18004be58
   180028fb0:	48 8b 4c 24 30       	mov    0x30(%rsp),%rcx
   180028fb5:	ff 52 48             	call   *0x48(%rdx)
   180028fb8:	48 8b c3             	mov    %rbx,%rax
   180028fbb:	e9 99 01 00 00       	jmp    0x180029159
   180028fc0:	48 8b 4f 08          	mov    0x8(%rdi),%rcx
   180028fc4:	4c 8b 44 24 30       	mov    0x30(%rsp),%r8
   180028fc9:	48 8b 44 24 38       	mov    0x38(%rsp),%rax
   180028fce:	8b 11                	mov    (%rcx),%edx
   180028fd0:	4d 8b 40 48          	mov    0x48(%r8),%r8
   180028fd4:	4c 8b 4c 24 40       	mov    0x40(%rsp),%r9
   180028fd9:	48 8b cf             	mov    %rdi,%rcx
   180028fdc:	48 89 44 24 20       	mov    %rax,0x20(%rsp)
   180028fe1:	ff 57 18             	call   *0x18(%rdi)
   180028fe4:	48 8b 4c 24 30       	mov    0x30(%rsp),%rcx
   180028fe9:	33 f6                	xor    %esi,%esi
   180028feb:	39 71 50             	cmp    %esi,0x50(%rcx)
   180028fee:	0f 86 4a 01 00 00    	jbe    0x18002913e
   180028ff4:	4c 8b a4 24 40 01 00 	mov    0x140(%rsp),%r12
   180028ffb:	00
   180028ffc:	8b 59 54             	mov    0x54(%rcx),%ebx
   180028fff:	48 8d 15 9a 7a 02 00 	lea    0x27a9a(%rip),%rdx        # 0x180050aa0
   180029006:	41 b8 10 00 00 00    	mov    $0x10,%r8d
   18002900c:	48 0f af de          	imul   %rsi,%rbx
   180029010:	48 03 5c 24 38       	add    0x38(%rsp),%rbx
   180029015:	48 8b cb             	mov    %rbx,%rcx
   180029018:	e8 67 e5 fd ff       	call   0x180007584
   18002901d:	48 85 c0             	test   %rax,%rax
   180029020:	0f 84 04 01 00 00    	je     0x18002912a
   180029026:	f6 43 30 02          	testb  $0x2,0x30(%rbx)
   18002902a:	0f 85 fa 00 00 00    	jne    0x18002912a
   180029030:	48 8b 05 21 2e 02 00 	mov    0x22e21(%rip),%rax        # 0x18004be58
   180029037:	45 33 c0             	xor    %r8d,%r8d
   18002903a:	48 8d 8c 24 80 00 00 	lea    0x80(%rsp),%rcx
   180029041:	00
   180029042:	41 8d 50 78          	lea    0x78(%r8),%edx
   180029046:	ff 90 68 01 00 00    	call   *0x168(%rax)
   18002904c:	c6 44 24 48 04       	movb   $0x4,0x48(%rsp)
   180029051:	c6 44 24 49 01       	movb   $0x1,0x49(%rsp)
   180029056:	b8 2a 00 00 00       	mov    $0x2a,%eax
   18002905b:	48 8d 53 10          	lea    0x10(%rbx),%rdx
   18002905f:	48 8d 4c 24 60       	lea    0x60(%rsp),%rcx
   180029064:	66 89 44 24 4a       	mov    %ax,0x4a(%rsp)
   180029069:	8d 46 01             	lea    0x1(%rsi),%eax
   18002906c:	41 b8 10 00 00 00    	mov    $0x10,%r8d
   180029072:	89 44 24 4c          	mov    %eax,0x4c(%rsp)
   180029076:	48 8b 43 20          	mov    0x20(%rbx),%rax
   18002907a:	48 89 44 24 50       	mov    %rax,0x50(%rsp)
   18002907f:	48 8b 43 28          	mov    0x28(%rbx),%rax
   180029083:	48 2b 43 20          	sub    0x20(%rbx),%rax
   180029087:	48 ff c0             	inc    %rax
   18002908a:	48 89 44 24 58       	mov    %rax,0x58(%rsp)
   18002908f:	48 8b 05 c2 2d 02 00 	mov    0x22dc2(%rip),%rax        # 0x18004be58
   180029096:	ff 90 60 01 00 00    	call   *0x160(%rax)
   18002909c:	48 8d 54 24 48       	lea    0x48(%rsp),%rdx
   1800290a1:	49 8b cd             	mov    %r13,%rcx
   1800290a4:	c6 44 24 70 02       	movb   $0x2,0x70(%rsp)
   1800290a9:	c6 44 24 71 02       	movb   $0x2,0x71(%rsp)
   1800290ae:	e8 4d fd fd ff       	call   0x180008e00
   1800290b3:	48 83 a4 24 b0 00 00 	andq   $0x0,0xb0(%rsp)
   1800290ba:	00 00
   1800290bc:	48 89 84 24 c8 00 00 	mov    %rax,0xc8(%rsp)
   1800290c3:	00
   1800290c4:	4c 89 a4 24 f0 00 00 	mov    %r12,0xf0(%rsp)
   1800290cb:	00
   1800290cc:	48 89 bc 24 b8 00 00 	mov    %rdi,0xb8(%rsp)
   1800290d3:	00
   1800290d4:	48 89 ac 24 c0 00 00 	mov    %rbp,0xc0(%rsp)
   1800290db:	00
   1800290dc:	48 8b 43 20          	mov    0x20(%rbx),%rax
   1800290e0:	48 89 84 24 d0 00 00 	mov    %rax,0xd0(%rsp)
   1800290e7:	00
   1800290e8:	48 8b 43 28          	mov    0x28(%rbx),%rax
   1800290ec:	48 8d 8c 24 e0 00 00 	lea    0xe0(%rsp),%rcx
   1800290f3:	00
   1800290f4:	48 89 84 24 d8 00 00 	mov    %rax,0xd8(%rsp)
   1800290fb:	00
   1800290fc:	48 8b 05 55 2d 02 00 	mov    0x22d55(%rip),%rax        # 0x18004be58
   180029103:	41 b8 10 00 00 00    	mov    $0x10,%r8d
   180029109:	48 8b d3             	mov    %rbx,%rdx
   18002910c:	ff 90 60 01 00 00    	call   *0x160(%rax)
   180029112:	4c 8b 5f 08          	mov    0x8(%rdi),%r11
   180029116:	48 8d 94 24 80 00 00 	lea    0x80(%rsp),%rdx
   18002911d:	00
   18002911e:	45 8b 43 0c          	mov    0xc(%r11),%r8d
   180029122:	49 8b ce             	mov    %r14,%rcx
   180029125:	e8 9e 1d fe ff       	call   0x18000aec8
   18002912a:	48 8b 4c 24 30       	mov    0x30(%rsp),%rcx
   18002912f:	48 ff c6             	inc    %rsi
   180029132:	8b 41 50             	mov    0x50(%rcx),%eax
   180029135:	48 3b f0             	cmp    %rax,%rsi
   180029138:	0f 82 be fe ff ff    	jb     0x180028ffc
   18002913e:	48 8b 05 13 2d 02 00 	mov    0x22d13(%rip),%rax        # 0x18004be58
   180029145:	ff 50 48             	call   *0x48(%rax)
   180029148:	48 8b 05 09 2d 02 00 	mov    0x22d09(%rip),%rax        # 0x18004be58
   18002914f:	48 8b 4c 24 38       	mov    0x38(%rsp),%rcx
   180029154:	ff 50 48             	call   *0x48(%rax)
   180029157:	33 c0                	xor    %eax,%eax
   180029159:	4c 8d 9c 24 00 01 00 	lea    0x100(%rsp),%r11
   180029160:	00
   180029161:	49 8b 5b 20          	mov    0x20(%r11),%rbx
   180029165:	49 8b 6b 28          	mov    0x28(%r11),%rbp
   180029169:	49 8b 73 30          	mov    0x30(%r11),%rsi
   18002916d:	49 8b 7b 38          	mov    0x38(%r11),%rdi
   180029171:	49 8b e3             	mov    %r11,%rsp
   180029174:	41 5e                	pop    %r14
   180029176:	41 5d                	pop    %r13
   180029178:	41 5c                	pop    %r12
   18002917a:	c3                   	ret
   18002917b:	cc                   	int3
   18002917c:	48 89 5c 24 08       	mov    %rbx,0x8(%rsp)
   180029181:	57                   	push   %rdi
   180029182:	48 83 ec 20          	sub    $0x20,%rsp
   180029186:	48 63 05 ab 7b 02 00 	movslq 0x27bab(%rip),%rax        # 0x180050d38
   18002918d:	4c 8b 05 8c 7b 02 00 	mov    0x27b8c(%rip),%r8        # 0x180050d20
   180029194:	48 8b 15 75 7b 02 00 	mov    0x27b75(%rip),%rdx        # 0x180050d10
   18002919b:	4c 8d 0c 00          	lea    (%rax,%rax,1),%r9
   18002919f:	48 8b 05 82 7b 02 00 	mov    0x27b82(%rip),%rax        # 0x180050d28
   1800291a6:	49 8b d8             	mov    %r8,%rbx
   1800291a9:	49 2b d9             	sub    %r9,%rbx
   1800291ac:	4c 2b c3             	sub    %rbx,%r8
   1800291af:	48 8b cb             	mov    %rbx,%rcx
   1800291b2:	48 2b ca             	sub    %rdx,%rcx
   1800291b5:	49 d1 f8             	sar    %r8
   1800291b8:	48 d1 f9             	sar    %rcx
   1800291bb:	4d 03 c0             	add    %r8,%r8
   1800291be:	48 8d 3c 88          	lea    (%rax,%rcx,4),%rdi
   1800291c2:	48 8b 05 f7 77 02 00 	mov    0x277f7(%rip),%rax        # 0x1800509c0
   1800291c9:	49 8d 0c 11          	lea    (%r9,%rdx,1),%rcx
   1800291cd:	ff 90 60 01 00 00    	call   *0x160(%rax)
   1800291d3:	45 33 db             	xor    %r11d,%r11d
   1800291d6:	44 39 1d 5b 7b 02 00 	cmp    %r11d,0x27b5b(%rip)        # 0x180050d38
   1800291dd:	7e 24                	jle    0x180029203
   1800291df:	b8 20 00 00 00       	mov    $0x20,%eax
   1800291e4:	41 ff c3             	inc    %r11d
   1800291e7:	66 89 03             	mov    %ax,(%rbx)
   1800291ea:	8b 05 d8 4c 02 00    	mov    0x24cd8(%rip),%eax        # 0x18004dec8
   1800291f0:	48 83 c3 02          	add    $0x2,%rbx
   1800291f4:	89 07                	mov    %eax,(%rdi)
   1800291f6:	48 83 c7 04          	add    $0x4,%rdi
   1800291fa:	44 3b 1d 37 7b 02 00 	cmp    0x27b37(%rip),%r11d        # 0x180050d38
   180029201:	7c dc                	jl     0x1800291df
   180029203:	48 8b 5c 24 30       	mov    0x30(%rsp),%rbx
   180029208:	48 83 c4 20          	add    $0x20,%rsp
   18002920c:	5f                   	pop    %rdi
   18002920d:	c3                   	ret
   18002920e:	cc                   	int3
   18002920f:	cc                   	int3
   180029210:	48 89 5c 24 08       	mov    %rbx,0x8(%rsp)
   180029215:	48 89 6c 24 10       	mov    %rbp,0x10(%rsp)
   18002921a:	48 89 74 24 18       	mov    %rsi,0x18(%rsp)
   18002921f:	57                   	push   %rdi
   180029220:	48 83 ec 20          	sub    $0x20,%rsp
   180029224:	8b 05 0e 7b 02 00    	mov    0x27b0e(%rip),%eax        # 0x180050d38
   18002922a:	48 63 3d 9b 4c 02 00 	movslq 0x24c9b(%rip),%rdi        # 0x18004decc
   180029231:	c6 05 9d 4c 02 00 00 	movb   $0x0,0x24c9d(%rip)        # 0x18004ded5
   180029238:	0f af 05 91 4c 02 00 	imul   0x24c91(%rip),%eax        # 0x18004ded0
   18002923f:	0f b7 0a             	movzwl (%rdx),%ecx
   180029242:	4c 63 c0             	movslq %eax,%r8
   180029245:	48 8b 05 c4 7a 02 00 	mov    0x27ac4(%rip),%rax        # 0x180050d10
   18002924c:	4c 03 c7             	add    %rdi,%r8
   18002924f:	48 8b ea             	mov    %rdx,%rbp
   180029252:	4a 8d 1c 40          	lea    (%rax,%r8,2),%rbx
   180029256:	48 8b 05 cb 7a 02 00 	mov    0x27acb(%rip),%rax        # 0x180050d28
   18002925d:	4a 8d 34 80          	lea    (%rax,%r8,4),%rsi
   180029261:	e9 a7 00 00 00       	jmp    0x18002930d
   180029266:	83 f8 08             	cmp    $0x8,%eax
   180029269:	0f 84 88 00 00 00    	je     0x1800292f7
   18002926f:	83 f8 0a             	cmp    $0xa,%eax
   180029272:	74 5f                	je     0x1800292d3
   180029274:	83 f8 0d             	cmp    $0xd,%eax
   180029277:	74 42                	je     0x1800292bb
   180029279:	48 8d 43 02          	lea    0x2(%rbx),%rax
   18002927d:	48 3b 05 9c 7a 02 00 	cmp    0x27a9c(%rip),%rax        # 0x180050d20
   180029284:	75 17                	jne    0x18002929d
   180029286:	e8 f1 fe ff ff       	call   0x18002917c
   18002928b:	4c 63 df             	movslq %edi,%r11
   18002928e:	49 8b c3             	mov    %r11,%rax
   180029291:	48 f7 d8             	neg    %rax
   180029294:	49 f7 db             	neg    %r11
   180029297:	4a 8d 34 9e          	lea    (%rsi,%r11,4),%rsi
   18002929b:	eb 2e                	jmp    0x1800292cb
   18002929d:	66 89 0b             	mov    %cx,(%rbx)
   1800292a0:	48 8b d8             	mov    %rax,%rbx
   1800292a3:	8b 05 1f 4c 02 00    	mov    0x24c1f(%rip),%eax        # 0x18004dec8
   1800292a9:	89 06                	mov    %eax,(%rsi)
   1800292ab:	ff c7                	inc    %edi
   1800292ad:	48 83 c6 04          	add    $0x4,%rsi
   1800292b1:	3b 3d 81 7a 02 00    	cmp    0x27a81(%rip),%edi        # 0x180050d38
   1800292b7:	7c 4c                	jl     0x180029305
   1800292b9:	eb 14                	jmp    0x1800292cf
   1800292bb:	48 63 cf             	movslq %edi,%rcx
   1800292be:	48 8b c1             	mov    %rcx,%rax
   1800292c1:	48 f7 d8             	neg    %rax
   1800292c4:	48 f7 d9             	neg    %rcx
   1800292c7:	48 8d 34 8e          	lea    (%rsi,%rcx,4),%rsi
   1800292cb:	48 8d 1c 43          	lea    (%rbx,%rax,2),%rbx
   1800292cf:	33 ff                	xor    %edi,%edi
   1800292d1:	eb 32                	jmp    0x180029305
   1800292d3:	48 63 05 5e 7a 02 00 	movslq 0x27a5e(%rip),%rax        # 0x180050d38
   1800292da:	48 8d 0c 43          	lea    (%rbx,%rax,2),%rcx
   1800292de:	48 3b 0d 3b 7a 02 00 	cmp    0x27a3b(%rip),%rcx        # 0x180050d20
   1800292e5:	72 07                	jb     0x1800292ee
   1800292e7:	e8 90 fe ff ff       	call   0x18002917c
   1800292ec:	eb 17                	jmp    0x180029305
   1800292ee:	48 8b d9             	mov    %rcx,%rbx
   1800292f1:	48 8d 34 86          	lea    (%rsi,%rax,4),%rsi
   1800292f5:	eb 0e                	jmp    0x180029305
   1800292f7:	85 ff                	test   %edi,%edi
   1800292f9:	74 0a                	je     0x180029305
   1800292fb:	48 83 eb 02          	sub    $0x2,%rbx
   1800292ff:	48 83 ee 04          	sub    $0x4,%rsi
   180029303:	ff cf                	dec    %edi
   180029305:	48 83 c5 02          	add    $0x2,%rbp
   180029309:	0f b7 4d 00          	movzwl 0x0(%rbp),%ecx
   18002930d:	8b c1                	mov    %ecx,%eax
   18002930f:	85 c9                	test   %ecx,%ecx
   180029311:	0f 85 4f ff ff ff    	jne    0x180029266
   180029317:	48 8b 5c 24 30       	mov    0x30(%rsp),%rbx
   18002931c:	48 8b 6c 24 38       	mov    0x38(%rsp),%rbp
   180029321:	48 8b 74 24 40       	mov    0x40(%rsp),%rsi
   180029326:	33 c0                	xor    %eax,%eax
   180029328:	48 83 c4 20          	add    $0x20,%rsp
   18002932c:	5f                   	pop    %rdi
   18002932d:	c3                   	ret
   18002932e:	cc                   	int3
   18002932f:	cc                   	int3
   180029330:	48 89 5c 24 08       	mov    %rbx,0x8(%rsp)
   180029335:	48 89 6c 24 10       	mov    %rbp,0x10(%rsp)
   18002933a:	48 89 74 24 18       	mov    %rsi,0x18(%rsp)
   18002933f:	57                   	push   %rdi
   180029340:	41 54                	push   %r12
   180029342:	41 55                	push   %r13
   180029344:	41 56                	push   %r14
   180029346:	41 57                	push   %r15
   180029348:	48 83 ec 20          	sub    $0x20,%rsp
   18002934c:	48 8b 3d bd 79 02 00 	mov    0x279bd(%rip),%rdi        # 0x180050d10
   180029353:	4c 8b 25 ce 79 02 00 	mov    0x279ce(%rip),%r12        # 0x180050d28
   18002935a:	45 33 ff             	xor    %r15d,%r15d
   18002935d:	48 8b f1             	mov    %rcx,%rsi
   180029360:	41 8b ef             	mov    %r15d,%ebp
   180029363:	4c 8b f7             	mov    %rdi,%r14
   180029366:	44 38 3d 68 4b 02 00 	cmp    %r15b,0x24b68(%rip)        # 0x18004ded5
   18002936d:	75 7e                	jne    0x1800293ed
   18002936f:	4d 63 2c 24          	movslq (%r12),%r13
   180029373:	45 33 c0             	xor    %r8d,%r8d
   180029376:	33 d2                	xor    %edx,%edx
   180029378:	ff 56 38             	call   *0x38(%rsi)
   18002937b:	49 8b d5             	mov    %r13,%rdx
   18002937e:	48 8b ce             	mov    %rsi,%rcx
   180029381:	ff 56 28             	call   *0x28(%rsi)
   180029384:	eb 48                	jmp    0x1800293ce
   180029386:	3b 2d ac 79 02 00    	cmp    0x279ac(%rip),%ebp        # 0x180050d38
   18002938c:	74 06                	je     0x180029394
   18002938e:	45 39 2c 24          	cmp    %r13d,(%r12)
   180029392:	74 29                	je     0x1800293bd
   180029394:	0f b7 1f             	movzwl (%rdi),%ebx
   180029397:	49 8b d6             	mov    %r14,%rdx
   18002939a:	48 8b ce             	mov    %rsi,%rcx
   18002939d:	66 44 89 3f          	mov    %r15w,(%rdi)
   1800293a1:	ff 56 08             	call   *0x8(%rsi)
   1800293a4:	66 89 1f             	mov    %bx,(%rdi)
   1800293a7:	4c 8b f7             	mov    %rdi,%r14
   1800293aa:	45 39 2c 24          	cmp    %r13d,(%r12)
   1800293ae:	74 11                	je     0x1800293c1
   1800293b0:	4d 63 2c 24          	movslq (%r12),%r13
   1800293b4:	48 8b ce             	mov    %rsi,%rcx
   1800293b7:	49 8b d5             	mov    %r13,%rdx
   1800293ba:	ff 56 28             	call   *0x28(%rsi)
   1800293bd:	ff c5                	inc    %ebp
   1800293bf:	eb 05                	jmp    0x1800293c6
   1800293c1:	bd 01 00 00 00       	mov    $0x1,%ebp
   1800293c6:	48 83 c7 02          	add    $0x2,%rdi
   1800293ca:	49 83 c4 04          	add    $0x4,%r12
   1800293ce:	48 3b 3d 4b 79 02 00 	cmp    0x2794b(%rip),%rdi        # 0x180050d20
   1800293d5:	72 af                	jb     0x180029386
   1800293d7:	0f b7 5f fe          	movzwl -0x2(%rdi),%ebx
   1800293db:	49 8b d6             	mov    %r14,%rdx
   1800293de:	48 8b ce             	mov    %rsi,%rcx
   1800293e1:	66 44 89 7f fe       	mov    %r15w,-0x2(%rdi)
   1800293e6:	ff 56 08             	call   *0x8(%rsi)
   1800293e9:	66 89 5f fe          	mov    %bx,-0x2(%rdi)
   1800293ed:	48 8b 5c 24 50       	mov    0x50(%rsp),%rbx
   1800293f2:	48 8b 6c 24 58       	mov    0x58(%rsp),%rbp
   1800293f7:	48 8b 74 24 60       	mov    0x60(%rsp),%rsi
   1800293fc:	48 83 c4 20          	add    $0x20,%rsp
   180029400:	41 5f                	pop    %r15
   180029402:	41 5e                	pop    %r14
   180029404:	41 5d                	pop    %r13
   180029406:	41 5c                	pop    %r12
   180029408:	5f                   	pop    %rdi
   180029409:	c3                   	ret
   18002940a:	cc                   	int3
   18002940b:	cc                   	int3
   18002940c:	48 8b 0d fd 78 02 00 	mov    0x278fd(%rip),%rcx        # 0x180050d10
   180029413:	48 8b 15 0e 79 02 00 	mov    0x2790e(%rip),%rdx        # 0x180050d28
   18002941a:	eb 18                	jmp    0x180029434
   18002941c:	b8 20 00 00 00       	mov    $0x20,%eax
   180029421:	66 89 01             	mov    %ax,(%rcx)
   180029424:	8b 05 9e 4a 02 00    	mov    0x24a9e(%rip),%eax        # 0x18004dec8
   18002942a:	48 83 c1 02          	add    $0x2,%rcx
   18002942e:	89 02                	mov    %eax,(%rdx)
   180029430:	48 83 c2 04          	add    $0x4,%rdx
   180029434:	48 3b 0d e5 78 02 00 	cmp    0x278e5(%rip),%rcx        # 0x180050d20
   18002943b:	72 df                	jb     0x18002941c
   18002943d:	c6 05 91 4a 02 00 01 	movb   $0x1,0x24a91(%rip)        # 0x18004ded5
   180029444:	33 c0                	xor    %eax,%eax
   180029446:	c3                   	ret
   180029447:	cc                   	int3
   180029448:	40 53                	rex push %rbx
   18002944a:	48 83 ec 50          	sub    $0x50,%rsp
   18002944e:	48 83 3d ea 78 02 00 	cmpq   $0x0,0x278ea(%rip)        # 0x180050d40
   180029455:	00
   180029456:	48 8b d9             	mov    %rcx,%rbx
   180029459:	74 75                	je     0x1800294d0
   18002945b:	8b 15 47 84 02 00    	mov    0x28447(%rip),%edx        # 0x1800518a8
   180029461:	ff 53 08             	call   *0x8(%rbx)
   180029464:	48 b9 00 00 00 00 00 	movabs $0x8000000000000000,%rcx
   18002946b:	00 00 80
   18002946e:	48 85 c1             	test   %rax,%rcx
   180029471:	75 44                	jne    0x1800294b7
   180029473:	48 83 64 24 48 00    	andq   $0x0,0x48(%rsp)
   180029479:	48 8b 43 18          	mov    0x18(%rbx),%rax
   18002947d:	45 33 c9             	xor    %r9d,%r9d
   180029480:	48 8b 48 08          	mov    0x8(%rax),%rcx
   180029484:	45 8d 41 02          	lea    0x2(%r9),%r8d
   180029488:	8b 51 04             	mov    0x4(%rcx),%edx
   18002948b:	8b 41 08             	mov    0x8(%rcx),%eax
   18002948e:	48 8b cb             	mov    %rbx,%rcx
   180029491:	48 89 44 24 40       	mov    %rax,0x40(%rsp)
   180029496:	48 89 54 24 38       	mov    %rdx,0x38(%rsp)
   18002949b:	48 83 64 24 30 00    	andq   $0x0,0x30(%rsp)
   1800294a1:	48 83 64 24 28 00    	andq   $0x0,0x28(%rsp)
   1800294a7:	48 8b 15 92 78 02 00 	mov    0x27892(%rip),%rdx        # 0x180050d40
   1800294ae:	48 83 64 24 20 00    	andq   $0x0,0x20(%rsp)
   1800294b4:	ff 53 10             	call   *0x10(%rbx)
   1800294b7:	48 8b 05 02 75 02 00 	mov    0x27502(%rip),%rax        # 0x1800509c0
   1800294be:	48 8b 0d 7b 78 02 00 	mov    0x2787b(%rip),%rcx        # 0x180050d40
   1800294c5:	ff 50 48             	call   *0x48(%rax)
   1800294c8:	48 83 25 70 78 02 00 	andq   $0x0,0x27870(%rip)        # 0x180050d40
   1800294cf:	00
   1800294d0:	48 83 c4 50          	add    $0x50,%rsp
   1800294d4:	5b                   	pop    %rbx
   1800294d5:	c3                   	ret
   1800294d6:	cc                   	int3
   1800294d7:	cc                   	int3
   1800294d8:	40 53                	rex push %rbx
   1800294da:	48 83 ec 50          	sub    $0x50,%rsp
   1800294de:	48 8b d9             	mov    %rcx,%rbx
   1800294e1:	48 8b 0d 58 78 02 00 	mov    0x27858(%rip),%rcx        # 0x180050d40
   1800294e8:	48 85 c9             	test   %rcx,%rcx
   1800294eb:	74 0a                	je     0x1800294f7
   1800294ed:	48 8b 05 cc 74 02 00 	mov    0x274cc(%rip),%rax        # 0x1800509c0
   1800294f4:	ff 50 48             	call   *0x48(%rax)
   1800294f7:	48 8b 43 18          	mov    0x18(%rbx),%rax
   1800294fb:	8b 50 04             	mov    0x4(%rax),%edx
   1800294fe:	89 15 a4 83 02 00    	mov    %edx,0x283a4(%rip)        # 0x1800518a8
   180029504:	48 8b 43 18          	mov    0x18(%rbx),%rax
   180029508:	48 8b 48 08          	mov    0x8(%rax),%rcx
   18002950c:	8b 41 08             	mov    0x8(%rcx),%eax
   18002950f:	0f af 41 04          	imul   0x4(%rcx),%eax
   180029513:	8b c8                	mov    %eax,%ecx
   180029515:	48 c1 e1 02          	shl    $0x2,%rcx
   180029519:	e8 42 e5 fd ff       	call   0x180007a60
   18002951e:	48 89 05 1b 78 02 00 	mov    %rax,0x2781b(%rip)        # 0x180050d40
   180029525:	48 85 c0             	test   %rax,%rax
   180029528:	74 69                	je     0x180029593
   18002952a:	48 83 64 24 48 00    	andq   $0x0,0x48(%rsp)
   180029530:	48 8b 4b 18          	mov    0x18(%rbx),%rcx
   180029534:	45 33 c9             	xor    %r9d,%r9d
   180029537:	48 8b 51 08          	mov    0x8(%rcx),%rdx
   18002953b:	8b 4a 08             	mov    0x8(%rdx),%ecx
   18002953e:	44 8b 42 04          	mov    0x4(%rdx),%r8d
   180029542:	48 8b d0             	mov    %rax,%rdx
   180029545:	48 89 4c 24 40       	mov    %rcx,0x40(%rsp)
   18002954a:	4c 89 44 24 38       	mov    %r8,0x38(%rsp)
   18002954f:	48 83 64 24 30 00    	andq   $0x0,0x30(%rsp)
   180029555:	48 83 64 24 28 00    	andq   $0x0,0x28(%rsp)
   18002955b:	48 83 64 24 20 00    	andq   $0x0,0x20(%rsp)
   180029561:	45 8d 41 01          	lea    0x1(%r9),%r8d
   180029565:	48 8b cb             	mov    %rbx,%rcx
   180029568:	ff 53 10             	call   *0x10(%rbx)
   18002956b:	48 b9 00 00 00 00 00 	movabs $0x8000000000000000,%rcx
   180029572:	00 00 80
   180029575:	48 85 c1             	test   %rax,%rcx
   180029578:	74 19                	je     0x180029593
   18002957a:	48 8b 05 3f 74 02 00 	mov    0x2743f(%rip),%rax        # 0x1800509c0
   180029581:	48 8b 0d b8 77 02 00 	mov    0x277b8(%rip),%rcx        # 0x180050d40
   180029588:	ff 50 48             	call   *0x48(%rax)
   18002958b:	48 83 25 ad 77 02 00 	andq   $0x0,0x277ad(%rip)        # 0x180050d40
   180029592:	00
   180029593:	48 83 c4 50          	add    $0x50,%rsp
   180029597:	5b                   	pop    %rbx
   180029598:	c3                   	ret
   180029599:	cc                   	int3
   18002959a:	cc                   	int3
   18002959b:	cc                   	int3
   18002959c:	48 8b c4             	mov    %rsp,%rax
   18002959f:	48 89 58 08          	mov    %rbx,0x8(%rax)
   1800295a3:	48 89 68 18          	mov    %rbp,0x18(%rax)
   1800295a7:	56                   	push   %rsi
   1800295a8:	57                   	push   %rdi
   1800295a9:	41 54                	push   %r12
   1800295ab:	48 83 ec 20          	sub    $0x20,%rsp
   1800295af:	8b 2d 6b 77 02 00    	mov    0x2776b(%rip),%ebp        # 0x180050d20
   1800295b5:	48 8b 15 54 77 02 00 	mov    0x27754(%rip),%rdx        # 0x180050d10
   1800295bc:	33 db                	xor    %ebx,%ebx
   1800295be:	2b ea                	sub    %edx,%ebp
   1800295c0:	4c 8b e1             	mov    %rcx,%r12
   1800295c3:	66 89 58 10          	mov    %bx,0x10(%rax)
   1800295c7:	d1 ed                	shr    %ebp
   1800295c9:	66 89 58 12          	mov    %bx,0x12(%rax)
   1800295cd:	0f 84 80 00 00 00    	je     0x180029653
   1800295d3:	48 8b f3             	mov    %rbx,%rsi
   1800295d6:	48 8b fb             	mov    %rbx,%rdi
   1800295d9:	48 8b 05 38 77 02 00 	mov    0x27738(%rip),%rax        # 0x180050d18
   1800295e0:	44 0f b7 04 17       	movzwl (%rdi,%rdx,1),%r8d
   1800295e5:	66 44 39 04 07       	cmp    %r8w,(%rdi,%rax,1)
   1800295ea:	75 16                	jne    0x180029602
   1800295ec:	48 8b 05 35 77 02 00 	mov    0x27735(%rip),%rax        # 0x180050d28
   1800295f3:	8b 0c 06             	mov    (%rsi,%rax,1),%ecx
   1800295f6:	48 8b 05 33 77 02 00 	mov    0x27733(%rip),%rax        # 0x180050d30
   1800295fd:	39 0c 06             	cmp    %ecx,(%rsi,%rax,1)
   180029600:	74 43                	je     0x180029645
   180029602:	33 d2                	xor    %edx,%edx
   180029604:	8b c3                	mov    %ebx,%eax
   180029606:	66 44 89 44 24 48    	mov    %r8w,0x48(%rsp)
   18002960c:	f7 35 26 77 02 00    	divl   0x27726(%rip)        # 0x180050d38
   180029612:	49 8b cc             	mov    %r12,%rcx
   180029615:	44 8b c0             	mov    %eax,%r8d
   180029618:	41 ff 54 24 38       	call   *0x38(%r12)
   18002961d:	4c 8b 1d 04 77 02 00 	mov    0x27704(%rip),%r11        # 0x180050d28
   180029624:	49 8b cc             	mov    %r12,%rcx
   180029627:	42 0f b6 14 1e       	movzbl (%rsi,%r11,1),%edx
   18002962c:	41 ff 54 24 28       	call   *0x28(%r12)
   180029631:	48 8d 54 24 48       	lea    0x48(%rsp),%rdx
   180029636:	49 8b cc             	mov    %r12,%rcx
   180029639:	41 ff 54 24 08       	call   *0x8(%r12)
   18002963e:	48 8b 15 cb 76 02 00 	mov    0x276cb(%rip),%rdx        # 0x180050d10
   180029645:	ff c3                	inc    %ebx
   180029647:	48 83 c7 02          	add    $0x2,%rdi
   18002964b:	48 83 c6 04          	add    $0x4,%rsi
   18002964f:	3b dd                	cmp    %ebp,%ebx
   180029651:	72 86                	jb     0x1800295d9
   180029653:	48 8b 5c 24 40       	mov    0x40(%rsp),%rbx
   180029658:	48 8b 6c 24 50       	mov    0x50(%rsp),%rbp
   18002965d:	48 83 c4 20          	add    $0x20,%rsp
   180029661:	41 5c                	pop    %r12
   180029663:	5f                   	pop    %rdi
   180029664:	5e                   	pop    %rsi
   180029665:	c3                   	ret
   180029666:	cc                   	int3
   180029667:	cc                   	int3
   180029668:	40 53                	rex push %rbx
   18002966a:	48 83 ec 20          	sub    $0x20,%rsp
   18002966e:	48 8b 05 4b 73 02 00 	mov    0x2734b(%rip),%rax        # 0x1800509c0
   180029675:	48 8b da             	mov    %rdx,%rbx
   180029678:	4c 8d 44 24 38       	lea    0x38(%rsp),%r8
   18002967d:	48 8d 15 ac 48 02 00 	lea    0x248ac(%rip),%rdx        # 0x18004df30
   180029684:	ff 90 98 00 00 00    	call   *0x98(%rax)
   18002968a:	48 b9 00 00 00 00 00 	movabs $0x8000000000000000,%rcx
   180029691:	00 00 80
   180029694:	48 85 c1             	test   %rax,%rcx
   180029697:	74 0a                	je     0x1800296a3
   180029699:	48 8b cb             	mov    %rbx,%rcx
   18002969c:	e8 8f fc ff ff       	call   0x180029330
   1800296a1:	eb 3e                	jmp    0x1800296e1
   1800296a3:	48 8b 4c 24 38       	mov    0x38(%rsp),%rcx
   1800296a8:	e8 9b fd ff ff       	call   0x180029448
   1800296ad:	48 83 3d 63 76 02 00 	cmpq   $0x0,0x27663(%rip)        # 0x180050d18
   1800296b4:	00
   1800296b5:	74 2a                	je     0x1800296e1
   1800296b7:	48 8b cb             	mov    %rbx,%rcx
   1800296ba:	e8 dd fe ff ff       	call   0x18002959c
   1800296bf:	48 8b 05 fa 72 02 00 	mov    0x272fa(%rip),%rax        # 0x1800509c0
   1800296c6:	48 8b 0d 4b 76 02 00 	mov    0x2764b(%rip),%rcx        # 0x180050d18
   1800296cd:	ff 50 48             	call   *0x48(%rax)
   1800296d0:	48 8b 05 e9 72 02 00 	mov    0x272e9(%rip),%rax        # 0x1800509c0
   1800296d7:	48 8b 0d 52 76 02 00 	mov    0x27652(%rip),%rcx        # 0x180050d30
   1800296de:	ff 50 48             	call   *0x48(%rax)
   1800296e1:	48 63 15 e0 47 02 00 	movslq 0x247e0(%rip),%rdx        # 0x18004dec8
   1800296e8:	48 8b cb             	mov    %rbx,%rcx
   1800296eb:	ff 53 28             	call   *0x28(%rbx)
   1800296ee:	8a 15 e0 47 02 00    	mov    0x247e0(%rip),%dl        # 0x18004ded4
   1800296f4:	48 8b cb             	mov    %rbx,%rcx
   1800296f7:	ff 53 40             	call   *0x40(%rbx)
   1800296fa:	4c 63 05 cf 47 02 00 	movslq 0x247cf(%rip),%r8        # 0x18004ded0
   180029701:	48 63 15 c4 47 02 00 	movslq 0x247c4(%rip),%rdx        # 0x18004decc
   180029708:	48 8b cb             	mov    %rbx,%rcx
   18002970b:	ff 53 38             	call   *0x38(%rbx)
   18002970e:	48 83 c4 20          	add    $0x20,%rsp
   180029712:	5b                   	pop    %rbx
   180029713:	c3                   	ret
   180029714:	48 89 5c 24 08       	mov    %rbx,0x8(%rsp)
   180029719:	48 89 74 24 10       	mov    %rsi,0x10(%rsp)
   18002971e:	57                   	push   %rdi
   18002971f:	48 83 ec 20          	sub    $0x20,%rsp
   180029723:	48 8b 05 96 72 02 00 	mov    0x27296(%rip),%rax        # 0x1800509c0
   18002972a:	4c 8d 44 24 40       	lea    0x40(%rsp),%r8
   18002972f:	48 8d 15 fa 47 02 00 	lea    0x247fa(%rip),%rdx        # 0x18004df30
   180029736:	ff 90 98 00 00 00    	call   *0x98(%rax)
   18002973c:	48 b9 00 00 00 00 00 	movabs $0x8000000000000000,%rcx
   180029743:	00 00 80
   180029746:	48 85 c1             	test   %rax,%rcx
   180029749:	0f 85 9a 00 00 00    	jne    0x1800297e9
   18002974f:	8b 05 cb 75 02 00    	mov    0x275cb(%rip),%eax        # 0x180050d20
   180029755:	2b 05 b5 75 02 00    	sub    0x275b5(%rip),%eax        # 0x180050d10
   18002975b:	8b c8                	mov    %eax,%ecx
   18002975d:	8b f0                	mov    %eax,%esi
   18002975f:	8d 1c 00             	lea    (%rax,%rax,1),%ebx
   180029762:	e8 f9 e2 fd ff       	call   0x180007a60
   180029767:	48 89 05 aa 75 02 00 	mov    %rax,0x275aa(%rip)        # 0x180050d18
   18002976e:	48 85 c0             	test   %rax,%rax
   180029771:	74 76                	je     0x1800297e9
   180029773:	8b cb                	mov    %ebx,%ecx
   180029775:	8b fb                	mov    %ebx,%edi
   180029777:	e8 e4 e2 fd ff       	call   0x180007a60
   18002977c:	48 89 05 ad 75 02 00 	mov    %rax,0x275ad(%rip)        # 0x180050d30
   180029783:	48 85 c0             	test   %rax,%rax
   180029786:	48 8b 05 33 72 02 00 	mov    0x27233(%rip),%rax        # 0x1800509c0
   18002978d:	75 0c                	jne    0x18002979b
   18002978f:	48 8b 0d 82 75 02 00 	mov    0x27582(%rip),%rcx        # 0x180050d18
   180029796:	ff 50 48             	call   *0x48(%rax)
   180029799:	eb 4e                	jmp    0x1800297e9
   18002979b:	b9 1f 00 00 00       	mov    $0x1f,%ecx
   1800297a0:	ff 50 18             	call   *0x18(%rax)
   1800297a3:	48 8b 15 66 75 02 00 	mov    0x27566(%rip),%rdx        # 0x180050d10
   1800297aa:	48 8b 0d 67 75 02 00 	mov    0x27567(%rip),%rcx        # 0x180050d18
   1800297b1:	4c 8b c6             	mov    %rsi,%r8
   1800297b4:	48 8b d8             	mov    %rax,%rbx
   1800297b7:	e8 54 03 fe ff       	call   0x180009b10
   1800297bc:	48 8b 15 65 75 02 00 	mov    0x27565(%rip),%rdx        # 0x180050d28
   1800297c3:	48 8b 0d 66 75 02 00 	mov    0x27566(%rip),%rcx        # 0x180050d30
   1800297ca:	4c 8b c7             	mov    %rdi,%r8
   1800297cd:	e8 3e 03 fe ff       	call   0x180009b10
   1800297d2:	48 8b 05 e7 71 02 00 	mov    0x271e7(%rip),%rax        # 0x1800509c0
   1800297d9:	48 8b cb             	mov    %rbx,%rcx
   1800297dc:	ff 50 20             	call   *0x20(%rax)
   1800297df:	48 8b 4c 24 40       	mov    0x40(%rsp),%rcx
   1800297e4:	e8 ef fc ff ff       	call   0x1800294d8
   1800297e9:	48 8b 5c 24 30       	mov    0x30(%rsp),%rbx
   1800297ee:	48 8b 74 24 38       	mov    0x38(%rsp),%rsi
   1800297f3:	48 83 c4 20          	add    $0x20,%rsp
   1800297f7:	5f                   	pop    %rdi
   1800297f8:	c3                   	ret
   1800297f9:	cc                   	int3
   1800297fa:	cc                   	int3
   1800297fb:	cc                   	int3
   1800297fc:	48 83 ec 28          	sub    $0x28,%rsp
   180029800:	48 8b 05 b9 71 02 00 	mov    0x271b9(%rip),%rax        # 0x1800509c0
   180029807:	4c 8d 44 24 38       	lea    0x38(%rsp),%r8
   18002980c:	48 8d 15 1d 47 02 00 	lea    0x2471d(%rip),%rdx        # 0x18004df30
   180029813:	ff 90 98 00 00 00    	call   *0x98(%rax)
   180029819:	48 b9 00 00 00 00 00 	movabs $0x8000000000000000,%rcx
   180029820:	00 00 80
   180029823:	48 85 c1             	test   %rax,%rcx
   180029826:	75 12                	jne    0x18002983a
   180029828:	48 8b 44 24 38       	mov    0x38(%rsp),%rax
   18002982d:	48 8b 48 18          	mov    0x18(%rax),%rcx
   180029831:	8b 41 04             	mov    0x4(%rcx),%eax
   180029834:	89 05 02 75 02 00    	mov    %eax,0x27502(%rip)        # 0x180050d3c
   18002983a:	48 83 c4 28          	add    $0x28,%rsp
   18002983e:	c3                   	ret
   18002983f:	cc                   	int3
   180029840:	48 83 ec 58          	sub    $0x58,%rsp
   180029844:	48 8b 05 75 71 02 00 	mov    0x27175(%rip),%rax        # 0x1800509c0
   18002984b:	4c 8d 44 24 70       	lea    0x70(%rsp),%r8
   180029850:	48 8d 15 d9 46 02 00 	lea    0x246d9(%rip),%rdx        # 0x18004df30
   180029857:	ff 90 98 00 00 00    	call   *0x98(%rax)
   18002985d:	48 b9 00 00 00 00 00 	movabs $0x8000000000000000,%rcx
   180029864:	00 00 80
   180029867:	48 85 c1             	test   %rax,%rcx
   18002986a:	75 6b                	jne    0x1800298d7
   18002986c:	4c 8b 54 24 70       	mov    0x70(%rsp),%r10
   180029871:	8b 15 c5 74 02 00    	mov    0x274c5(%rip),%edx        # 0x180050d3c
   180029877:	49 8b 42 18          	mov    0x18(%r10),%rax
   18002987b:	3b 50 04             	cmp    0x4(%rax),%edx
   18002987e:	74 09                	je     0x180029889
   180029880:	49 8b ca             	mov    %r10,%rcx
   180029883:	41 ff 52 08          	call   *0x8(%r10)
   180029887:	eb 4e                	jmp    0x1800298d7
   180029889:	45 33 c0             	xor    %r8d,%r8d
   18002988c:	45 33 c9             	xor    %r9d,%r9d
   18002988f:	4c 89 44 24 48       	mov    %r8,0x48(%rsp)
   180029894:	44 88 44 24 68       	mov    %r8b,0x68(%rsp)
   180029899:	44 88 44 24 69       	mov    %r8b,0x69(%rsp)
   18002989e:	44 88 44 24 6a       	mov    %r8b,0x6a(%rsp)
   1800298a3:	44 88 44 24 6b       	mov    %r8b,0x6b(%rsp)
   1800298a8:	48 8b 48 08          	mov    0x8(%rax),%rcx
   1800298ac:	8b 51 04             	mov    0x4(%rcx),%edx
   1800298af:	8b 41 08             	mov    0x8(%rcx),%eax
   1800298b2:	49 8b ca             	mov    %r10,%rcx
   1800298b5:	48 89 44 24 40       	mov    %rax,0x40(%rsp)
   1800298ba:	48 89 54 24 38       	mov    %rdx,0x38(%rsp)
   1800298bf:	4c 89 44 24 30       	mov    %r8,0x30(%rsp)
   1800298c4:	4c 89 44 24 28       	mov    %r8,0x28(%rsp)
   1800298c9:	48 8d 54 24 68       	lea    0x68(%rsp),%rdx
   1800298ce:	4c 89 44 24 20       	mov    %r8,0x20(%rsp)
   1800298d3:	41 ff 52 10          	call   *0x10(%r10)
   1800298d7:	48 83 c4 58          	add    $0x58,%rsp
   1800298db:	c3                   	ret
   1800298dc:	48 63 05 dd 45 02 00 	movslq 0x245dd(%rip),%rax        # 0x18004dec0
   1800298e3:	48 3b d0             	cmp    %rax,%rdx
   1800298e6:	73 4e                	jae    0x180029936
   1800298e8:	48 8b 05 19 74 02 00 	mov    0x27419(%rip),%rax        # 0x180050d08
   1800298ef:	48 8d 0c d2          	lea    (%rdx,%rdx,8),%rcx
   1800298f3:	80 7c 01 08 00       	cmpb   $0x0,0x8(%rcx,%rax,1)
   1800298f8:	74 3c                	je     0x180029936
   1800298fa:	48 83 3d a6 a1 12 00 	cmpq   $0x0,0x12a1a6(%rip)        # 0x180153aa8
   180029901:	00
   180029902:	75 19                	jne    0x18002991d
   180029904:	49 c7 00 50 00 00 00 	movq   $0x50,(%r8)
   18002990b:	48 b8 07 00 00 00 00 	movabs $0x8000000000000007,%rax
   180029912:	00 00 80
   180029915:	49 c7 01 19 00 00 00 	movq   $0x19,(%r9)
   18002991c:	c3                   	ret
   18002991d:	48 63 04 01          	movslq (%rcx,%rax,1),%rax
   180029921:	49 89 00             	mov    %rax,(%r8)
   180029924:	48 8b 05 dd 73 02 00 	mov    0x273dd(%rip),%rax        # 0x180050d08
   18002992b:	48 63 4c 01 04       	movslq 0x4(%rcx,%rax,1),%rcx
   180029930:	33 c0                	xor    %eax,%eax
   180029932:	49 89 09             	mov    %rcx,(%r9)
   180029935:	c3                   	ret
   180029936:	48 b8 03 00 00 00 00 	movabs $0x8000000000000003,%rax
   18002993d:	00 00 80
   180029940:	c3                   	ret
   180029941:	cc                   	int3
   180029942:	cc                   	int3
   180029943:	cc                   	int3
   180029944:	48 89 5c 24 08       	mov    %rbx,0x8(%rsp)
   180029949:	48 89 74 24 10       	mov    %rsi,0x10(%rsp)
   18002994e:	57                   	push   %rdi
   18002994f:	48 83 ec 20          	sub    $0x20,%rsp
   180029953:	48 8b 35 4e a1 12 00 	mov    0x12a14e(%rip),%rsi        # 0x180153aa8
   18002995a:	33 db                	xor    %ebx,%ebx
   18002995c:	40 8a fa             	mov    %dl,%dil
   18002995f:	48 85 f6             	test   %rsi,%rsi
   180029962:	75 0c                	jne    0x180029970
   180029964:	48 b8 07 00 00 00 00 	movabs $0x8000000000000007,%rax
   18002996b:	00 00 80
   18002996e:	eb 30                	jmp    0x1800299a0
   180029970:	48 8b 46 10          	mov    0x10(%rsi),%rax
   180029974:	40 8a d7             	mov    %dil,%dl
   180029977:	48 8b c8             	mov    %rax,%rcx
   18002997a:	ff 50 40             	call   *0x40(%rax)
   18002997d:	48 8b 36             	mov    (%rsi),%rsi
   180029980:	48 b9 00 00 00 00 00 	movabs $0x8000000000000000,%rcx
   180029987:	00 00 80
   18002998a:	48 85 c1             	test   %rax,%rcx
   18002998d:	48 0f 45 d8          	cmovne %rax,%rbx
   180029991:	48 85 f6             	test   %rsi,%rsi
   180029994:	75 da                	jne    0x180029970
   180029996:	40 88 3d 37 45 02 00 	mov    %dil,0x24537(%rip)        # 0x18004ded4
   18002999d:	48 8b c3             	mov    %rbx,%rax
   1800299a0:	48 8b 5c 24 30       	mov    0x30(%rsp),%rbx
   1800299a5:	48 8b 74 24 38       	mov    0x38(%rsp),%rsi
   1800299aa:	48 83 c4 20          	add    $0x20,%rsp
   1800299ae:	5f                   	pop    %rdi
   1800299af:	c3                   	ret
   1800299b0:	8b 41 08             	mov    0x8(%rcx),%eax
   1800299b3:	89 05 0f 45 02 00    	mov    %eax,0x2450f(%rip)        # 0x18004dec8
   1800299b9:	44 8b 41 0c          	mov    0xc(%rcx),%r8d
   1800299bd:	48 8b 05 44 73 02 00 	mov    0x27344(%rip),%rax        # 0x180050d08
   1800299c4:	44 89 05 01 45 02 00 	mov    %r8d,0x24501(%rip)        # 0x18004decc
   1800299cb:	8b 51 10             	mov    0x10(%rcx),%edx
   1800299ce:	48 63 0d ef 44 02 00 	movslq 0x244ef(%rip),%rcx        # 0x18004dec4
   1800299d5:	4c 8d 0c c8          	lea    (%rax,%rcx,8),%r9
   1800299d9:	eb 0c                	jmp    0x1800299e7
   1800299db:	44 2b c0             	sub    %eax,%r8d
   1800299de:	ff c2                	inc    %edx
   1800299e0:	44 89 05 e5 44 02 00 	mov    %r8d,0x244e5(%rip)        # 0x18004decc
   1800299e7:	89 15 e3 44 02 00    	mov    %edx,0x244e3(%rip)        # 0x18004ded0
   1800299ed:	42 8b 04 09          	mov    (%rcx,%r9,1),%eax
   1800299f1:	44 3b c0             	cmp    %eax,%r8d
   1800299f4:	7d e5                	jge    0x1800299db
   1800299f6:	42 8b 44 09 04       	mov    0x4(%rcx,%r9,1),%eax
   1800299fb:	3b d0                	cmp    %eax,%edx
   1800299fd:	7c 08                	jl     0x180029a07
   1800299ff:	ff c8                	dec    %eax
   180029a01:	89 05 c9 44 02 00    	mov    %eax,0x244c9(%rip)        # 0x18004ded0
   180029a07:	c3                   	ret
   180029a08:	48 89 5c 24 08       	mov    %rbx,0x8(%rsp)
   180029a0d:	48 89 74 24 10       	mov    %rsi,0x10(%rsp)
   180029a12:	57                   	push   %rdi
   180029a13:	48 83 ec 20          	sub    $0x20,%rsp
   180029a17:	48 8b 3d 8a a0 12 00 	mov    0x12a08a(%rip),%rdi        # 0x180153aa8
   180029a1e:	33 db                	xor    %ebx,%ebx
   180029a20:	40 8a f2             	mov    %dl,%sil
   180029a23:	48 85 ff             	test   %rdi,%rdi
   180029a26:	75 0c                	jne    0x180029a34
   180029a28:	48 b8 07 00 00 00 00 	movabs $0x8000000000000007,%rax
   180029a2f:	00 00 80
   180029a32:	eb 41                	jmp    0x180029a75
   180029a34:	48 8b 47 10          	mov    0x10(%rdi),%rax
   180029a38:	40 8a d6             	mov    %sil,%dl
   180029a3b:	48 8b c8             	mov    %rax,%rcx
   180029a3e:	ff 10                	call   *(%rax)
   180029a40:	48 8b 3f             	mov    (%rdi),%rdi
   180029a43:	48 b9 00 00 00 00 00 	movabs $0x8000000000000000,%rcx
   180029a4a:	00 00 80
   180029a4d:	48 85 c1             	test   %rax,%rcx
   180029a50:	48 0f 45 d8          	cmovne %rax,%rbx
   180029a54:	48 85 ff             	test   %rdi,%rdi
   180029a57:	75 db                	jne    0x180029a34
   180029a59:	48 8b 0d 48 a0 12 00 	mov    0x12a048(%rip),%rcx        # 0x180153aa8
   180029a60:	48 8b 49 10          	mov    0x10(%rcx),%rcx
   180029a64:	48 8b 49 48          	mov    0x48(%rcx),%rcx
   180029a68:	e8 43 ff ff ff       	call   0x1800299b0
   180029a6d:	e8 9a f9 ff ff       	call   0x18002940c
   180029a72:	48 8b c3             	mov    %rbx,%rax
   180029a75:	48 8b 5c 24 30       	mov    0x30(%rsp),%rbx
   180029a7a:	48 8b 74 24 38       	mov    0x38(%rsp),%rsi
   180029a7f:	48 83 c4 20          	add    $0x20,%rsp
   180029a83:	5f                   	pop    %rdi
   180029a84:	c3                   	ret
   180029a85:	cc                   	int3
   180029a86:	cc                   	int3
   180029a87:	cc                   	int3
   180029a88:	48 89 5c 24 08       	mov    %rbx,0x8(%rsp)
   180029a8d:	48 89 74 24 10       	mov    %rsi,0x10(%rsp)
   180029a92:	57                   	push   %rdi
   180029a93:	48 83 ec 20          	sub    $0x20,%rsp
   180029a97:	48 8b 3d 0a a0 12 00 	mov    0x12a00a(%rip),%rdi        # 0x180153aa8
   180029a9e:	48 8b f2             	mov    %rdx,%rsi
   180029aa1:	33 db                	xor    %ebx,%ebx
   180029aa3:	e8 68 f7 ff ff       	call   0x180029210
   180029aa8:	48 85 ff             	test   %rdi,%rdi
   180029aab:	75 0c                	jne    0x180029ab9
   180029aad:	48 b8 07 00 00 00 00 	movabs $0x8000000000000007,%rax
   180029ab4:	00 00 80
   180029ab7:	eb 3d                	jmp    0x180029af6
   180029ab9:	48 8b 47 10          	mov    0x10(%rdi),%rax
   180029abd:	48 8b d6             	mov    %rsi,%rdx
   180029ac0:	48 8b c8             	mov    %rax,%rcx
   180029ac3:	ff 50 08             	call   *0x8(%rax)
   180029ac6:	48 8b 3f             	mov    (%rdi),%rdi
   180029ac9:	48 b9 00 00 00 00 00 	movabs $0x8000000000000000,%rcx
   180029ad0:	00 00 80
   180029ad3:	48 85 c1             	test   %rax,%rcx
   180029ad6:	48 0f 45 d8          	cmovne %rax,%rbx
   180029ada:	48 85 ff             	test   %rdi,%rdi
   180029add:	75 da                	jne    0x180029ab9
   180029adf:	48 8b 0d c2 9f 12 00 	mov    0x129fc2(%rip),%rcx        # 0x180153aa8
   180029ae6:	48 8b 49 10          	mov    0x10(%rcx),%rcx
   180029aea:	48 8b 49 48          	mov    0x48(%rcx),%rcx
   180029aee:	e8 bd fe ff ff       	call   0x1800299b0
   180029af3:	48 8b c3             	mov    %rbx,%rax
   180029af6:	48 8b 5c 24 30       	mov    0x30(%rsp),%rbx
   180029afb:	48 8b 74 24 38       	mov    0x38(%rsp),%rsi
   180029b00:	48 83 c4 20          	add    $0x20,%rsp
   180029b04:	5f                   	pop    %rdi
   180029b05:	c3                   	ret
   180029b06:	cc                   	int3
   180029b07:	cc                   	int3
   180029b08:	48 89 5c 24 08       	mov    %rbx,0x8(%rsp)
   180029b0d:	48 89 74 24 10       	mov    %rsi,0x10(%rsp)
   180029b12:	57                   	push   %rdi
   180029b13:	48 83 ec 20          	sub    $0x20,%rsp
   180029b17:	48 8b 3d 8a 9f 12 00 	mov    0x129f8a(%rip),%rdi        # 0x180153aa8
   180029b1e:	33 db                	xor    %ebx,%ebx
   180029b20:	48 8b f2             	mov    %rdx,%rsi
   180029b23:	48 85 ff             	test   %rdi,%rdi
   180029b26:	75 0c                	jne    0x180029b34
   180029b28:	48 b8 07 00 00 00 00 	movabs $0x8000000000000007,%rax
   180029b2f:	00 00 80
   180029b32:	eb 3d                	jmp    0x180029b71
   180029b34:	48 8b 47 10          	mov    0x10(%rdi),%rax
   180029b38:	48 8b d6             	mov    %rsi,%rdx
   180029b3b:	48 8b c8             	mov    %rax,%rcx
   180029b3e:	ff 50 10             	call   *0x10(%rax)
   180029b41:	48 8b 3f             	mov    (%rdi),%rdi
   180029b44:	48 b9 00 00 00 00 00 	movabs $0x8000000000000000,%rcx
   180029b4b:	00 00 80
   180029b4e:	48 85 c1             	test   %rax,%rcx
   180029b51:	48 0f 45 d8          	cmovne %rax,%rbx
   180029b55:	48 85 ff             	test   %rdi,%rdi
   180029b58:	75 da                	jne    0x180029b34
   180029b5a:	48 8b 0d 47 9f 12 00 	mov    0x129f47(%rip),%rcx        # 0x180153aa8
   180029b61:	48 8b 49 10          	mov    0x10(%rcx),%rcx
   180029b65:	48 8b 49 48          	mov    0x48(%rcx),%rcx
   180029b69:	e8 42 fe ff ff       	call   0x1800299b0
   180029b6e:	48 8b c3             	mov    %rbx,%rax
   180029b71:	48 8b 5c 24 30       	mov    0x30(%rsp),%rbx
   180029b76:	48 8b 74 24 38       	mov    0x38(%rsp),%rsi
   180029b7b:	48 83 c4 20          	add    $0x20,%rsp
   180029b7f:	5f                   	pop    %rdi
   180029b80:	c3                   	ret
   180029b81:	cc                   	int3
   180029b82:	cc                   	int3
   180029b83:	cc                   	int3
   180029b84:	48 89 5c 24 08       	mov    %rbx,0x8(%rsp)
   180029b89:	48 89 6c 24 18       	mov    %rbp,0x18(%rsp)
   180029b8e:	48 89 74 24 20       	mov    %rsi,0x20(%rsp)
   180029b93:	57                   	push   %rdi
   180029b94:	48 83 ec 20          	sub    $0x20,%rsp
   180029b98:	48 63 05 21 43 02 00 	movslq 0x24321(%rip),%rax        # 0x18004dec0
   180029b9f:	48 8b 35 02 9f 12 00 	mov    0x129f02(%rip),%rsi        # 0x180153aa8
   180029ba6:	33 ff                	xor    %edi,%edi
   180029ba8:	48 8b da             	mov    %rdx,%rbx
   180029bab:	48 3b d0             	cmp    %rax,%rdx
   180029bae:	0f 83 8b 00 00 00    	jae    0x180029c3f
   180029bb4:	48 8b 05 4d 71 02 00 	mov    0x2714d(%rip),%rax        # 0x180050d08
   180029bbb:	48 8d 0c d0          	lea    (%rax,%rdx,8),%rcx
   180029bbf:	40 38 7c 0a 08       	cmp    %dil,0x8(%rdx,%rcx,1)
   180029bc4:	74 79                	je     0x180029c3f
   180029bc6:	48 85 f6             	test   %rsi,%rsi
   180029bc9:	75 0c                	jne    0x180029bd7
   180029bcb:	48 b8 07 00 00 00 00 	movabs $0x8000000000000007,%rax
   180029bd2:	00 00 80
   180029bd5:	eb 72                	jmp    0x180029c49
   180029bd7:	8b ca                	mov    %edx,%ecx
   180029bd9:	e8 ca 1b fe ff       	call   0x18000b7a8
   180029bde:	48 bd 00 00 00 00 00 	movabs $0x8000000000000000,%rbp
   180029be5:	00 00 80
   180029be8:	48 85 c5             	test   %rax,%rbp
   180029beb:	75 5c                	jne    0x180029c49
   180029bed:	89 1d d1 42 02 00    	mov    %ebx,0x242d1(%rip)        # 0x18004dec4
   180029bf3:	48 8b 4e 10          	mov    0x10(%rsi),%rcx
   180029bf7:	4c 8d 44 24 38       	lea    0x38(%rsp),%r8
   180029bfc:	48 8b d3             	mov    %rbx,%rdx
   180029bff:	e8 5c 1a fe ff       	call   0x18000b660
   180029c04:	4c 8b 5e 10          	mov    0x10(%rsi),%r11
   180029c08:	48 63 54 24 38       	movslq 0x38(%rsp),%rdx
   180029c0d:	49 8b cb             	mov    %r11,%rcx
   180029c10:	41 ff 53 20          	call   *0x20(%r11)
   180029c14:	48 8b 36             	mov    (%rsi),%rsi
   180029c17:	48 85 c5             	test   %rax,%rbp
   180029c1a:	48 0f 45 f8          	cmovne %rax,%rdi
   180029c1e:	48 85 f6             	test   %rsi,%rsi
   180029c21:	75 d0                	jne    0x180029bf3
   180029c23:	48 8b 0d 7e 9e 12 00 	mov    0x129e7e(%rip),%rcx        # 0x180153aa8
   180029c2a:	48 8b 49 10          	mov    0x10(%rcx),%rcx
   180029c2e:	48 8b 49 48          	mov    0x48(%rcx),%rcx
   180029c32:	e8 79 fd ff ff       	call   0x1800299b0
   180029c37:	48 23 fd             	and    %rbp,%rdi
   180029c3a:	48 8b c7             	mov    %rdi,%rax
   180029c3d:	eb 0a                	jmp    0x180029c49
   180029c3f:	48 b8 03 00 00 00 00 	movabs $0x8000000000000003,%rax
   180029c46:	00 00 80
   180029c49:	48 8b 5c 24 30       	mov    0x30(%rsp),%rbx
   180029c4e:	48 8b 6c 24 40       	mov    0x40(%rsp),%rbp
   180029c53:	48 8b 74 24 48       	mov    0x48(%rsp),%rsi
   180029c58:	48 83 c4 20          	add    $0x20,%rsp
   180029c5c:	5f                   	pop    %rdi
   180029c5d:	c3                   	ret
   180029c5e:	cc                   	int3
   180029c5f:	cc                   	int3
   180029c60:	48 89 5c 24 08       	mov    %rbx,0x8(%rsp)
   180029c65:	48 89 74 24 10       	mov    %rsi,0x10(%rsp)
   180029c6a:	57                   	push   %rdi
   180029c6b:	48 83 ec 20          	sub    $0x20,%rsp
   180029c6f:	48 8b 3d 32 9e 12 00 	mov    0x129e32(%rip),%rdi        # 0x180153aa8
   180029c76:	33 db                	xor    %ebx,%ebx
   180029c78:	48 8b f2             	mov    %rdx,%rsi
   180029c7b:	48 85 ff             	test   %rdi,%rdi
   180029c7e:	75 0c                	jne    0x180029c8c
   180029c80:	48 b8 07 00 00 00 00 	movabs $0x8000000000000007,%rax
   180029c87:	00 00 80
   180029c8a:	eb 3d                	jmp    0x180029cc9
   180029c8c:	48 8b 47 10          	mov    0x10(%rdi),%rax
   180029c90:	48 8b d6             	mov    %rsi,%rdx
   180029c93:	48 8b c8             	mov    %rax,%rcx
   180029c96:	ff 50 28             	call   *0x28(%rax)
   180029c99:	48 8b 3f             	mov    (%rdi),%rdi
   180029c9c:	48 b9 00 00 00 00 00 	movabs $0x8000000000000000,%rcx
   180029ca3:	00 00 80
   180029ca6:	48 85 c1             	test   %rax,%rcx
   180029ca9:	48 0f 45 d8          	cmovne %rax,%rbx
   180029cad:	48 85 ff             	test   %rdi,%rdi
   180029cb0:	75 da                	jne    0x180029c8c
   180029cb2:	48 8b 0d ef 9d 12 00 	mov    0x129def(%rip),%rcx        # 0x180153aa8
   180029cb9:	48 8b 49 10          	mov    0x10(%rcx),%rcx
   180029cbd:	48 8b 49 48          	mov    0x48(%rcx),%rcx
   180029cc1:	e8 ea fc ff ff       	call   0x1800299b0
   180029cc6:	48 8b c3             	mov    %rbx,%rax
   180029cc9:	48 8b 5c 24 30       	mov    0x30(%rsp),%rbx
   180029cce:	48 8b 74 24 38       	mov    0x38(%rsp),%rsi
   180029cd3:	48 83 c4 20          	add    $0x20,%rsp
   180029cd7:	5f                   	pop    %rdi
   180029cd8:	c3                   	ret
   180029cd9:	cc                   	int3
   180029cda:	cc                   	int3
   180029cdb:	cc                   	int3
   180029cdc:	48 89 5c 24 08       	mov    %rbx,0x8(%rsp)
   180029ce1:	57                   	push   %rdi
   180029ce2:	48 83 ec 20          	sub    $0x20,%rsp
   180029ce6:	48 8b 1d bb 9d 12 00 	mov    0x129dbb(%rip),%rbx        # 0x180153aa8
   180029ced:	33 ff                	xor    %edi,%edi
   180029cef:	48 85 db             	test   %rbx,%rbx
   180029cf2:	75 0c                	jne    0x180029d00
   180029cf4:	48 b8 07 00 00 00 00 	movabs $0x8000000000000007,%rax
   180029cfb:	00 00 80
   180029cfe:	eb 3f                	jmp    0x180029d3f
   180029d00:	48 8b 43 10          	mov    0x10(%rbx),%rax
   180029d04:	48 8b c8             	mov    %rax,%rcx
   180029d07:	ff 50 30             	call   *0x30(%rax)
   180029d0a:	48 8b 1b             	mov    (%rbx),%rbx
   180029d0d:	48 b9 00 00 00 00 00 	movabs $0x8000000000000000,%rcx
   180029d14:	00 00 80
   180029d17:	48 85 c1             	test   %rax,%rcx
   180029d1a:	48 0f 45 f8          	cmovne %rax,%rdi
   180029d1e:	48 85 db             	test   %rbx,%rbx
   180029d21:	75 dd                	jne    0x180029d00
   180029d23:	48 8b 0d 7e 9d 12 00 	mov    0x129d7e(%rip),%rcx        # 0x180153aa8
   180029d2a:	48 8b 49 10          	mov    0x10(%rcx),%rcx
   180029d2e:	48 8b 49 48          	mov    0x48(%rcx),%rcx
   180029d32:	e8 79 fc ff ff       	call   0x1800299b0
   180029d37:	e8 d0 f6 ff ff       	call   0x18002940c
   180029d3c:	48 8b c7             	mov    %rdi,%rax
   180029d3f:	48 8b 5c 24 30       	mov    0x30(%rsp),%rbx
   180029d44:	48 83 c4 20          	add    $0x20,%rsp
   180029d48:	5f                   	pop    %rdi
   180029d49:	c3                   	ret
   180029d4a:	cc                   	int3
   180029d4b:	cc                   	int3
   180029d4c:	48 89 5c 24 08       	mov    %rbx,0x8(%rsp)
   180029d51:	48 89 6c 24 10       	mov    %rbp,0x10(%rsp)
   180029d56:	48 89 74 24 18       	mov    %rsi,0x18(%rsp)
   180029d5b:	57                   	push   %rdi
   180029d5c:	48 83 ec 20          	sub    $0x20,%rsp
   180029d60:	48 8b 3d 41 9d 12 00 	mov    0x129d41(%rip),%rdi        # 0x180153aa8
   180029d67:	33 db                	xor    %ebx,%ebx
   180029d69:	49 8b f0             	mov    %r8,%rsi
   180029d6c:	48 8b ea             	mov    %rdx,%rbp
   180029d6f:	48 85 ff             	test   %rdi,%rdi
   180029d72:	75 0c                	jne    0x180029d80
   180029d74:	48 b8 07 00 00 00 00 	movabs $0x8000000000000007,%rax
   180029d7b:	00 00 80
   180029d7e:	eb 40                	jmp    0x180029dc0
   180029d80:	48 8b 47 10          	mov    0x10(%rdi),%rax
   180029d84:	4c 8b c6             	mov    %rsi,%r8
   180029d87:	48 8b d5             	mov    %rbp,%rdx
   180029d8a:	48 8b c8             	mov    %rax,%rcx
   180029d8d:	ff 50 38             	call   *0x38(%rax)
   180029d90:	48 8b 3f             	mov    (%rdi),%rdi
   180029d93:	48 b9 00 00 00 00 00 	movabs $0x8000000000000000,%rcx
   180029d9a:	00 00 80
   180029d9d:	48 85 c1             	test   %rax,%rcx
   180029da0:	48 0f 45 d8          	cmovne %rax,%rbx
   180029da4:	48 85 ff             	test   %rdi,%rdi
   180029da7:	75 d7                	jne    0x180029d80
   180029da9:	48 8b 0d f8 9c 12 00 	mov    0x129cf8(%rip),%rcx        # 0x180153aa8
   180029db0:	48 8b 49 10          	mov    0x10(%rcx),%rcx
   180029db4:	48 8b 49 48          	mov    0x48(%rcx),%rcx
   180029db8:	e8 f3 fb ff ff       	call   0x1800299b0
   180029dbd:	48 8b c3             	mov    %rbx,%rax
   180029dc0:	48 8b 5c 24 30       	mov    0x30(%rsp),%rbx
   180029dc5:	48 8b 6c 24 38       	mov    0x38(%rsp),%rbp
   180029dca:	48 8b 74 24 40       	mov    0x40(%rsp),%rsi
   180029dcf:	48 83 c4 20          	add    $0x20,%rsp
   180029dd3:	5f                   	pop    %rdi
   180029dd4:	c3                   	ret
   180029dd5:	cc                   	int3
   180029dd6:	cc                   	int3
   180029dd7:	cc                   	int3
   180029dd8:	48 89 5c 24 08       	mov    %rbx,0x8(%rsp)
   180029ddd:	48 89 74 24 10       	mov    %rsi,0x10(%rsp)
   180029de2:	57                   	push   %rdi
   180029de3:	48 83 ec 20          	sub    $0x20,%rsp
   180029de7:	33 ff                	xor    %edi,%edi
   180029de9:	40 8a f2             	mov    %dl,%sil
   180029dec:	40 38 3d d7 6c 02 00 	cmp    %dil,0x26cd7(%rip)        # 0x180050aca
   180029df3:	74 0c                	je     0x180029e01
   180029df5:	48 b8 0f 00 00 00 00 	movabs $0x800000000000000f,%rax
   180029dfc:	00 00 80
   180029dff:	eb 40                	jmp    0x180029e41
   180029e01:	48 8b 1d 40 9c 12 00 	mov    0x129c40(%rip),%rbx        # 0x180153a48
   180029e08:	48 85 db             	test   %rbx,%rbx
   180029e0b:	75 0c                	jne    0x180029e19
   180029e0d:	48 b8 07 00 00 00 00 	movabs $0x8000000000000007,%rax
   180029e14:	00 00 80
   180029e17:	eb 28                	jmp    0x180029e41
   180029e19:	48 8b 43 10          	mov    0x10(%rbx),%rax
   180029e1d:	40 8a d6             	mov    %sil,%dl
   180029e20:	48 8b c8             	mov    %rax,%rcx
   180029e23:	ff 10                	call   *(%rax)
   180029e25:	48 8b 1b             	mov    (%rbx),%rbx
   180029e28:	48 b9 00 00 00 00 00 	movabs $0x8000000000000000,%rcx
   180029e2f:	00 00 80
   180029e32:	48 85 c1             	test   %rax,%rcx
   180029e35:	48 0f 45 f8          	cmovne %rax,%rdi
   180029e39:	48 85 db             	test   %rbx,%rbx
   180029e3c:	75 db                	jne    0x180029e19
   180029e3e:	48 8b c7             	mov    %rdi,%rax
   180029e41:	48 8b 5c 24 30       	mov    0x30(%rsp),%rbx
   180029e46:	48 8b 74 24 38       	mov    0x38(%rsp),%rsi
   180029e4b:	48 83 c4 20          	add    $0x20,%rsp
   180029e4f:	5f                   	pop    %rdi
   180029e50:	c3                   	ret
   180029e51:	cc                   	int3
   180029e52:	cc                   	int3
   180029e53:	cc                   	int3
   180029e54:	48 8b c4             	mov    %rsp,%rax
   180029e57:	48 89 58 08          	mov    %rbx,0x8(%rax)
   180029e5b:	48 89 68 10          	mov    %rbp,0x10(%rax)
   180029e5f:	48 89 70 18          	mov    %rsi,0x18(%rax)
   180029e63:	48 89 78 20          	mov    %rdi,0x20(%rax)
   180029e67:	41 54                	push   %r12
   180029e69:	41 55                	push   %r13
   180029e6b:	41 56                	push   %r14
   180029e6d:	48 83 ec 30          	sub    $0x30,%rsp
   180029e71:	45 33 ed             	xor    %r13d,%r13d
   180029e74:	48 8b da             	mov    %rdx,%rbx
   180029e77:	45 8a e5             	mov    %r13b,%r12b
   180029e7a:	41 8a f5             	mov    %r13b,%sil
   180029e7d:	44 38 2d 46 6c 02 00 	cmp    %r13b,0x26c46(%rip)        # 0x180050aca
   180029e84:	74 0f                	je     0x180029e95
   180029e86:	48 b8 0f 00 00 00 00 	movabs $0x800000000000000f,%rax
   180029e8d:	00 00 80
   180029e90:	e9 2d 01 00 00       	jmp    0x180029fc2
   180029e95:	48 8b 3d ac 9b 12 00 	mov    0x129bac(%rip),%rdi        # 0x180153a48
   180029e9c:	49 3b fd             	cmp    %r13,%rdi
   180029e9f:	75 0f                	jne    0x180029eb0
   180029ea1:	48 b8 07 00 00 00 00 	movabs $0x8000000000000007,%rax
   180029ea8:	00 00 80
   180029eab:	e9 12 01 00 00       	jmp    0x180029fc2
   180029eb0:	44 89 2a             	mov    %r13d,(%rdx)
   180029eb3:	44 89 6a 04          	mov    %r13d,0x4(%rdx)
   180029eb7:	44 89 6a 08          	mov    %r13d,0x8(%rdx)
   180029ebb:	44 88 6a 0c          	mov    %r13b,0xc(%rdx)
   180029ebf:	44 88 6a 0d          	mov    %r13b,0xd(%rdx)
   180029ec3:	49 3b fd             	cmp    %r13,%rdi
   180029ec6:	0f 84 d9 00 00 00    	je     0x180029fa5
   180029ecc:	48 bd 07 00 00 00 00 	movabs $0x8000000000000007,%rbp
   180029ed3:	00 00 80
   180029ed6:	41 be 01 00 00 00    	mov    $0x1,%r14d
   180029edc:	48 8b 47 10          	mov    0x10(%rdi),%rax
   180029ee0:	48 8d 54 24 20       	lea    0x20(%rsp),%rdx
   180029ee5:	48 8b c8             	mov    %rax,%rcx
   180029ee8:	ff 50 08             	call   *0x8(%rax)
   180029eeb:	48 b9 00 00 00 00 00 	movabs $0x8000000000000000,%rcx
   180029ef2:	00 00 80
   180029ef5:	48 85 c1             	test   %rax,%rcx
   180029ef8:	0f 85 90 00 00 00    	jne    0x180029f8e
   180029efe:	45 8a e6             	mov    %r14b,%r12b
   180029f01:	44 38 6c 24 2c       	cmp    %r13b,0x2c(%rsp)
   180029f06:	74 04                	je     0x180029f0c
   180029f08:	44 88 73 0c          	mov    %r14b,0xc(%rbx)
   180029f0c:	44 38 6c 24 2d       	cmp    %r13b,0x2d(%rsp)
   180029f11:	74 04                	je     0x180029f17
   180029f13:	44 88 73 0d          	mov    %r14b,0xd(%rbx)
   180029f17:	8b 4c 24 20          	mov    0x20(%rsp),%ecx
   180029f1b:	41 3b cd             	cmp    %r13d,%ecx
   180029f1e:	74 1c                	je     0x180029f3c
   180029f20:	48 8b 47 10          	mov    0x10(%rdi),%rax
   180029f24:	4c 8b 40 18          	mov    0x18(%rax),%r8
   180029f28:	4d 39 28             	cmp    %r13,(%r8)
   180029f2b:	74 0f                	je     0x180029f3c
   180029f2d:	8b 05 0d 40 02 00    	mov    0x2400d(%rip),%eax        # 0x18004df40
   180029f33:	0f af c1             	imul   %ecx,%eax
   180029f36:	99                   	cltd
   180029f37:	41 f7 38             	idivl  (%r8)
   180029f3a:	01 03                	add    %eax,(%rbx)
   180029f3c:	8b 4c 24 24          	mov    0x24(%rsp),%ecx
   180029f40:	41 3b cd             	cmp    %r13d,%ecx
   180029f43:	74 1f                	je     0x180029f64
   180029f45:	48 8b 47 10          	mov    0x10(%rdi),%rax
   180029f49:	4c 8b 40 18          	mov    0x18(%rax),%r8
   180029f4d:	4d 39 68 08          	cmp    %r13,0x8(%r8)
   180029f51:	74 11                	je     0x180029f64
   180029f53:	8b 05 ef 3f 02 00    	mov    0x23fef(%rip),%eax        # 0x18004df48
   180029f59:	0f af c1             	imul   %ecx,%eax
   180029f5c:	99                   	cltd
   180029f5d:	41 f7 78 08          	idivl  0x8(%r8)
   180029f61:	01 43 04             	add    %eax,0x4(%rbx)
   180029f64:	8b 4c 24 28          	mov    0x28(%rsp),%ecx
   180029f68:	41 3b cd             	cmp    %r13d,%ecx
   180029f6b:	74 2c                	je     0x180029f99
   180029f6d:	48 8b 47 10          	mov    0x10(%rdi),%rax
   180029f71:	4c 8b 40 18          	mov    0x18(%rax),%r8
   180029f75:	4d 39 68 10          	cmp    %r13,0x10(%r8)
   180029f79:	74 1e                	je     0x180029f99
   180029f7b:	8b 05 cf 3f 02 00    	mov    0x23fcf(%rip),%eax        # 0x18004df50
   180029f81:	0f af c1             	imul   %ecx,%eax
   180029f84:	99                   	cltd
   180029f85:	41 f7 78 10          	idivl  0x10(%r8)
   180029f89:	01 43 08             	add    %eax,0x8(%rbx)
   180029f8c:	eb 0b                	jmp    0x180029f99
   180029f8e:	40 0f b6 f6          	movzbl %sil,%esi
   180029f92:	48 3b c5             	cmp    %rbp,%rax
   180029f95:	41 0f 44 f6          	cmove  %r14d,%esi
   180029f99:	48 8b 3f             	mov    (%rdi),%rdi
   180029f9c:	49 3b fd             	cmp    %r13,%rdi
   180029f9f:	0f 85 37 ff ff ff    	jne    0x180029edc
   180029fa5:	40 f6 de             	neg    %sil
   180029fa8:	48 b9 06 00 00 00 00 	movabs $0x8000000000000006,%rcx
   180029faf:	00 00 80
   180029fb2:	48 1b c0             	sbb    %rax,%rax
   180029fb5:	48 f7 d8             	neg    %rax
   180029fb8:	48 03 c1             	add    %rcx,%rax
   180029fbb:	45 3a e5             	cmp    %r13b,%r12b
   180029fbe:	49 0f 45 c5          	cmovne %r13,%rax
   180029fc2:	48 8b 5c 24 50       	mov    0x50(%rsp),%rbx
   180029fc7:	48 8b 6c 24 58       	mov    0x58(%rsp),%rbp
   180029fcc:	48 8b 74 24 60       	mov    0x60(%rsp),%rsi
   180029fd1:	48 8b 7c 24 68       	mov    0x68(%rsp),%rdi
   180029fd6:	48 83 c4 30          	add    $0x30,%rsp
   180029fda:	41 5e                	pop    %r14
   180029fdc:	41 5d                	pop    %r13
   180029fde:	41 5c                	pop    %r12
   180029fe0:	c3                   	ret
   180029fe1:	cc                   	int3
   180029fe2:	cc                   	int3
   180029fe3:	cc                   	int3
   180029fe4:	48 89 5c 24 08       	mov    %rbx,0x8(%rsp)
   180029fe9:	57                   	push   %rdi
   180029fea:	48 83 ec 20          	sub    $0x20,%rsp
   180029fee:	80 3d d5 6a 02 00 00 	cmpb   $0x0,0x26ad5(%rip)        # 0x180050aca
   180029ff5:	48 8b f9             	mov    %rcx,%rdi
   180029ff8:	75 3f                	jne    0x18002a039
   180029ffa:	48 8b 1d 47 9a 12 00 	mov    0x129a47(%rip),%rbx        # 0x180153a48
   18002a001:	eb 31                	jmp    0x18002a034
   18002a003:	48 8b 4b 10          	mov    0x10(%rbx),%rcx
   18002a007:	48 8b 05 b2 69 02 00 	mov    0x269b2(%rip),%rax        # 0x1800509c0
   18002a00e:	48 8b 49 10          	mov    0x10(%rcx),%rcx
   18002a012:	ff 50 78             	call   *0x78(%rax)
   18002a015:	48 8b 1b             	mov    (%rbx),%rbx
   18002a018:	48 b9 00 00 00 00 00 	movabs $0x8000000000000000,%rcx
   18002a01f:	00 00 80
   18002a022:	48 85 c1             	test   %rax,%rcx
   18002a025:	75 0d                	jne    0x18002a034
   18002a027:	48 8b 05 92 69 02 00 	mov    0x26992(%rip),%rax        # 0x1800509c0
   18002a02e:	48 8b cf             	mov    %rdi,%rcx
   18002a031:	ff 50 68             	call   *0x68(%rax)
   18002a034:	48 85 db             	test   %rbx,%rbx
   18002a037:	75 ca                	jne    0x18002a003
   18002a039:	48 8b 5c 24 30       	mov    0x30(%rsp),%rbx
   18002a03e:	48 83 c4 20          	add    $0x20,%rsp
   18002a042:	5f                   	pop    %rdi
   18002a043:	c3                   	ret
   18002a044:	48 89 5c 24 08       	mov    %rbx,0x8(%rsp)
   18002a049:	48 89 74 24 10       	mov    %rsi,0x10(%rsp)
   18002a04e:	57                   	push   %rdi
   18002a04f:	48 83 ec 20          	sub    $0x20,%rsp
   18002a053:	48 8b 3d 0e 9a 12 00 	mov    0x129a0e(%rip),%rdi        # 0x180153a68
   18002a05a:	33 db                	xor    %ebx,%ebx
   18002a05c:	40 8a f2             	mov    %dl,%sil
   18002a05f:	38 1d 65 6a 02 00    	cmp    %bl,0x26a65(%rip)        # 0x180050aca
   18002a065:	74 0c                	je     0x18002a073
   18002a067:	48 b8 0f 00 00 00 00 	movabs $0x800000000000000f,%rax
   18002a06e:	00 00 80
   18002a071:	eb 3a                	jmp    0x18002a0ad
   18002a073:	48 85 ff             	test   %rdi,%rdi
   18002a076:	75 0c                	jne    0x18002a084
   18002a078:	48 b8 07 00 00 00 00 	movabs $0x8000000000000007,%rax
   18002a07f:	00 00 80
   18002a082:	eb 29                	jmp    0x18002a0ad
   18002a084:	4c 8b 47 10          	mov    0x10(%rdi),%r8
   18002a088:	40 8a d6             	mov    %sil,%dl
   18002a08b:	49 8b c8             	mov    %r8,%rcx
   18002a08e:	41 ff 10             	call   *(%r8)
   18002a091:	48 8b 3f             	mov    (%rdi),%rdi
   18002a094:	48 b9 00 00 00 00 00 	movabs $0x8000000000000000,%rcx
   18002a09b:	00 00 80
   18002a09e:	48 85 c1             	test   %rax,%rcx
   18002a0a1:	48 0f 45 d8          	cmovne %rax,%rbx
   18002a0a5:	48 85 ff             	test   %rdi,%rdi
   18002a0a8:	75 da                	jne    0x18002a084
   18002a0aa:	48 8b c3             	mov    %rbx,%rax
   18002a0ad:	48 8b 5c 24 30       	mov    0x30(%rsp),%rbx
   18002a0b2:	48 8b 74 24 38       	mov    0x38(%rsp),%rsi
   18002a0b7:	48 83 c4 20          	add    $0x20,%rsp
   18002a0bb:	5f                   	pop    %rdi
   18002a0bc:	c3                   	ret
   18002a0bd:	cc                   	int3
   18002a0be:	cc                   	int3
   18002a0bf:	cc                   	int3
   18002a0c0:	48 89 5c 24 08       	mov    %rbx,0x8(%rsp)
   18002a0c5:	57                   	push   %rdi
   18002a0c6:	48 83 ec 20          	sub    $0x20,%rsp
   18002a0ca:	80 3d f9 69 02 00 00 	cmpb   $0x0,0x269f9(%rip)        # 0x180050aca
   18002a0d1:	48 8b 1d 90 99 12 00 	mov    0x129990(%rip),%rbx        # 0x180153a68
   18002a0d8:	48 8b f9             	mov    %rcx,%rdi
   18002a0db:	75 38                	jne    0x18002a115
   18002a0dd:	eb 31                	jmp    0x18002a110
   18002a0df:	48 8b 4b 10          	mov    0x10(%rbx),%rcx
   18002a0e3:	48 8b 05 d6 68 02 00 	mov    0x268d6(%rip),%rax        # 0x1800509c0
   18002a0ea:	48 8b 49 10          	mov    0x10(%rcx),%rcx
   18002a0ee:	ff 50 78             	call   *0x78(%rax)
   18002a0f1:	48 8b 1b             	mov    (%rbx),%rbx
   18002a0f4:	48 b9 00 00 00 00 00 	movabs $0x8000000000000000,%rcx
   18002a0fb:	00 00 80
   18002a0fe:	48 85 c1             	test   %rax,%rcx
   18002a101:	75 0d                	jne    0x18002a110
   18002a103:	48 8b 05 b6 68 02 00 	mov    0x268b6(%rip),%rax        # 0x1800509c0
   18002a10a:	48 8b cf             	mov    %rdi,%rcx
   18002a10d:	ff 50 68             	call   *0x68(%rax)
   18002a110:	48 85 db             	test   %rbx,%rbx
   18002a113:	75 ca                	jne    0x18002a0df
   18002a115:	48 8b 5c 24 30       	mov    0x30(%rsp),%rbx
   18002a11a:	48 83 c4 20          	add    $0x20,%rsp
   18002a11e:	5f                   	pop    %rdi
   18002a11f:	c3                   	ret
   18002a120:	33 c9                	xor    %ecx,%ecx
   18002a122:	e9 1d ff ff ff       	jmp    0x18002a044
   18002a127:	cc                   	int3
   18002a128:	48 89 5c 24 08       	mov    %rbx,0x8(%rsp)
   18002a12d:	57                   	push   %rdi
   18002a12e:	48 83 ec 20          	sub    $0x20,%rsp
   18002a132:	80 3d 91 69 02 00 00 	cmpb   $0x0,0x26991(%rip)        # 0x180050aca
   18002a139:	48 8b 1d 28 99 12 00 	mov    0x129928(%rip),%rbx        # 0x180153a68
   18002a140:	48 8b fa             	mov    %rdx,%rdi
   18002a143:	74 0c                	je     0x18002a151
   18002a145:	48 b8 0f 00 00 00 00 	movabs $0x800000000000000f,%rax
   18002a14c:	00 00 80
   18002a14f:	eb 5c                	jmp    0x18002a1ad
   18002a151:	48 85 db             	test   %rbx,%rbx
   18002a154:	75 0c                	jne    0x18002a162
   18002a156:	48 b8 07 00 00 00 00 	movabs $0x8000000000000007,%rax
   18002a15d:	00 00 80
   18002a160:	eb 4b                	jmp    0x18002a1ad
   18002a162:	48 85 d2             	test   %rdx,%rdx
   18002a165:	75 0c                	jne    0x18002a173
   18002a167:	48 b8 02 00 00 00 00 	movabs $0x8000000000000002,%rax
   18002a16e:	00 00 80
   18002a171:	eb 3a                	jmp    0x18002a1ad
   18002a173:	8a 02                	mov    (%rdx),%al
   18002a175:	84 c0                	test   %al,%al
   18002a177:	79 2a                	jns    0x18002a1a3
   18002a179:	a8 38                	test   $0x38,%al
   18002a17b:	75 26                	jne    0x18002a1a3
   18002a17d:	88 05 fd 20 02 00    	mov    %al,0x220fd(%rip)        # 0x18004c280
   18002a183:	48 83 7b 18 00       	cmpq   $0x0,0x18(%rbx)
   18002a188:	74 0d                	je     0x18002a197
   18002a18a:	48 8b 43 18          	mov    0x18(%rbx),%rax
   18002a18e:	48 8b d7             	mov    %rdi,%rdx
   18002a191:	48 8b c8             	mov    %rax,%rcx
   18002a194:	ff 50 18             	call   *0x18(%rax)
   18002a197:	48 8b 1b             	mov    (%rbx),%rbx
   18002a19a:	48 85 db             	test   %rbx,%rbx
   18002a19d:	75 e4                	jne    0x18002a183
   18002a19f:	33 c0                	xor    %eax,%eax
   18002a1a1:	eb 0a                	jmp    0x18002a1ad
   18002a1a3:	48 b8 03 00 00 00 00 	movabs $0x8000000000000003,%rax
   18002a1aa:	00 00 80
   18002a1ad:	48 8b 5c 24 30       	mov    0x30(%rsp),%rbx
   18002a1b2:	48 83 c4 20          	add    $0x20,%rsp
   18002a1b6:	5f                   	pop    %rdi
   18002a1b7:	c3                   	ret
   18002a1b8:	48 89 5c 24 08       	mov    %rbx,0x8(%rsp)
   18002a1bd:	48 89 6c 24 18       	mov    %rbp,0x18(%rsp)
   18002a1c2:	56                   	push   %rsi
   18002a1c3:	57                   	push   %rdi
   18002a1c4:	41 54                	push   %r12
   18002a1c6:	48 83 ec 20          	sub    $0x20,%rsp
   18002a1ca:	33 db                	xor    %ebx,%ebx
   18002a1cc:	4c 8b e1             	mov    %rcx,%r12
   18002a1cf:	48 8b f3             	mov    %rbx,%rsi
   18002a1d2:	48 89 5c 24 48       	mov    %rbx,0x48(%rsp)
   18002a1d7:	48 8b eb             	mov    %rbx,%rbp
   18002a1da:	38 1d ea 68 02 00    	cmp    %bl,0x268ea(%rip)        # 0x180050aca
   18002a1e0:	74 0f                	je     0x18002a1f1
   18002a1e2:	48 b8 0f 00 00 00 00 	movabs $0x800000000000000f,%rax
   18002a1e9:	00 00 80
   18002a1ec:	e9 b7 00 00 00       	jmp    0x18002a2a8
   18002a1f1:	48 39 1d 90 98 12 00 	cmp    %rbx,0x129890(%rip)        # 0x180153a88
   18002a1f8:	75 0f                	jne    0x18002a209
   18002a1fa:	48 b8 07 00 00 00 00 	movabs $0x8000000000000007,%rax
   18002a201:	00 00 80
   18002a204:	e9 9f 00 00 00       	jmp    0x18002a2a8
   18002a209:	48 8b 15 70 98 12 00 	mov    0x129870(%rip),%rdx        # 0x180153a80
   18002a210:	48 8b 05 a9 67 02 00 	mov    0x267a9(%rip),%rax        # 0x1800509c0
   18002a217:	4c 8d 44 24 48       	lea    0x48(%rsp),%r8
   18002a21c:	48 c1 e2 03          	shl    $0x3,%rdx
   18002a220:	b9 04 00 00 00       	mov    $0x4,%ecx
   18002a225:	ff 50 40             	call   *0x40(%rax)
   18002a228:	48 b9 00 00 00 00 00 	movabs $0x8000000000000000,%rcx
   18002a22f:	00 00 80
   18002a232:	48 85 c1             	test   %rax,%rcx
   18002a235:	74 0c                	je     0x18002a243
   18002a237:	48 b8 09 00 00 00 00 	movabs $0x8000000000000009,%rax
   18002a23e:	00 00 80
   18002a241:	eb 65                	jmp    0x18002a2a8
   18002a243:	48 8b 3d 3e 98 12 00 	mov    0x12983e(%rip),%rdi        # 0x180153a88
   18002a24a:	eb 2d                	jmp    0x18002a279
   18002a24c:	48 8d 4f 10          	lea    0x10(%rdi),%rcx
   18002a250:	41 b8 0c 00 00 00    	mov    $0xc,%r8d
   18002a256:	49 8b d4             	mov    %r12,%rdx
   18002a259:	48 8b ef             	mov    %rdi,%rbp
   18002a25c:	e8 23 d3 fd ff       	call   0x180007584
   18002a261:	48 3b c3             	cmp    %rbx,%rax
   18002a264:	75 10                	jne    0x18002a276
   18002a266:	48 8b 44 24 48       	mov    0x48(%rsp),%rax
   18002a26b:	48 8b 4f 1c          	mov    0x1c(%rdi),%rcx
   18002a26f:	48 89 0c f0          	mov    %rcx,(%rax,%rsi,8)
   18002a273:	48 ff c6             	inc    %rsi
   18002a276:	48 8b 3f             	mov    (%rdi),%rdi
   18002a279:	48 3b fb             	cmp    %rbx,%rdi
   18002a27c:	75 ce                	jne    0x18002a24c
   18002a27e:	48 3b f3             	cmp    %rbx,%rsi
   18002a281:	76 14                	jbe    0x18002a297
   18002a283:	48 8b 44 24 48       	mov    0x48(%rsp),%rax
   18002a288:	48 8d 4d 10          	lea    0x10(%rbp),%rcx
   18002a28c:	ff 14 d8             	call   *(%rax,%rbx,8)
   18002a28f:	48 ff c3             	inc    %rbx
   18002a292:	48 3b de             	cmp    %rsi,%rbx
   18002a295:	72 ec                	jb     0x18002a283
   18002a297:	48 8b 05 22 67 02 00 	mov    0x26722(%rip),%rax        # 0x1800509c0
   18002a29e:	48 8b 4c 24 48       	mov    0x48(%rsp),%rcx
   18002a2a3:	ff 50 48             	call   *0x48(%rax)
   18002a2a6:	33 c0                	xor    %eax,%eax
   18002a2a8:	48 8b 5c 24 40       	mov    0x40(%rsp),%rbx
   18002a2ad:	48 8b 6c 24 50       	mov    0x50(%rsp),%rbp
   18002a2b2:	48 83 c4 20          	add    $0x20,%rsp
   18002a2b6:	41 5c                	pop    %r12
   18002a2b8:	5f                   	pop    %rdi
   18002a2b9:	5e                   	pop    %rsi
   18002a2ba:	c3                   	ret
   18002a2bb:	cc                   	int3
   18002a2bc:	48 8b c4             	mov    %rsp,%rax
   18002a2bf:	48 89 58 08          	mov    %rbx,0x8(%rax)
   18002a2c3:	48 89 68 10          	mov    %rbp,0x10(%rax)
   18002a2c7:	48 89 70 18          	mov    %rsi,0x18(%rax)
   18002a2cb:	57                   	push   %rdi
   18002a2cc:	41 54                	push   %r12
   18002a2ce:	41 56                	push   %r14
   18002a2d0:	48 83 ec 30          	sub    $0x30,%rsp
   18002a2d4:	48 83 60 d8 00       	andq   $0x0,-0x28(%rax)
   18002a2d9:	48 83 60 e0 00       	andq   $0x0,-0x20(%rax)
   18002a2de:	80 3d e5 67 02 00 00 	cmpb   $0x0,0x267e5(%rip)        # 0x180050aca
   18002a2e5:	49 8b f1             	mov    %r9,%rsi
   18002a2e8:	49 8b e8             	mov    %r8,%rbp
   18002a2eb:	4c 8b e2             	mov    %rdx,%r12
   18002a2ee:	74 0f                	je     0x18002a2ff
   18002a2f0:	48 b8 0f 00 00 00 00 	movabs $0x800000000000000f,%rax
   18002a2f7:	00 00 80
   18002a2fa:	e9 c7 01 00 00       	jmp    0x18002a4c6
   18002a2ff:	48 85 d2             	test   %rdx,%rdx
   18002a302:	0f 84 b4 01 00 00    	je     0x18002a4bc
   18002a308:	4d 85 c0             	test   %r8,%r8
   18002a30b:	0f 84 ab 01 00 00    	je     0x18002a4bc
   18002a311:	4d 85 c9             	test   %r9,%r9
   18002a314:	0f 84 a2 01 00 00    	je     0x18002a4bc
   18002a31a:	48 8b 1d 67 97 12 00 	mov    0x129767(%rip),%rbx        # 0x180153a88
   18002a321:	48 85 db             	test   %rbx,%rbx
   18002a324:	74 36                	je     0x18002a35c
   18002a326:	48 8d 4b 10          	lea    0x10(%rbx),%rcx
   18002a32a:	41 b8 0c 00 00 00    	mov    $0xc,%r8d
   18002a330:	49 8b d4             	mov    %r12,%rdx
   18002a333:	48 89 5c 24 20       	mov    %rbx,0x20(%rsp)
   18002a338:	e8 47 d2 fd ff       	call   0x180007584
   18002a33d:	48 85 c0             	test   %rax,%rax
   18002a340:	75 0b                	jne    0x18002a34d
   18002a342:	48 8b 44 24 20       	mov    0x20(%rsp),%rax
   18002a347:	48 39 68 1c          	cmp    %rbp,0x1c(%rax)
   18002a34b:	74 05                	je     0x18002a352
   18002a34d:	48 8b 1b             	mov    (%rbx),%rbx
   18002a350:	eb cf                	jmp    0x18002a321
   18002a352:	48 89 06             	mov    %rax,(%rsi)
   18002a355:	33 c0                	xor    %eax,%eax
   18002a357:	e9 6a 01 00 00       	jmp    0x18002a4c6
   18002a35c:	48 8b 05 5d 66 02 00 	mov    0x2665d(%rip),%rax        # 0x1800509c0
   18002a363:	ba 3c 00 00 00       	mov    $0x3c,%edx
   18002a368:	4c 8d 44 24 20       	lea    0x20(%rsp),%r8
   18002a36d:	8d 4a c8             	lea    -0x38(%rdx),%ecx
   18002a370:	ff 50 40             	call   *0x40(%rax)
   18002a373:	49 be 00 00 00 00 00 	movabs $0x8000000000000000,%r14
   18002a37a:	00 00 80
   18002a37d:	48 8b f8             	mov    %rax,%rdi
   18002a380:	49 85 c6             	test   %rax,%r14
   18002a383:	74 0f                	je     0x18002a394
   18002a385:	48 b8 09 00 00 00 00 	movabs $0x8000000000000009,%rax
   18002a38c:	00 00 80
   18002a38f:	e9 32 01 00 00       	jmp    0x18002a4c6
   18002a394:	48 8b 4c 24 20       	mov    0x20(%rsp),%rcx
   18002a399:	41 b8 0c 00 00 00    	mov    $0xc,%r8d
   18002a39f:	49 8b d4             	mov    %r12,%rdx
   18002a3a2:	48 83 c1 10          	add    $0x10,%rcx
   18002a3a6:	e8 65 f7 fd ff       	call   0x180009b10
   18002a3ab:	4c 8b 5c 24 20       	mov    0x20(%rsp),%r11
   18002a3b0:	48 8d 0d c9 96 12 00 	lea    0x1296c9(%rip),%rcx        # 0x180153a80
   18002a3b7:	49 89 6b 1c          	mov    %rbp,0x1c(%r11)
   18002a3bb:	48 8b 54 24 20       	mov    0x20(%rsp),%rdx
   18002a3c0:	e8 83 e1 fd ff       	call   0x180008548
   18002a3c5:	48 8b 4c 24 20       	mov    0x20(%rsp),%rcx
   18002a3ca:	48 83 c1 24          	add    $0x24,%rcx
   18002a3ce:	e8 65 e1 fd ff       	call   0x180008538
   18002a3d3:	48 8b 1d 8e 96 12 00 	mov    0x12968e(%rip),%rbx        # 0x180153a68
   18002a3da:	eb 6f                	jmp    0x18002a44b
   18002a3dc:	48 83 7b 18 00       	cmpq   $0x0,0x18(%rbx)
   18002a3e1:	74 65                	je     0x18002a448
   18002a3e3:	48 8b 05 d6 65 02 00 	mov    0x265d6(%rip),%rax        # 0x1800509c0
   18002a3ea:	ba 20 00 00 00       	mov    $0x20,%edx
   18002a3ef:	4c 8d 44 24 28       	lea    0x28(%rsp),%r8
   18002a3f4:	8d 4a e4             	lea    -0x1c(%rdx),%ecx
   18002a3f7:	ff 50 40             	call   *0x40(%rax)
   18002a3fa:	48 8b f8             	mov    %rax,%rdi
   18002a3fd:	49 85 c6             	test   %rax,%r14
   18002a400:	75 4e                	jne    0x18002a450
   18002a402:	48 8b 4b 18          	mov    0x18(%rbx),%rcx
   18002a406:	48 8b 44 24 28       	mov    0x28(%rsp),%rax
   18002a40b:	48 89 48 10          	mov    %rcx,0x10(%rax)
   18002a40f:	48 8b 4c 24 20       	mov    0x20(%rsp),%rcx
   18002a414:	48 8b 54 24 28       	mov    0x28(%rsp),%rdx
   18002a419:	48 83 c1 24          	add    $0x24,%rcx
   18002a41d:	e8 26 e1 fd ff       	call   0x180008548
   18002a422:	4c 8b 5b 18          	mov    0x18(%rbx),%r11
   18002a426:	4c 8b 4c 24 28       	mov    0x28(%rsp),%r9
   18002a42b:	4c 8d 05 86 fd ff ff 	lea    -0x27a(%rip),%r8        # 0x18002a1b8
   18002a432:	49 83 c1 18          	add    $0x18,%r9
   18002a436:	49 8b cb             	mov    %r11,%rcx
   18002a439:	49 8b d4             	mov    %r12,%rdx
   18002a43c:	41 ff 53 20          	call   *0x20(%r11)
   18002a440:	48 8b f8             	mov    %rax,%rdi
   18002a443:	49 85 c6             	test   %rax,%r14
   18002a446:	75 08                	jne    0x18002a450
   18002a448:	48 8b 1b             	mov    (%rbx),%rbx
   18002a44b:	48 85 db             	test   %rbx,%rbx
   18002a44e:	75 8c                	jne    0x18002a3dc
   18002a450:	49 85 fe             	test   %rdi,%r14
   18002a453:	74 5d                	je     0x18002a4b2
   18002a455:	48 8b 4c 24 20       	mov    0x20(%rsp),%rcx
   18002a45a:	48 8b 59 2c          	mov    0x2c(%rcx),%rbx
   18002a45e:	48 85 db             	test   %rbx,%rbx
   18002a461:	74 40                	je     0x18002a4a3
   18002a463:	48 89 5c 24 28       	mov    %rbx,0x28(%rsp)
   18002a468:	48 8b 43 10          	mov    0x10(%rbx),%rax
   18002a46c:	48 8b 53 18          	mov    0x18(%rbx),%rdx
   18002a470:	48 8b c8             	mov    %rax,%rcx
   18002a473:	ff 50 28             	call   *0x28(%rax)
   18002a476:	48 8b 4c 24 20       	mov    0x20(%rsp),%rcx
   18002a47b:	48 8b d3             	mov    %rbx,%rdx
   18002a47e:	48 83 c1 24          	add    $0x24,%rcx
   18002a482:	e8 e9 e0 fd ff       	call   0x180008570
   18002a487:	48 8b 05 32 65 02 00 	mov    0x26532(%rip),%rax        # 0x1800509c0
   18002a48e:	48 8b 4c 24 28       	mov    0x28(%rsp),%rcx
   18002a493:	ff 50 48             	call   *0x48(%rax)
   18002a496:	48 8b 1b             	mov    (%rbx),%rbx
   18002a499:	48 85 db             	test   %rbx,%rbx
   18002a49c:	75 c5                	jne    0x18002a463
   18002a49e:	48 8b 4c 24 20       	mov    0x20(%rsp),%rcx
   18002a4a3:	48 8b 05 16 65 02 00 	mov    0x26516(%rip),%rax        # 0x1800509c0
   18002a4aa:	ff 50 48             	call   *0x48(%rax)
   18002a4ad:	48 8b c7             	mov    %rdi,%rax
   18002a4b0:	eb 14                	jmp    0x18002a4c6
   18002a4b2:	48 8b 44 24 20       	mov    0x20(%rsp),%rax
   18002a4b7:	48 89 06             	mov    %rax,(%rsi)
   18002a4ba:	eb f1                	jmp    0x18002a4ad
   18002a4bc:	48 b8 02 00 00 00 00 	movabs $0x8000000000000002,%rax
   18002a4c3:	00 00 80
   18002a4c6:	48 8b 5c 24 50       	mov    0x50(%rsp),%rbx
   18002a4cb:	48 8b 6c 24 58       	mov    0x58(%rsp),%rbp
   18002a4d0:	48 8b 74 24 60       	mov    0x60(%rsp),%rsi
   18002a4d5:	48 83 c4 30          	add    $0x30,%rsp
   18002a4d9:	41 5e                	pop    %r14
   18002a4db:	41 5c                	pop    %r12
   18002a4dd:	5f                   	pop    %rdi
   18002a4de:	c3                   	ret
   18002a4df:	cc                   	int3
   18002a4e0:	48 89 5c 24 08       	mov    %rbx,0x8(%rsp)
   18002a4e5:	48 89 74 24 10       	mov    %rsi,0x10(%rsp)
   18002a4ea:	57                   	push   %rdi
   18002a4eb:	48 83 ec 20          	sub    $0x20,%rsp
   18002a4ef:	80 3d d4 65 02 00 00 	cmpb   $0x0,0x265d4(%rip)        # 0x180050aca
   18002a4f6:	74 0c                	je     0x18002a504
   18002a4f8:	48 b8 0f 00 00 00 00 	movabs $0x800000000000000f,%rax
   18002a4ff:	00 00 80
   18002a502:	eb 25                	jmp    0x18002a529
   18002a504:	48 85 d2             	test   %rdx,%rdx
   18002a507:	74 16                	je     0x18002a51f
   18002a509:	48 8b 1d 78 95 12 00 	mov    0x129578(%rip),%rbx        # 0x180153a88
   18002a510:	eb 08                	jmp    0x18002a51a
   18002a512:	48 3b d3             	cmp    %rbx,%rdx
   18002a515:	74 22                	je     0x18002a539
   18002a517:	48 8b 1b             	mov    (%rbx),%rbx
   18002a51a:	48 85 db             	test   %rbx,%rbx
   18002a51d:	75 f3                	jne    0x18002a512
   18002a51f:	48 b8 02 00 00 00 00 	movabs $0x8000000000000002,%rax
   18002a526:	00 00 80
   18002a529:	48 8b 5c 24 30       	mov    0x30(%rsp),%rbx
   18002a52e:	48 8b 74 24 38       	mov    0x38(%rsp),%rsi
   18002a533:	48 83 c4 20          	add    $0x20,%rsp
   18002a537:	5f                   	pop    %rdi
   18002a538:	c3                   	ret
   18002a539:	48 8d 0d 40 95 12 00 	lea    0x129540(%rip),%rcx        # 0x180153a80
   18002a540:	48 8b d3             	mov    %rbx,%rdx
   18002a543:	e8 28 e0 fd ff       	call   0x180008570
   18002a548:	48 85 db             	test   %rbx,%rbx
   18002a54b:	74 d2                	je     0x18002a51f
   18002a54d:	48 8b 7b 2c          	mov    0x2c(%rbx),%rdi
   18002a551:	eb 2a                	jmp    0x18002a57d
   18002a553:	48 8b 47 10          	mov    0x10(%rdi),%rax
   18002a557:	48 8b 57 18          	mov    0x18(%rdi),%rdx
   18002a55b:	48 8b c8             	mov    %rax,%rcx
   18002a55e:	ff 50 28             	call   *0x28(%rax)
   18002a561:	48 8d 4b 24          	lea    0x24(%rbx),%rcx
   18002a565:	48 8b d7             	mov    %rdi,%rdx
   18002a568:	e8 03 e0 fd ff       	call   0x180008570
   18002a56d:	48 8b 05 4c 64 02 00 	mov    0x2644c(%rip),%rax        # 0x1800509c0
   18002a574:	48 8b cf             	mov    %rdi,%rcx
   18002a577:	ff 50 48             	call   *0x48(%rax)
   18002a57a:	48 8b 3f             	mov    (%rdi),%rdi
   18002a57d:	48 85 ff             	test   %rdi,%rdi
   18002a580:	75 d1                	jne    0x18002a553
   18002a582:	48 8b 05 37 64 02 00 	mov    0x26437(%rip),%rax        # 0x1800509c0
   18002a589:	48 8b cb             	mov    %rbx,%rcx
   18002a58c:	ff 50 48             	call   *0x48(%rax)
   18002a58f:	eb 98                	jmp    0x18002a529
   18002a591:	cc                   	int3
   18002a592:	cc                   	int3
   18002a593:	cc                   	int3
   18002a594:	48 83 ec 28          	sub    $0x28,%rsp
   18002a598:	83 3d b1 67 02 00 00 	cmpl   $0x0,0x267b1(%rip)        # 0x180050d50
   18002a59f:	75 64                	jne    0x18002a605
   18002a5a1:	48 8b 05 a0 67 02 00 	mov    0x267a0(%rip),%rax        # 0x180050d48
   18002a5a8:	48 85 c0             	test   %rax,%rax
   18002a5ab:	75 3d                	jne    0x18002a5ea
   18002a5ad:	48 8b 05 0c 64 02 00 	mov    0x2640c(%rip),%rax        # 0x1800509c0
   18002a5b4:	4c 8d 05 8d 67 02 00 	lea    0x2678d(%rip),%r8        # 0x180050d48
   18002a5bb:	48 8d 0d 3e 11 02 00 	lea    0x2113e(%rip),%rcx        # 0x18004b700
   18002a5c2:	33 d2                	xor    %edx,%edx
   18002a5c4:	ff 90 40 01 00 00    	call   *0x140(%rax)
   18002a5ca:	48 b9 00 00 00 00 00 	movabs $0x8000000000000000,%rcx
   18002a5d1:	00 00 80
   18002a5d4:	48 85 c1             	test   %rax,%rcx
   18002a5d7:	74 0a                	je     0x18002a5e3
   18002a5d9:	48 83 25 67 67 02 00 	andq   $0x0,0x26767(%rip)        # 0x180050d48
   18002a5e0:	00
   18002a5e1:	eb 22                	jmp    0x18002a605
   18002a5e3:	48 8b 05 5e 67 02 00 	mov    0x2675e(%rip),%rax        # 0x180050d48
   18002a5ea:	ff 50 10             	call   *0x10(%rax)
   18002a5ed:	84 c0                	test   %al,%al
   18002a5ef:	74 14                	je     0x18002a605
   18002a5f1:	48 8b 05 50 67 02 00 	mov    0x26750(%rip),%rax        # 0x180050d48
   18002a5f8:	ff 50 08             	call   *0x8(%rax)
   18002a5fb:	c7 05 4b 67 02 00 01 	movl   $0x1,0x2674b(%rip)        # 0x180050d50
   18002a602:	00 00 00
   18002a605:	48 83 c4 28          	add    $0x28,%rsp
   18002a609:	c3                   	ret
   18002a60a:	cc                   	int3
   18002a60b:	cc                   	int3
   18002a60c:	48 89 5c 24 18       	mov    %rbx,0x18(%rsp)
   18002a611:	48 89 54 24 10       	mov    %rdx,0x10(%rsp)
   18002a616:	48 89 4c 24 08       	mov    %rcx,0x8(%rsp)
   18002a61b:	55                   	push   %rbp
   18002a61c:	56                   	push   %rsi
   18002a61d:	57                   	push   %rdi
   18002a61e:	48 83 ec 40          	sub    $0x40,%rsp
   18002a622:	80 3d a1 64 02 00 00 	cmpb   $0x0,0x264a1(%rip)        # 0x180050aca
   18002a629:	48 8b 1d 38 94 12 00 	mov    0x129438(%rip),%rbx        # 0x180153a68
   18002a630:	48 8b ea             	mov    %rdx,%rbp
   18002a633:	48 bf 06 00 00 00 00 	movabs $0x8000000000000006,%rdi
   18002a63a:	00 00 80
   18002a63d:	74 0f                	je     0x18002a64e
   18002a63f:	48 b8 0f 00 00 00 00 	movabs $0x800000000000000f,%rax
   18002a646:	00 00 80
   18002a649:	e9 23 01 00 00       	jmp    0x18002a771
   18002a64e:	e8 41 ff ff ff       	call   0x18002a594
   18002a653:	48 85 db             	test   %rbx,%rbx
   18002a656:	75 0f                	jne    0x18002a667
   18002a658:	48 b8 07 00 00 00 00 	movabs $0x8000000000000007,%rax
   18002a65f:	00 00 80
   18002a662:	e9 0a 01 00 00       	jmp    0x18002a771
   18002a667:	48 8b 05 52 63 02 00 	mov    0x26352(%rip),%rax        # 0x1800509c0
   18002a66e:	45 33 c0             	xor    %r8d,%r8d
   18002a671:	48 8b cd             	mov    %rbp,%rcx
   18002a674:	41 8d 50 14          	lea    0x14(%r8),%edx
   18002a678:	ff 90 68 01 00 00    	call   *0x168(%rax)
   18002a67e:	48 83 7b 20 00       	cmpq   $0x0,0x20(%rbx)
   18002a683:	74 06                	je     0x18002a68b
   18002a685:	48 8b 43 20          	mov    0x20(%rbx),%rax
   18002a689:	eb 18                	jmp    0x18002a6a3
   18002a68b:	48 83 7b 18 00       	cmpq   $0x0,0x18(%rbx)
   18002a690:	74 06                	je     0x18002a698
   18002a692:	48 8b 43 18          	mov    0x18(%rbx),%rax
   18002a696:	eb 0b                	jmp    0x18002a6a3
   18002a698:	48 83 7b 10 00       	cmpq   $0x0,0x10(%rbx)
   18002a69d:	74 12                	je     0x18002a6b1
   18002a69f:	48 8b 43 10          	mov    0x10(%rbx),%rax
   18002a6a3:	48 8d 54 24 20       	lea    0x20(%rsp),%rdx
   18002a6a8:	48 8b c8             	mov    %rax,%rcx
   18002a6ab:	ff 50 08             	call   *0x8(%rax)
   18002a6ae:	48 8b f8             	mov    %rax,%rdi
   18002a6b1:	48 8b f7             	mov    %rdi,%rsi
   18002a6b4:	48 b8 00 00 00 00 00 	movabs $0x8000000000000000,%rax
   18002a6bb:	00 00 80
   18002a6be:	48 23 f0             	and    %rax,%rsi
   18002a6c1:	75 32                	jne    0x18002a6f5
   18002a6c3:	8a 54 24 28          	mov    0x28(%rsp),%dl
   18002a6c7:	84 d2                	test   %dl,%dl
   18002a6c9:	79 2a                	jns    0x18002a6f5
   18002a6cb:	8a 05 af 1b 02 00    	mov    0x21baf(%rip),%al        # 0x18004c280
   18002a6d1:	0f b6 ca             	movzbl %dl,%ecx
   18002a6d4:	83 e1 bf             	and    $0xffffffbf,%ecx
   18002a6d7:	3a c8                	cmp    %al,%cl
   18002a6d9:	74 1a                	je     0x18002a6f5
   18002a6db:	48 8b 4c 24 60       	mov    0x60(%rsp),%rcx
   18002a6e0:	80 e2 bf             	and    $0xbf,%dl
   18002a6e3:	88 15 97 1b 02 00    	mov    %dl,0x21b97(%rip)        # 0x18004c280
   18002a6e9:	48 8d 15 90 1b 02 00 	lea    0x21b90(%rip),%rdx        # 0x18004c280
   18002a6f0:	e8 33 fa ff ff       	call   0x18002a128
   18002a6f5:	48 85 f6             	test   %rsi,%rsi
   18002a6f8:	74 0e                	je     0x18002a708
   18002a6fa:	48 8b 1b             	mov    (%rbx),%rbx
   18002a6fd:	48 85 db             	test   %rbx,%rbx
   18002a700:	0f 85 78 ff ff ff    	jne    0x18002a67e
   18002a706:	eb 13                	jmp    0x18002a71b
   18002a708:	48 8d 54 24 20       	lea    0x20(%rsp),%rdx
   18002a70d:	48 8b cd             	mov    %rbp,%rcx
   18002a710:	41 b8 14 00 00 00    	mov    $0x14,%r8d
   18002a716:	e8 f5 f3 fd ff       	call   0x180009b10
   18002a71b:	48 bb 00 00 00 00 00 	movabs $0x8000000000000000,%rbx
   18002a722:	00 00 80
   18002a725:	48 85 fb             	test   %rdi,%rbx
   18002a728:	75 44                	jne    0x18002a76e
   18002a72a:	83 7c 24 2c 68       	cmpl   $0x68,0x2c(%rsp)
   18002a72f:	75 3d                	jne    0x18002a76e
   18002a731:	48 8b 6c 24 60       	mov    0x60(%rsp),%rbp
   18002a736:	48 8d 54 24 20       	lea    0x20(%rsp),%rdx
   18002a73b:	48 8b cd             	mov    %rbp,%rcx
   18002a73e:	e8 c9 fe ff ff       	call   0x18002a60c
   18002a743:	48 8b f8             	mov    %rax,%rdi
   18002a746:	48 85 c3             	test   %rax,%rbx
   18002a749:	75 eb                	jne    0x18002a736
   18002a74b:	83 7c 24 2c 68       	cmpl   $0x68,0x2c(%rsp)
   18002a750:	74 e4                	je     0x18002a736
   18002a752:	83 7c 24 2c 55       	cmpl   $0x55,0x2c(%rsp)
   18002a757:	74 dd                	je     0x18002a736
   18002a759:	48 8b 4c 24 68       	mov    0x68(%rsp),%rcx
   18002a75e:	48 8d 54 24 20       	lea    0x20(%rsp),%rdx
   18002a763:	41 b8 14 00 00 00    	mov    $0x14,%r8d
   18002a769:	e8 a2 f3 fd ff       	call   0x180009b10
   18002a76e:	48 8b c7             	mov    %rdi,%rax
   18002a771:	48 8b 5c 24 70       	mov    0x70(%rsp),%rbx
   18002a776:	48 83 c4 40          	add    $0x40,%rsp
   18002a77a:	5f                   	pop    %rdi
   18002a77b:	5e                   	pop    %rsi
   18002a77c:	5d                   	pop    %rbp
   18002a77d:	c3                   	ret
   18002a77e:	cc                   	int3
   18002a77f:	cc                   	int3
   18002a780:	40 53                	rex push %rbx
   18002a782:	48 83 ec 40          	sub    $0x40,%rsp
   18002a786:	48 8b da             	mov    %rdx,%rbx
   18002a789:	48 8d 54 24 20       	lea    0x20(%rsp),%rdx
   18002a78e:	e8 79 fe ff ff       	call   0x18002a60c
   18002a793:	33 c9                	xor    %ecx,%ecx
   18002a795:	48 3b c1             	cmp    %rcx,%rax
   18002a798:	75 27                	jne    0x18002a7c1
   18002a79a:	8b 44 24 20          	mov    0x20(%rsp),%eax
   18002a79e:	66 3b c1             	cmp    %cx,%ax
   18002a7a1:	75 1a                	jne    0x18002a7bd
   18002a7a3:	66 39 4c 24 22       	cmp    %cx,0x22(%rsp)
   18002a7a8:	75 13                	jne    0x18002a7bd
   18002a7aa:	f6 44 24 28 40       	testb  $0x40,0x28(%rsp)
   18002a7af:	74 0c                	je     0x18002a7bd
   18002a7b1:	48 b8 06 00 00 00 00 	movabs $0x8000000000000006,%rax
   18002a7b8:	00 00 80
   18002a7bb:	eb 04                	jmp    0x18002a7c1
   18002a7bd:	89 03                	mov    %eax,(%rbx)
   18002a7bf:	33 c0                	xor    %eax,%eax
   18002a7c1:	48 83 c4 40          	add    $0x40,%rsp
   18002a7c5:	5b                   	pop    %rbx
   18002a7c6:	c3                   	ret
   18002a7c7:	cc                   	int3
   18002a7c8:	40 53                	rex push %rbx
   18002a7ca:	48 83 ec 40          	sub    $0x40,%rsp
   18002a7ce:	48 8b da             	mov    %rdx,%rbx
   18002a7d1:	48 85 d2             	test   %rdx,%rdx
   18002a7d4:	75 0c                	jne    0x18002a7e2
   18002a7d6:	48 b8 02 00 00 00 00 	movabs $0x8000000000000002,%rax
   18002a7dd:	00 00 80
   18002a7e0:	eb 20                	jmp    0x18002a802
   18002a7e2:	48 8d 54 24 20       	lea    0x20(%rsp),%rdx
   18002a7e7:	e8 20 fe ff ff       	call   0x18002a60c
   18002a7ec:	48 85 c0             	test   %rax,%rax
   18002a7ef:	75 11                	jne    0x18002a802
   18002a7f1:	8b 44 24 20          	mov    0x20(%rsp),%eax
   18002a7f5:	89 03                	mov    %eax,(%rbx)
   18002a7f7:	48 8b 44 24 24       	mov    0x24(%rsp),%rax
   18002a7fc:	48 89 43 04          	mov    %rax,0x4(%rbx)
   18002a800:	33 c0                	xor    %eax,%eax
   18002a802:	48 83 c4 40          	add    $0x40,%rsp
   18002a806:	5b                   	pop    %rbx
   18002a807:	c3                   	ret
   18002a808:	48 83 ec 28          	sub    $0x28,%rsp
   18002a80c:	48 85 d2             	test   %rdx,%rdx
   18002a80f:	75 0c                	jne    0x18002a81d
   18002a811:	48 b8 02 00 00 00 00 	movabs $0x8000000000000002,%rax
   18002a818:	00 00 80
   18002a81b:	eb 05                	jmp    0x18002a822
   18002a81d:	e8 a6 eb 00 00       	call   0x1800393c8
   18002a822:	48 83 c4 28          	add    $0x28,%rsp
   18002a826:	c3                   	ret
   18002a827:	cc                   	int3
   18002a828:	8d 41 d0             	lea    -0x30(%rcx),%eax
   18002a82b:	66 83 f8 36          	cmp    $0x36,%ax
   18002a82f:	77 15                	ja     0x18002a846
   18002a831:	8d 41 c6             	lea    -0x3a(%rcx),%eax
   18002a834:	66 83 f8 06          	cmp    $0x6,%ax
   18002a838:	76 0c                	jbe    0x18002a846
   18002a83a:	66 83 e9 47          	sub    $0x47,%cx
   18002a83e:	66 83 f9 19          	cmp    $0x19,%cx
   18002a842:	0f 97 c0             	seta   %al
   18002a845:	c3                   	ret
   18002a846:	32 c0                	xor    %al,%al
   18002a848:	c3                   	ret
   18002a849:	cc                   	int3
   18002a84a:	cc                   	int3
   18002a84b:	cc                   	int3
   18002a84c:	45 33 c9             	xor    %r9d,%r9d
   18002a84f:	45 32 d2             	xor    %r10b,%r10b
   18002a852:	4d 8b d8             	mov    %r8,%r11
   18002a855:	49 3b d0             	cmp    %r8,%rdx
   18002a858:	73 40                	jae    0x18002a89a
   18002a85a:	44 8a 04 51          	mov    (%rcx,%rdx,2),%r8b
   18002a85e:	41 8d 40 d0          	lea    -0x30(%r8),%eax
   18002a862:	3c 09                	cmp    $0x9,%al
   18002a864:	76 10                	jbe    0x18002a876
   18002a866:	41 8d 40 bf          	lea    -0x41(%r8),%eax
   18002a86a:	3c 05                	cmp    $0x5,%al
   18002a86c:	41 8d 40 c9          	lea    -0x37(%r8),%eax
   18002a870:	76 04                	jbe    0x18002a876
   18002a872:	41 8d 40 a9          	lea    -0x57(%r8),%eax
   18002a876:	84 c0                	test   %al,%al
   18002a878:	75 05                	jne    0x18002a87f
   18002a87a:	45 84 d2             	test   %r10b,%r10b
   18002a87d:	74 13                	je     0x18002a892
   18002a87f:	41 80 fa 08          	cmp    $0x8,%r10b
   18002a883:	73 19                	jae    0x18002a89e
   18002a885:	41 c1 e1 04          	shl    $0x4,%r9d
   18002a889:	0f b6 c0             	movzbl %al,%eax
   18002a88c:	44 0b c8             	or     %eax,%r9d
   18002a88f:	41 fe c2             	inc    %r10b
   18002a892:	48 ff c2             	inc    %rdx
   18002a895:	49 3b d3             	cmp    %r11,%rdx
   18002a898:	72 c0                	jb     0x18002a85a
   18002a89a:	41 8b c1             	mov    %r9d,%eax
   18002a89d:	c3                   	ret
   18002a89e:	83 c8 ff             	or     $0xffffffff,%eax
   18002a8a1:	c3                   	ret
   18002a8a2:	cc                   	int3
   18002a8a3:	cc                   	int3
   18002a8a4:	48 83 ec 28          	sub    $0x28,%rsp
   18002a8a8:	4c 8b 02             	mov    (%rdx),%r8
   18002a8ab:	48 8b 52 08          	mov    0x8(%rdx),%rdx
   18002a8af:	e8 d0 cc fd ff       	call   0x180007584
   18002a8b4:	48 85 c0             	test   %rax,%rax
   18002a8b7:	0f 94 c0             	sete   %al
   18002a8ba:	48 83 c4 28          	add    $0x28,%rsp
   18002a8be:	c3                   	ret
   18002a8bf:	cc                   	int3
   18002a8c0:	40 53                	rex push %rbx
   18002a8c2:	48 83 ec 20          	sub    $0x20,%rsp
   18002a8c6:	48 89 4a 08          	mov    %rcx,0x8(%rdx)
   18002a8ca:	48 8b 05 ef 60 02 00 	mov    0x260ef(%rip),%rax        # 0x1800509c0
   18002a8d1:	48 8b da             	mov    %rdx,%rbx
   18002a8d4:	48 8d 14 09          	lea    (%rcx,%rcx,1),%rdx
   18002a8d8:	4c 8d 44 24 30       	lea    0x30(%rsp),%r8
   18002a8dd:	b9 04 00 00 00       	mov    $0x4,%ecx
   18002a8e2:	ff 50 40             	call   *0x40(%rax)
   18002a8e5:	48 b9 00 00 00 00 00 	movabs $0x8000000000000000,%rcx
   18002a8ec:	00 00 80
   18002a8ef:	48 85 c1             	test   %rax,%rcx
   18002a8f2:	75 2b                	jne    0x18002a91f
   18002a8f4:	4c 8b 43 10          	mov    0x10(%rbx),%r8
   18002a8f8:	48 8b 13             	mov    (%rbx),%rdx
   18002a8fb:	48 8b 4c 24 30       	mov    0x30(%rsp),%rcx
   18002a900:	4d 03 c0             	add    %r8,%r8
   18002a903:	e8 08 f2 fd ff       	call   0x180009b10
   18002a908:	48 8b 05 b1 60 02 00 	mov    0x260b1(%rip),%rax        # 0x1800509c0
   18002a90f:	48 8b 0b             	mov    (%rbx),%rcx
   18002a912:	ff 50 48             	call   *0x48(%rax)
   18002a915:	4c 8b 5c 24 30       	mov    0x30(%rsp),%r11
   18002a91a:	33 c0                	xor    %eax,%eax
   18002a91c:	4c 89 1b             	mov    %r11,(%rbx)
   18002a91f:	48 83 c4 20          	add    $0x20,%rsp
   18002a923:	5b                   	pop    %rbx
   18002a924:	c3                   	ret
   18002a925:	cc                   	int3
   18002a926:	cc                   	int3
   18002a927:	cc                   	int3
   18002a928:	48 8b c4             	mov    %rsp,%rax
   18002a92b:	48 89 58 08          	mov    %rbx,0x8(%rax)
   18002a92f:	48 89 68 10          	mov    %rbp,0x10(%rax)
   18002a933:	48 89 70 18          	mov    %rsi,0x18(%rax)
   18002a937:	48 89 78 20          	mov    %rdi,0x20(%rax)
   18002a93b:	41 54                	push   %r12
   18002a93d:	48 83 ec 20          	sub    $0x20,%rsp
   18002a941:	4c 8b d9             	mov    %rcx,%r11
   18002a944:	0f b7 09             	movzwl (%rcx),%ecx
   18002a947:	45 33 e4             	xor    %r12d,%r12d
   18002a94a:	49 8b d8             	mov    %r8,%rbx
   18002a94d:	48 8b f2             	mov    %rdx,%rsi
   18002a950:	49 8b ec             	mov    %r12,%rbp
   18002a953:	4d 8b cc             	mov    %r12,%r9
   18002a956:	e8 cd fe ff ff       	call   0x18002a828
   18002a95b:	41 3a c4             	cmp    %r12b,%al
   18002a95e:	0f 84 09 01 00 00    	je     0x18002aa6d
   18002a964:	4d 8b d3             	mov    %r11,%r10
   18002a967:	49 8d 7b 06          	lea    0x6(%r11),%rdi
   18002a96b:	41 0f b7 4a 02       	movzwl 0x2(%r10),%ecx
   18002a970:	e8 b3 fe ff ff       	call   0x18002a828
   18002a975:	41 3a c4             	cmp    %r12b,%al
   18002a978:	0f 84 ef 00 00 00    	je     0x18002aa6d
   18002a97e:	0f b7 4f fe          	movzwl -0x2(%rdi),%ecx
   18002a982:	e8 a1 fe ff ff       	call   0x18002a828
   18002a987:	41 3a c4             	cmp    %r12b,%al
   18002a98a:	0f 84 dd 00 00 00    	je     0x18002aa6d
   18002a990:	0f b7 0f             	movzwl (%rdi),%ecx
   18002a993:	e8 90 fe ff ff       	call   0x18002a828
   18002a998:	41 3a c4             	cmp    %r12b,%al
   18002a99b:	0f 84 cc 00 00 00    	je     0x18002aa6d
   18002a9a1:	48 8b 06             	mov    (%rsi),%rax
   18002a9a4:	48 ff c8             	dec    %rax
   18002a9a7:	4c 3b c8             	cmp    %rax,%r9
   18002a9aa:	0f 83 bd 00 00 00    	jae    0x18002aa6d
   18002a9b0:	41 8a 02             	mov    (%r10),%al
   18002a9b3:	2c 30                	sub    $0x30,%al
   18002a9b5:	3c 09                	cmp    $0x9,%al
   18002a9b7:	76 12                	jbe    0x18002a9cb
   18002a9b9:	41 8a 02             	mov    (%r10),%al
   18002a9bc:	2c 41                	sub    $0x41,%al
   18002a9be:	3c 05                	cmp    $0x5,%al
   18002a9c0:	41 8a 02             	mov    (%r10),%al
   18002a9c3:	77 04                	ja     0x18002a9c9
   18002a9c5:	2c 37                	sub    $0x37,%al
   18002a9c7:	eb 02                	jmp    0x18002a9cb
   18002a9c9:	2c 57                	sub    $0x57,%al
   18002a9cb:	24 0f                	and    $0xf,%al
   18002a9cd:	44 0f b6 c0          	movzbl %al,%r8d
   18002a9d1:	66 41 c1 e0 04       	shl    $0x4,%r8w
   18002a9d6:	66 46 89 04 4b       	mov    %r8w,(%rbx,%r9,2)
   18002a9db:	41 8a 4a 02          	mov    0x2(%r10),%cl
   18002a9df:	8d 41 d0             	lea    -0x30(%rcx),%eax
   18002a9e2:	3c 09                	cmp    $0x9,%al
   18002a9e4:	76 0d                	jbe    0x18002a9f3
   18002a9e6:	8d 41 bf             	lea    -0x41(%rcx),%eax
   18002a9e9:	3c 05                	cmp    $0x5,%al
   18002a9eb:	8d 41 c9             	lea    -0x37(%rcx),%eax
   18002a9ee:	76 03                	jbe    0x18002a9f3
   18002a9f0:	8d 41 a9             	lea    -0x57(%rcx),%eax
   18002a9f3:	0f b6 d0             	movzbl %al,%edx
   18002a9f6:	66 41 0b d0          	or     %r8w,%dx
   18002a9fa:	66 c1 e2 04          	shl    $0x4,%dx
   18002a9fe:	66 42 89 14 4b       	mov    %dx,(%rbx,%r9,2)
   18002aa03:	8a 4f fe             	mov    -0x2(%rdi),%cl
   18002aa06:	8d 41 d0             	lea    -0x30(%rcx),%eax
   18002aa09:	3c 09                	cmp    $0x9,%al
   18002aa0b:	76 0d                	jbe    0x18002aa1a
   18002aa0d:	8d 41 bf             	lea    -0x41(%rcx),%eax
   18002aa10:	3c 05                	cmp    $0x5,%al
   18002aa12:	8d 41 c9             	lea    -0x37(%rcx),%eax
   18002aa15:	76 03                	jbe    0x18002aa1a
   18002aa17:	8d 41 a9             	lea    -0x57(%rcx),%eax
   18002aa1a:	0f b6 c8             	movzbl %al,%ecx
   18002aa1d:	66 0b ca             	or     %dx,%cx
   18002aa20:	66 c1 e1 04          	shl    $0x4,%cx
   18002aa24:	66 42 89 0c 4b       	mov    %cx,(%rbx,%r9,2)
   18002aa29:	8a 07                	mov    (%rdi),%al
   18002aa2b:	2c 30                	sub    $0x30,%al
   18002aa2d:	3c 09                	cmp    $0x9,%al
   18002aa2f:	76 10                	jbe    0x18002aa41
   18002aa31:	8a 07                	mov    (%rdi),%al
   18002aa33:	2c 41                	sub    $0x41,%al
   18002aa35:	3c 05                	cmp    $0x5,%al
   18002aa37:	8a 07                	mov    (%rdi),%al
   18002aa39:	77 04                	ja     0x18002aa3f
   18002aa3b:	2c 37                	sub    $0x37,%al
   18002aa3d:	eb 02                	jmp    0x18002aa41
   18002aa3f:	2c 57                	sub    $0x57,%al
   18002aa41:	0f b6 c0             	movzbl %al,%eax
   18002aa44:	48 83 c5 04          	add    $0x4,%rbp
   18002aa48:	48 83 c7 08          	add    $0x8,%rdi
   18002aa4c:	66 0b c1             	or     %cx,%ax
   18002aa4f:	4d 8d 14 6b          	lea    (%r11,%rbp,2),%r10
   18002aa53:	66 42 89 04 4b       	mov    %ax,(%rbx,%r9,2)
   18002aa58:	41 0f b7 0a          	movzwl (%r10),%ecx
   18002aa5c:	49 ff c1             	inc    %r9
   18002aa5f:	e8 c4 fd ff ff       	call   0x18002a828
   18002aa64:	41 3a c4             	cmp    %r12b,%al
   18002aa67:	0f 85 fe fe ff ff    	jne    0x18002a96b
   18002aa6d:	48 8b 6c 24 38       	mov    0x38(%rsp),%rbp
   18002aa72:	48 8b 7c 24 48       	mov    0x48(%rsp),%rdi
   18002aa77:	4c 89 0e             	mov    %r9,(%rsi)
   18002aa7a:	48 8b 74 24 40       	mov    0x40(%rsp),%rsi
   18002aa7f:	66 46 89 24 4b       	mov    %r12w,(%rbx,%r9,2)
   18002aa84:	48 8b 5c 24 30       	mov    0x30(%rsp),%rbx
   18002aa89:	48 83 c4 20          	add    $0x20,%rsp
   18002aa8d:	41 5c                	pop    %r12
   18002aa8f:	c3                   	ret
   18002aa90:	48 89 5c 24 10       	mov    %rbx,0x10(%rsp)
   18002aa95:	48 89 6c 24 18       	mov    %rbp,0x18(%rsp)
   18002aa9a:	56                   	push   %rsi
   18002aa9b:	57                   	push   %rdi
   18002aa9c:	41 54                	push   %r12
   18002aa9e:	48 83 ec 20          	sub    $0x20,%rsp
   18002aaa2:	48 8b 05 17 5f 02 00 	mov    0x25f17(%rip),%rax        # 0x1800509c0
   18002aaa9:	45 33 e4             	xor    %r12d,%r12d
   18002aaac:	48 8b f1             	mov    %rcx,%rsi
   18002aaaf:	41 8d 4c 24 04       	lea    0x4(%r12),%ecx
   18002aab4:	4c 8d 44 24 40       	lea    0x40(%rsp),%r8
   18002aab9:	49 8b dc             	mov    %r12,%rbx
   18002aabc:	49 8b ec             	mov    %r12,%rbp
   18002aabf:	ff 50 40             	call   *0x40(%rax)
   18002aac2:	66 44 39 26          	cmp    %r12w,(%rsi)
   18002aac6:	74 5f                	je     0x18002ab27
   18002aac8:	48 8b fe             	mov    %rsi,%rdi
   18002aacb:	66 83 3f 26          	cmpw   $0x26,(%rdi)
   18002aacf:	75 3a                	jne    0x18002ab0b
   18002aad1:	48 8b 15 38 c6 01 00 	mov    0x1c638(%rip),%rdx        # 0x180047110
   18002aad8:	48 8d 4f 02          	lea    0x2(%rdi),%rcx
   18002aadc:	41 b8 0c 00 00 00    	mov    $0xc,%r8d
   18002aae2:	e8 9d ca fd ff       	call   0x180007584
   18002aae7:	49 3b c4             	cmp    %r12,%rax
   18002aaea:	75 1f                	jne    0x18002ab0b
   18002aaec:	eb 06                	jmp    0x18002aaf4
   18002aaee:	66 41 3b c4          	cmp    %r12w,%ax
   18002aaf2:	74 0d                	je     0x18002ab01
   18002aaf4:	48 ff c3             	inc    %rbx
   18002aaf7:	0f b7 04 5e          	movzwl (%rsi,%rbx,2),%eax
   18002aafb:	66 83 f8 26          	cmp    $0x26,%ax
   18002aaff:	75 ed                	jne    0x18002aaee
   18002ab01:	48 8d 3c 5e          	lea    (%rsi,%rbx,2),%rdi
   18002ab05:	66 44 39 27          	cmp    %r12w,(%rdi)
   18002ab09:	74 1c                	je     0x18002ab27
   18002ab0b:	0f b7 0f             	movzwl (%rdi),%ecx
   18002ab0e:	48 8b 44 24 40       	mov    0x40(%rsp),%rax
   18002ab13:	48 ff c3             	inc    %rbx
   18002ab16:	66 89 0c 68          	mov    %cx,(%rax,%rbp,2)
   18002ab1a:	48 8d 3c 5e          	lea    (%rsi,%rbx,2),%rdi
   18002ab1e:	48 ff c5             	inc    %rbp
   18002ab21:	66 44 39 27          	cmp    %r12w,(%rdi)
   18002ab25:	75 a4                	jne    0x18002aacb
   18002ab27:	48 8b 44 24 40       	mov    0x40(%rsp),%rax
   18002ab2c:	4c 8d 44 2d 02       	lea    0x2(%rbp,%rbp,1),%r8
   18002ab31:	48 8b ce             	mov    %rsi,%rcx
   18002ab34:	66 44 89 24 68       	mov    %r12w,(%rax,%rbp,2)
   18002ab39:	48 8b 54 24 40       	mov    0x40(%rsp),%rdx
   18002ab3e:	e8 cd ef fd ff       	call   0x180009b10
   18002ab43:	48 8b 05 76 5e 02 00 	mov    0x25e76(%rip),%rax        # 0x1800509c0
   18002ab4a:	48 8b 4c 24 40       	mov    0x40(%rsp),%rcx
   18002ab4f:	ff 50 48             	call   *0x48(%rax)
   18002ab52:	48 8b 5c 24 48       	mov    0x48(%rsp),%rbx
   18002ab57:	48 8b 6c 24 50       	mov    0x50(%rsp),%rbp
   18002ab5c:	48 83 c4 20          	add    $0x20,%rsp
   18002ab60:	41 5c                	pop    %r12
   18002ab62:	5f                   	pop    %rdi
   18002ab63:	5e                   	pop    %rsi
   18002ab64:	c3                   	ret
   18002ab65:	cc                   	int3
   18002ab66:	cc                   	int3
   18002ab67:	cc                   	int3
   18002ab68:	48 83 61 10 00       	andq   $0x0,0x10(%rcx)
   18002ab6d:	48 c7 41 08 00 10 00 	movq   $0x1000,0x8(%rcx)
   18002ab74:	00
   18002ab75:	48 8b 05 44 5e 02 00 	mov    0x25e44(%rip),%rax        # 0x1800509c0
   18002ab7c:	4c 8b c1             	mov    %rcx,%r8
   18002ab7f:	ba 00 20 00 00       	mov    $0x2000,%edx
   18002ab84:	b9 04 00 00 00       	mov    $0x4,%ecx
   18002ab89:	48 ff 60 40          	rex.W jmp *0x40(%rax)
   18002ab8d:	cc                   	int3
   18002ab8e:	cc                   	int3
   18002ab8f:	cc                   	int3
   18002ab90:	48 89 5c 24 08       	mov    %rbx,0x8(%rsp)
   18002ab95:	45 33 c9             	xor    %r9d,%r9d
   18002ab98:	4c 8b d2             	mov    %rdx,%r10
   18002ab9b:	4c 8b d9             	mov    %rcx,%r11
   18002ab9e:	48 85 d2             	test   %rdx,%rdx
   18002aba1:	74 53                	je     0x18002abf6
   18002aba3:	48 8d 5a ff          	lea    -0x1(%rdx),%rbx
   18002aba7:	43 8a 14 4b          	mov    (%r11,%r9,2),%dl
   18002abab:	4c 3b cb             	cmp    %rbx,%r9
   18002abae:	75 04                	jne    0x18002abb4
   18002abb0:	32 c9                	xor    %cl,%cl
   18002abb2:	eb 1a                	jmp    0x18002abce
   18002abb4:	8d 4a d0             	lea    -0x30(%rdx),%ecx
   18002abb7:	80 f9 09             	cmp    $0x9,%cl
   18002abba:	76 0d                	jbe    0x18002abc9
   18002abbc:	8d 42 bf             	lea    -0x41(%rdx),%eax
   18002abbf:	8d 4a c9             	lea    -0x37(%rdx),%ecx
   18002abc2:	3c 05                	cmp    $0x5,%al
   18002abc4:	76 03                	jbe    0x18002abc9
   18002abc6:	8d 4a a9             	lea    -0x57(%rdx),%ecx
   18002abc9:	43 8a 54 4b 02       	mov    0x2(%r11,%r9,2),%dl
   18002abce:	8d 42 d0             	lea    -0x30(%rdx),%eax
   18002abd1:	3c 09                	cmp    $0x9,%al
   18002abd3:	76 0d                	jbe    0x18002abe2
   18002abd5:	8d 42 bf             	lea    -0x41(%rdx),%eax
   18002abd8:	3c 05                	cmp    $0x5,%al
   18002abda:	8d 42 c9             	lea    -0x37(%rdx),%eax
   18002abdd:	76 03                	jbe    0x18002abe2
   18002abdf:	8d 42 a9             	lea    -0x57(%rdx),%eax
   18002abe2:	c0 e1 04             	shl    $0x4,%cl
   18002abe5:	49 83 c1 02          	add    $0x2,%r9
   18002abe9:	0a c8                	or     %al,%cl
   18002abeb:	41 88 08             	mov    %cl,(%r8)
   18002abee:	49 ff c0             	inc    %r8
   18002abf1:	4d 3b ca             	cmp    %r10,%r9
   18002abf4:	72 b1                	jb     0x18002aba7
   18002abf6:	48 8b 5c 24 08       	mov    0x8(%rsp),%rbx
   18002abfb:	c3                   	ret
   18002abfc:	48 89 5c 24 18       	mov    %rbx,0x18(%rsp)
   18002ac01:	55                   	push   %rbp
   18002ac02:	56                   	push   %rsi
   18002ac03:	57                   	push   %rdi
   18002ac04:	41 54                	push   %r12
   18002ac06:	41 55                	push   %r13
   18002ac08:	41 56                	push   %r14
   18002ac0a:	41 57                	push   %r15
   18002ac0c:	48 83 ec 40          	sub    $0x40,%rsp
   18002ac10:	48 8b 3a             	mov    (%rdx),%rdi
   18002ac13:	4c 8b fa             	mov    %rdx,%r15
   18002ac16:	48 8b 15 f3 c4 01 00 	mov    0x1c4f3(%rip),%rdx        # 0x180047110
   18002ac1d:	48 8b e9             	mov    %rcx,%rbp
   18002ac20:	4d 8b e8             	mov    %r8,%r13
   18002ac23:	48 8d 0c 79          	lea    (%rcx,%rdi,2),%rcx
   18002ac27:	41 b8 0c 00 00 00    	mov    $0xc,%r8d
   18002ac2d:	45 8b e1             	mov    %r9d,%r12d
   18002ac30:	48 c7 84 24 88 00 00 	movq   $0x14,0x88(%rsp)
   18002ac37:	00 14 00 00 00
   18002ac3c:	e8 43 c9 fd ff       	call   0x180007584
   18002ac41:	33 db                	xor    %ebx,%ebx
   18002ac43:	48 3b c3             	cmp    %rbx,%rax
   18002ac46:	74 0f                	je     0x18002ac57
   18002ac48:	48 b8 02 00 00 00 00 	movabs $0x8000000000000002,%rax
   18002ac4f:	00 00 80
   18002ac52:	e9 fa 00 00 00       	jmp    0x18002ad51
   18002ac57:	48 83 c7 06          	add    $0x6,%rdi
   18002ac5b:	48 8b f7             	mov    %rdi,%rsi
   18002ac5e:	4c 8d 74 7d 00       	lea    0x0(%rbp,%rdi,2),%r14
   18002ac63:	41 0f b7 06          	movzwl (%r14),%eax
   18002ac67:	eb 19                	jmp    0x18002ac82
   18002ac69:	66 3b c3             	cmp    %bx,%ax
   18002ac6c:	74 1a                	je     0x18002ac88
   18002ac6e:	0f b7 c8             	movzwl %ax,%ecx
   18002ac71:	e8 b2 fb ff ff       	call   0x18002a828
   18002ac76:	3a c3                	cmp    %bl,%al
   18002ac78:	74 ce                	je     0x18002ac48
   18002ac7a:	48 ff c6             	inc    %rsi
   18002ac7d:	66 8b 44 75 00       	mov    0x0(%rbp,%rsi,2),%ax
   18002ac82:	66 83 f8 26          	cmp    $0x26,%ax
   18002ac86:	75 e1                	jne    0x18002ac69
   18002ac88:	48 8b ee             	mov    %rsi,%rbp
   18002ac8b:	48 2b ef             	sub    %rdi,%rbp
   18002ac8e:	41 83 fc 14          	cmp    $0x14,%r12d
   18002ac92:	76 3f                	jbe    0x18002acd3
   18002ac94:	48 8b 05 25 5d 02 00 	mov    0x25d25(%rip),%rax        # 0x1800509c0
   18002ac9b:	4c 8d 84 24 80 00 00 	lea    0x80(%rsp),%r8
   18002aca2:	00
   18002aca3:	49 8b d4             	mov    %r12,%rdx
   18002aca6:	b9 04 00 00 00       	mov    $0x4,%ecx
   18002acab:	4c 89 a4 24 88 00 00 	mov    %r12,0x88(%rsp)
   18002acb2:	00
   18002acb3:	ff 50 40             	call   *0x40(%rax)
   18002acb6:	48 b9 00 00 00 00 00 	movabs $0x8000000000000000,%rcx
   18002acbd:	00 00 80
   18002acc0:	48 85 c1             	test   %rax,%rcx
   18002acc3:	0f 85 88 00 00 00    	jne    0x18002ad51
   18002acc9:	48 8b 8c 24 80 00 00 	mov    0x80(%rsp),%rcx
   18002acd0:	00
   18002acd1:	eb 0d                	jmp    0x18002ace0
   18002acd3:	48 8d 4c 24 20       	lea    0x20(%rsp),%rcx
   18002acd8:	48 89 8c 24 80 00 00 	mov    %rcx,0x80(%rsp)
   18002acdf:	00
   18002ace0:	48 8b 94 24 88 00 00 	mov    0x88(%rsp),%rdx
   18002ace7:	00
   18002ace8:	45 33 c0             	xor    %r8d,%r8d
   18002aceb:	e8 e0 ef fd ff       	call   0x180009cd0
   18002acf0:	4c 8b 84 24 80 00 00 	mov    0x80(%rsp),%r8
   18002acf7:	00
   18002acf8:	48 8b d5             	mov    %rbp,%rdx
   18002acfb:	49 8b ce             	mov    %r14,%rcx
   18002acfe:	e8 8d fe ff ff       	call   0x18002ab90
   18002ad03:	4c 8b 9c 24 80 00 00 	mov    0x80(%rsp),%r11
   18002ad0a:	00
   18002ad0b:	41 83 fc 01          	cmp    $0x1,%r12d
   18002ad0f:	76 1d                	jbe    0x18002ad2e
   18002ad11:	4c 3b e3             	cmp    %rbx,%r12
   18002ad14:	76 1f                	jbe    0x18002ad35
   18002ad16:	4b 8d 54 1c ff       	lea    -0x1(%r12,%r11,1),%rdx
   18002ad1b:	8a 02                	mov    (%rdx),%al
   18002ad1d:	48 ff ca             	dec    %rdx
   18002ad20:	42 88 04 2b          	mov    %al,(%rbx,%r13,1)
   18002ad24:	48 ff c3             	inc    %rbx
   18002ad27:	49 3b dc             	cmp    %r12,%rbx
   18002ad2a:	72 ef                	jb     0x18002ad1b
   18002ad2c:	eb 07                	jmp    0x18002ad35
   18002ad2e:	41 8a 03             	mov    (%r11),%al
   18002ad31:	41 88 45 00          	mov    %al,0x0(%r13)
   18002ad35:	41 83 fc 14          	cmp    $0x14,%r12d
   18002ad39:	76 0d                	jbe    0x18002ad48
   18002ad3b:	48 8b 05 7e 5c 02 00 	mov    0x25c7e(%rip),%rax        # 0x1800509c0
   18002ad42:	49 8b cb             	mov    %r11,%rcx
   18002ad45:	ff 50 48             	call   *0x48(%rax)
   18002ad48:	48 8d 46 01          	lea    0x1(%rsi),%rax
   18002ad4c:	49 89 07             	mov    %rax,(%r15)
   18002ad4f:	33 c0                	xor    %eax,%eax
   18002ad51:	48 8b 9c 24 90 00 00 	mov    0x90(%rsp),%rbx
   18002ad58:	00
   18002ad59:	48 83 c4 40          	add    $0x40,%rsp
   18002ad5d:	41 5f                	pop    %r15
   18002ad5f:	41 5e                	pop    %r14
   18002ad61:	41 5d                	pop    %r13
   18002ad63:	41 5c                	pop    %r12
   18002ad65:	5f                   	pop    %rdi
   18002ad66:	5e                   	pop    %rsi
   18002ad67:	5d                   	pop    %rbp
   18002ad68:	c3                   	ret
   18002ad69:	cc                   	int3
   18002ad6a:	cc                   	int3
   18002ad6b:	cc                   	int3
   18002ad6c:	48 8b c4             	mov    %rsp,%rax
   18002ad6f:	48 89 58 08          	mov    %rbx,0x8(%rax)
   18002ad73:	48 89 68 10          	mov    %rbp,0x10(%rax)
   18002ad77:	48 89 70 18          	mov    %rsi,0x18(%rax)
   18002ad7b:	48 89 78 20          	mov    %rdi,0x20(%rax)
   18002ad7f:	41 54                	push   %r12
   18002ad81:	41 55                	push   %r13
   18002ad83:	41 56                	push   %r14
   18002ad85:	48 83 ec 20          	sub    $0x20,%rsp
   18002ad89:	45 33 f6             	xor    %r14d,%r14d
   18002ad8c:	4c 8b e2             	mov    %rdx,%r12
   18002ad8f:	49 8b 50 08          	mov    0x8(%r8),%rdx
   18002ad93:	66 83 3a 56          	cmpw   $0x56,(%rdx)
   18002ad97:	4d 8b e9             	mov    %r9,%r13
   18002ad9a:	49 8b d8             	mov    %r8,%rbx
   18002ad9d:	48 8b f9             	mov    %rcx,%rdi
   18002ada0:	41 8a ee             	mov    %r14b,%bpl
   18002ada3:	74 06                	je     0x18002adab
   18002ada5:	66 83 3a 57          	cmpw   $0x57,(%rdx)
   18002ada9:	75 03                	jne    0x18002adae
   18002adab:	40 b5 01             	mov    $0x1,%bpl
   18002adae:	49 8b 34 24          	mov    (%r12),%rsi
   18002adb2:	4d 8b 00             	mov    (%r8),%r8
   18002adb5:	48 8d 0c 71          	lea    (%rcx,%rsi,2),%rcx
   18002adb9:	e8 c6 c7 fd ff       	call   0x180007584
   18002adbe:	49 3b c6             	cmp    %r14,%rax
   18002adc1:	74 0c                	je     0x18002adcf
   18002adc3:	48 b8 02 00 00 00 00 	movabs $0x8000000000000002,%rax
   18002adca:	00 00 80
   18002adcd:	eb 5a                	jmp    0x18002ae29
   18002adcf:	48 8b 03             	mov    (%rbx),%rax
   18002add2:	48 d1 e8             	shr    %rax
   18002add5:	48 03 f0             	add    %rax,%rsi
   18002add8:	48 8b de             	mov    %rsi,%rbx
   18002addb:	0f b7 04 77          	movzwl (%rdi,%rsi,2),%eax
   18002addf:	eb 1a                	jmp    0x18002adfb
   18002ade1:	66 41 3b c6          	cmp    %r14w,%ax
   18002ade5:	74 1a                	je     0x18002ae01
   18002ade7:	0f b7 c8             	movzwl %ax,%ecx
   18002adea:	e8 39 fa ff ff       	call   0x18002a828
   18002adef:	41 3a c6             	cmp    %r14b,%al
   18002adf2:	74 cf                	je     0x18002adc3
   18002adf4:	48 ff c3             	inc    %rbx
   18002adf7:	66 8b 04 5f          	mov    (%rdi,%rbx,2),%ax
   18002adfb:	66 83 f8 26          	cmp    $0x26,%ax
   18002adff:	75 e0                	jne    0x18002ade1
   18002ae01:	66 44 39 34 5f       	cmp    %r14w,(%rdi,%rbx,2)
   18002ae06:	75 05                	jne    0x18002ae0d
   18002ae08:	41 3a ee             	cmp    %r14b,%bpl
   18002ae0b:	74 b6                	je     0x18002adc3
   18002ae0d:	4c 8b c3             	mov    %rbx,%r8
   18002ae10:	48 8b d6             	mov    %rsi,%rdx
   18002ae13:	48 8b cf             	mov    %rdi,%rcx
   18002ae16:	e8 31 fa ff ff       	call   0x18002a84c
   18002ae1b:	41 89 45 00          	mov    %eax,0x0(%r13)
   18002ae1f:	48 8d 43 01          	lea    0x1(%rbx),%rax
   18002ae23:	49 89 04 24          	mov    %rax,(%r12)
   18002ae27:	33 c0                	xor    %eax,%eax
   18002ae29:	48 8b 5c 24 40       	mov    0x40(%rsp),%rbx
   18002ae2e:	48 8b 6c 24 48       	mov    0x48(%rsp),%rbp
   18002ae33:	48 8b 74 24 50       	mov    0x50(%rsp),%rsi
   18002ae38:	48 8b 7c 24 58       	mov    0x58(%rsp),%rdi
   18002ae3d:	48 83 c4 20          	add    $0x20,%rsp
   18002ae41:	41 5e                	pop    %r14
   18002ae43:	41 5d                	pop    %r13
   18002ae45:	41 5c                	pop    %r12
   18002ae47:	c3                   	ret
   18002ae48:	48 8b c4             	mov    %rsp,%rax
   18002ae4b:	48 89 58 08          	mov    %rbx,0x8(%rax)
   18002ae4f:	48 89 68 10          	mov    %rbp,0x10(%rax)
   18002ae53:	48 89 70 18          	mov    %rsi,0x18(%rax)
   18002ae57:	48 89 78 20          	mov    %rdi,0x20(%rax)
   18002ae5b:	41 54                	push   %r12
   18002ae5d:	48 83 ec 20          	sub    $0x20,%rsp
   18002ae61:	48 8d 79 0a          	lea    0xa(%rcx),%rdi
   18002ae65:	4d 8b e0             	mov    %r8,%r12
   18002ae68:	48 8b ea             	mov    %rdx,%rbp
   18002ae6b:	0f b7 0f             	movzwl (%rdi),%ecx
   18002ae6e:	33 db                	xor    %ebx,%ebx
   18002ae70:	e8 b3 f9 ff ff       	call   0x18002a828
   18002ae75:	84 c0                	test   %al,%al
   18002ae77:	74 17                	je     0x18002ae90
   18002ae79:	4c 8b cf             	mov    %rdi,%r9
   18002ae7c:	49 83 c1 02          	add    $0x2,%r9
   18002ae80:	48 ff c3             	inc    %rbx
   18002ae83:	41 0f b7 09          	movzwl (%r9),%ecx
   18002ae87:	e8 9c f9 ff ff       	call   0x18002a828
   18002ae8c:	84 c0                	test   %al,%al
   18002ae8e:	75 ec                	jne    0x18002ae7c
   18002ae90:	48 8b 05 29 5b 02 00 	mov    0x25b29(%rip),%rax        # 0x1800509c0
   18002ae97:	4c 8b c2             	mov    %rdx,%r8
   18002ae9a:	48 8b f3             	mov    %rbx,%rsi
   18002ae9d:	48 d1 ee             	shr    %rsi
   18002aea0:	b9 04 00 00 00       	mov    $0x4,%ecx
   18002aea5:	48 8b d6             	mov    %rsi,%rdx
   18002aea8:	ff 50 40             	call   *0x40(%rax)
   18002aeab:	48 b9 00 00 00 00 00 	movabs $0x8000000000000000,%rcx
   18002aeb2:	00 00 80
   18002aeb5:	48 85 c1             	test   %rax,%rcx
   18002aeb8:	75 15                	jne    0x18002aecf
   18002aeba:	4c 8b 45 00          	mov    0x0(%rbp),%r8
   18002aebe:	48 8b d3             	mov    %rbx,%rdx
   18002aec1:	48 8b cf             	mov    %rdi,%rcx
   18002aec4:	e8 c7 fc ff ff       	call   0x18002ab90
   18002aec9:	49 89 34 24          	mov    %rsi,(%r12)
   18002aecd:	33 c0                	xor    %eax,%eax
   18002aecf:	48 8b 5c 24 30       	mov    0x30(%rsp),%rbx
   18002aed4:	48 8b 6c 24 38       	mov    0x38(%rsp),%rbp
   18002aed9:	48 8b 74 24 40       	mov    0x40(%rsp),%rsi
   18002aede:	48 8b 7c 24 48       	mov    0x48(%rsp),%rdi
   18002aee3:	48 83 c4 20          	add    $0x20,%rsp
   18002aee7:	41 5c                	pop    %r12
   18002aee9:	c3                   	ret
   18002aeea:	cc                   	int3
   18002aeeb:	cc                   	int3
   18002aeec:	48 8b c4             	mov    %rsp,%rax
   18002aeef:	48 89 58 08          	mov    %rbx,0x8(%rax)
   18002aef3:	48 89 68 10          	mov    %rbp,0x10(%rax)
   18002aef7:	48 89 70 18          	mov    %rsi,0x18(%rax)
   18002aefb:	48 89 78 20          	mov    %rdi,0x20(%rax)
   18002aeff:	41 54                	push   %r12
   18002af01:	48 83 ec 20          	sub    $0x20,%rsp
   18002af05:	48 8b 3d a4 16 02 00 	mov    0x216a4(%rip),%rdi        # 0x18004c5b0
   18002af0c:	49 8b f0             	mov    %r8,%rsi
   18002af0f:	48 8b ea             	mov    %rdx,%rbp
   18002af12:	4c 8b e1             	mov    %rcx,%r12
   18002af15:	48 85 ff             	test   %rdi,%rdi
   18002af18:	74 49                	je     0x18002af63
   18002af1a:	48 8b 5f 34          	mov    0x34(%rdi),%rbx
   18002af1e:	eb 2e                	jmp    0x18002af4e
   18002af20:	80 7b 13 08          	cmpb   $0x8,0x13(%rbx)
   18002af24:	75 25                	jne    0x18002af4b
   18002af26:	44 8b 43 10          	mov    0x10(%rbx),%r8d
   18002af2a:	41 81 e0 ff ff ff 00 	and    $0xffffff,%r8d
   18002af31:	49 83 e8 04          	sub    $0x4,%r8
   18002af35:	4c 3b c5             	cmp    %rbp,%r8
   18002af38:	75 11                	jne    0x18002af4b
   18002af3a:	48 8d 53 14          	lea    0x14(%rbx),%rdx
   18002af3e:	49 8b cc             	mov    %r12,%rcx
   18002af41:	e8 3e c6 fd ff       	call   0x180007584
   18002af46:	48 85 c0             	test   %rax,%rax
   18002af49:	74 0d                	je     0x18002af58
   18002af4b:	48 8b 1b             	mov    (%rbx),%rbx
   18002af4e:	48 85 db             	test   %rbx,%rbx
   18002af51:	75 cd                	jne    0x18002af20
   18002af53:	48 8b 3f             	mov    (%rdi),%rdi
   18002af56:	eb bd                	jmp    0x18002af15
   18002af58:	48 8b 47 24          	mov    0x24(%rdi),%rax
   18002af5c:	48 89 06             	mov    %rax,(%rsi)
   18002af5f:	33 c0                	xor    %eax,%eax
   18002af61:	eb 0a                	jmp    0x18002af6d
   18002af63:	48 b8 0e 00 00 00 00 	movabs $0x800000000000000e,%rax
   18002af6a:	00 00 80
   18002af6d:	48 8b 5c 24 30       	mov    0x30(%rsp),%rbx
   18002af72:	48 8b 6c 24 38       	mov    0x38(%rsp),%rbp
   18002af77:	48 8b 74 24 40       	mov    0x40(%rsp),%rsi
   18002af7c:	48 8b 7c 24 48       	mov    0x48(%rsp),%rdi
   18002af81:	48 83 c4 20          	add    $0x20,%rsp
   18002af85:	41 5c                	pop    %r12
   18002af87:	c3                   	ret
   18002af88:	48 89 5c 24 08       	mov    %rbx,0x8(%rsp)
   18002af8d:	48 89 6c 24 10       	mov    %rbp,0x10(%rsp)
   18002af92:	48 89 74 24 18       	mov    %rsi,0x18(%rsp)
   18002af97:	57                   	push   %rdi
   18002af98:	41 54                	push   %r12
   18002af9a:	41 55                	push   %r13
   18002af9c:	48 83 ec 20          	sub    $0x20,%rsp
   18002afa0:	45 33 ed             	xor    %r13d,%r13d
   18002afa3:	49 8b f0             	mov    %r8,%rsi
   18002afa6:	4c 8b e2             	mov    %rdx,%r12
   18002afa9:	48 8b f9             	mov    %rcx,%rdi
   18002afac:	48 8b e9             	mov    %rcx,%rbp
   18002afaf:	49 8b dd             	mov    %r13,%rbx
   18002afb2:	0f b7 45 00          	movzwl 0x0(%rbp),%eax
   18002afb6:	eb 0d                	jmp    0x18002afc5
   18002afb8:	66 41 3b c5          	cmp    %r13w,%ax
   18002afbc:	74 0d                	je     0x18002afcb
   18002afbe:	48 ff c3             	inc    %rbx
   18002afc1:	66 8b 04 5f          	mov    (%rdi,%rbx,2),%ax
   18002afc5:	66 83 f8 26          	cmp    $0x26,%ax
   18002afc9:	75 ed                	jne    0x18002afb8
   18002afcb:	66 44 39 2c 5f       	cmp    %r13w,(%rdi,%rbx,2)
   18002afd0:	74 68                	je     0x18002b03a
   18002afd2:	48 8b 15 d7 c0 01 00 	mov    0x1c0d7(%rip),%rdx        # 0x1800470b0
   18002afd9:	48 ff c3             	inc    %rbx
   18002afdc:	41 b8 0a 00 00 00    	mov    $0xa,%r8d
   18002afe2:	48 8d 2c 5f          	lea    (%rdi,%rbx,2),%rbp
   18002afe6:	48 8b cd             	mov    %rbp,%rcx
   18002afe9:	e8 96 c5 fd ff       	call   0x180007584
   18002afee:	49 3b c5             	cmp    %r13,%rax
   18002aff1:	75 bf                	jne    0x18002afb2
   18002aff3:	48 8b 05 c6 59 02 00 	mov    0x259c6(%rip),%rax        # 0x1800509c0
   18002affa:	48 8d 2c 1b          	lea    (%rbx,%rbx,1),%rbp
   18002affe:	4c 8b c6             	mov    %rsi,%r8
   18002b001:	48 8b d5             	mov    %rbp,%rdx
   18002b004:	b9 04 00 00 00       	mov    $0x4,%ecx
   18002b009:	ff 50 40             	call   *0x40(%rax)
   18002b00c:	48 b9 00 00 00 00 00 	movabs $0x8000000000000000,%rcx
   18002b013:	00 00 80
   18002b016:	48 85 c1             	test   %rax,%rcx
   18002b019:	75 24                	jne    0x18002b03f
   18002b01b:	48 8b 0e             	mov    (%rsi),%rcx
   18002b01e:	4c 8d 44 1b fe       	lea    -0x2(%rbx,%rbx,1),%r8
   18002b023:	48 8b d7             	mov    %rdi,%rdx
   18002b026:	e8 e5 ea fd ff       	call   0x180009b10
   18002b02b:	4c 8b 1e             	mov    (%rsi),%r11
   18002b02e:	66 45 89 6c 2b fe    	mov    %r13w,-0x2(%r11,%rbp,1)
   18002b034:	49 89 1c 24          	mov    %rbx,(%r12)
   18002b038:	eb 03                	jmp    0x18002b03d
   18002b03a:	4c 89 2e             	mov    %r13,(%rsi)
   18002b03d:	33 c0                	xor    %eax,%eax
   18002b03f:	48 8b 5c 24 40       	mov    0x40(%rsp),%rbx
   18002b044:	48 8b 6c 24 48       	mov    0x48(%rsp),%rbp
   18002b049:	48 8b 74 24 50       	mov    0x50(%rsp),%rsi
   18002b04e:	48 83 c4 20          	add    $0x20,%rsp
   18002b052:	41 5d                	pop    %r13
   18002b054:	41 5c                	pop    %r12
   18002b056:	5f                   	pop    %rdi
   18002b057:	c3                   	ret
   18002b058:	48 89 5c 24 08       	mov    %rbx,0x8(%rsp)
   18002b05d:	48 89 74 24 10       	mov    %rsi,0x10(%rsp)
   18002b062:	57                   	push   %rdi
   18002b063:	48 83 ec 20          	sub    $0x20,%rsp
   18002b067:	49 8b d8             	mov    %r8,%rbx
   18002b06a:	48 8b fa             	mov    %rdx,%rdi
   18002b06d:	48 8b f1             	mov    %rcx,%rsi
   18002b070:	48 85 d2             	test   %rdx,%rdx
   18002b073:	75 0a                	jne    0x18002b07f
   18002b075:	e8 4a 21 00 00       	call   0x18002d1c4
   18002b07a:	8b f8                	mov    %eax,%edi
   18002b07c:	48 d1 ef             	shr    %rdi
   18002b07f:	48 8b 4b 10          	mov    0x10(%rbx),%rcx
   18002b083:	48 03 cf             	add    %rdi,%rcx
   18002b086:	48 39 4b 08          	cmp    %rcx,0x8(%rbx)
   18002b08a:	73 1a                	jae    0x18002b0a6
   18002b08c:	48 03 c9             	add    %rcx,%rcx
   18002b08f:	48 8b d3             	mov    %rbx,%rdx
   18002b092:	e8 29 f8 ff ff       	call   0x18002a8c0
   18002b097:	48 b9 00 00 00 00 00 	movabs $0x8000000000000000,%rcx
   18002b09e:	00 00 80
   18002b0a1:	48 85 c1             	test   %rax,%rcx
   18002b0a4:	75 30                	jne    0x18002b0d6
   18002b0a6:	48 8b 43 10          	mov    0x10(%rbx),%rax
   18002b0aa:	48 8b 0b             	mov    (%rbx),%rcx
   18002b0ad:	48 85 c0             	test   %rax,%rax
   18002b0b0:	74 0a                	je     0x18002b0bc
   18002b0b2:	ba 26 00 00 00       	mov    $0x26,%edx
   18002b0b7:	66 89 54 41 fe       	mov    %dx,-0x2(%rcx,%rax,2)
   18002b0bc:	48 8b 43 10          	mov    0x10(%rbx),%rax
   18002b0c0:	4c 8d 04 3f          	lea    (%rdi,%rdi,1),%r8
   18002b0c4:	48 8b d6             	mov    %rsi,%rdx
   18002b0c7:	48 8d 0c 41          	lea    (%rcx,%rax,2),%rcx
   18002b0cb:	e8 40 ea fd ff       	call   0x180009b10
   18002b0d0:	48 01 7b 10          	add    %rdi,0x10(%rbx)
   18002b0d4:	33 c0                	xor    %eax,%eax
   18002b0d6:	48 8b 5c 24 30       	mov    0x30(%rsp),%rbx
   18002b0db:	48 8b 74 24 38       	mov    0x38(%rsp),%rsi
   18002b0e0:	48 83 c4 20          	add    $0x20,%rsp
   18002b0e4:	5f                   	pop    %rdi
   18002b0e5:	c3                   	ret
   18002b0e6:	cc                   	int3
   18002b0e7:	cc                   	int3
   18002b0e8:	4c 8b dc             	mov    %rsp,%r11
   18002b0eb:	49 89 5b 08          	mov    %rbx,0x8(%r11)
   18002b0ef:	49 89 6b 10          	mov    %rbp,0x10(%r11)
   18002b0f3:	49 89 73 18          	mov    %rsi,0x18(%r11)
   18002b0f7:	57                   	push   %rdi
   18002b0f8:	48 83 ec 30          	sub    $0x30,%rsp
   18002b0fc:	48 8d 2d fd 4e fd ff 	lea    -0x2b103(%rip),%rbp        # 0x180000000
   18002b103:	48 8b f9             	mov    %rcx,%rdi
   18002b106:	49 8d 4b e8          	lea    -0x18(%r11),%rcx
   18002b10a:	48 8b 85 38 70 04 00 	mov    0x47038(%rbp),%rax
   18002b111:	8b da                	mov    %edx,%ebx
   18002b113:	49 8b f0             	mov    %r8,%rsi
   18002b116:	48 89 01             	mov    %rax,(%rcx)
   18002b119:	8b 85 40 70 04 00    	mov    0x47040(%rbp),%eax
   18002b11f:	8d 54 1b 07          	lea    0x7(%rbx,%rbx,1),%edx
   18002b123:	89 41 08             	mov    %eax,0x8(%rcx)
   18002b126:	0f b7 85 44 70 04 00 	movzwl 0x47044(%rbp),%eax
   18002b12d:	4d 8d 43 20          	lea    0x20(%r11),%r8
   18002b131:	66 89 41 0c          	mov    %ax,0xc(%rcx)
   18002b135:	48 8b 05 84 58 02 00 	mov    0x25884(%rip),%rax        # 0x1800509c0
   18002b13c:	48 03 d2             	add    %rdx,%rdx
   18002b13f:	b9 04 00 00 00       	mov    $0x4,%ecx
   18002b144:	ff 50 40             	call   *0x40(%rax)
   18002b147:	48 b9 00 00 00 00 00 	movabs $0x8000000000000000,%rcx
   18002b14e:	00 00 80
   18002b151:	48 85 c1             	test   %rax,%rcx
   18002b154:	0f 85 8c 00 00 00    	jne    0x18002b1e6
   18002b15a:	48 8b 4c 24 58       	mov    0x58(%rsp),%rcx
   18002b15f:	48 8d 54 24 20       	lea    0x20(%rsp),%rdx
   18002b164:	41 b8 0c 00 00 00    	mov    $0xc,%r8d
   18002b16a:	e8 a1 e9 fd ff       	call   0x180009b10
   18002b16f:	4c 8b 5c 24 58       	mov    0x58(%rsp),%r11
   18002b174:	45 33 c0             	xor    %r8d,%r8d
   18002b177:	49 83 c3 0c          	add    $0xc,%r11
   18002b17b:	48 63 c3             	movslq %ebx,%rax
   18002b17e:	41 3b d8             	cmp    %r8d,%ebx
   18002b181:	76 3b                	jbe    0x18002b1be
   18002b183:	48 8d 4c 38 ff       	lea    -0x1(%rax,%rdi,1),%rcx
   18002b188:	48 8b d3             	mov    %rbx,%rdx
   18002b18b:	0f b6 01             	movzbl (%rcx),%eax
   18002b18e:	48 c1 e8 04          	shr    $0x4,%rax
   18002b192:	0f b7 84 45 18 71 04 	movzwl 0x47118(%rbp,%rax,2),%eax
   18002b199:	00
   18002b19a:	66 41 89 03          	mov    %ax,(%r11)
   18002b19e:	0f b6 01             	movzbl (%rcx),%eax
   18002b1a1:	49 83 c3 04          	add    $0x4,%r11
   18002b1a5:	83 e0 0f             	and    $0xf,%eax
   18002b1a8:	48 ff c9             	dec    %rcx
   18002b1ab:	48 83 ea 01          	sub    $0x1,%rdx
   18002b1af:	0f b7 84 45 18 71 04 	movzwl 0x47118(%rbp,%rax,2),%eax
   18002b1b6:	00
   18002b1b7:	66 41 89 43 fe       	mov    %ax,-0x2(%r11)
   18002b1bc:	75 cd                	jne    0x18002b18b
   18002b1be:	66 45 89 03          	mov    %r8w,(%r11)
   18002b1c2:	48 8b 4c 24 58       	mov    0x58(%rsp),%rcx
   18002b1c7:	33 d2                	xor    %edx,%edx
   18002b1c9:	4c 8b c6             	mov    %rsi,%r8
   18002b1cc:	e8 87 fe ff ff       	call   0x18002b058
   18002b1d1:	48 8b 15 e8 57 02 00 	mov    0x257e8(%rip),%rdx        # 0x1800509c0
   18002b1d8:	48 8b 4c 24 58       	mov    0x58(%rsp),%rcx
   18002b1dd:	48 8b d8             	mov    %rax,%rbx
   18002b1e0:	ff 52 48             	call   *0x48(%rdx)
   18002b1e3:	48 8b c3             	mov    %rbx,%rax
   18002b1e6:	48 8b 5c 24 40       	mov    0x40(%rsp),%rbx
   18002b1eb:	48 8b 6c 24 48       	mov    0x48(%rsp),%rbp
   18002b1f0:	48 8b 74 24 50       	mov    0x50(%rsp),%rsi
   18002b1f5:	48 83 c4 30          	add    $0x30,%rsp
   18002b1f9:	5f                   	pop    %rdi
   18002b1fa:	c3                   	ret
   18002b1fb:	cc                   	int3
   18002b1fc:	48 89 5c 24 08       	mov    %rbx,0x8(%rsp)
   18002b201:	48 89 74 24 10       	mov    %rsi,0x10(%rsp)
   18002b206:	57                   	push   %rdi
   18002b207:	48 83 ec 30          	sub    $0x30,%rsp
   18002b20b:	48 8b f2             	mov    %rdx,%rsi
   18002b20e:	48 8b 15 9b be 01 00 	mov    0x1be9b(%rip),%rdx        # 0x1800470b0
   18002b215:	41 b8 0a 00 00 00    	mov    $0xa,%r8d
   18002b21b:	48 8b f9             	mov    %rcx,%rdi
   18002b21e:	e8 61 c3 fd ff       	call   0x180007584
   18002b223:	33 db                	xor    %ebx,%ebx
   18002b225:	48 3b c3             	cmp    %rbx,%rax
   18002b228:	74 04                	je     0x18002b22e
   18002b22a:	32 c0                	xor    %al,%al
   18002b22c:	eb 2c                	jmp    0x18002b25a
   18002b22e:	48 8d 4f 0a          	lea    0xa(%rdi),%rcx
   18002b232:	4c 8d 44 24 20       	lea    0x20(%rsp),%r8
   18002b237:	ba 20 00 00 00       	mov    $0x20,%edx
   18002b23c:	e8 4f f9 ff ff       	call   0x18002ab90
   18002b241:	48 8d 54 24 20       	lea    0x20(%rsp),%rdx
   18002b246:	41 b8 10 00 00 00    	mov    $0x10,%r8d
   18002b24c:	48 8b ce             	mov    %rsi,%rcx
   18002b24f:	e8 30 c3 fd ff       	call   0x180007584
   18002b254:	48 3b c3             	cmp    %rbx,%rax
   18002b257:	0f 94 c0             	sete   %al
   18002b25a:	48 8b 5c 24 40       	mov    0x40(%rsp),%rbx
   18002b25f:	48 8b 74 24 48       	mov    0x48(%rsp),%rsi
   18002b264:	48 83 c4 30          	add    $0x30,%rsp
   18002b268:	5f                   	pop    %rdi
   18002b269:	c3                   	ret
   18002b26a:	cc                   	int3
   18002b26b:	cc                   	int3
   18002b26c:	48 89 5c 24 10       	mov    %rbx,0x10(%rsp)
   18002b271:	48 89 6c 24 18       	mov    %rbp,0x18(%rsp)
   18002b276:	56                   	push   %rsi
   18002b277:	57                   	push   %rdi
   18002b278:	41 54                	push   %r12
   18002b27a:	48 81 ec c0 00 00 00 	sub    $0xc0,%rsp
   18002b281:	33 ff                	xor    %edi,%edi
   18002b283:	4c 8b e2             	mov    %rdx,%r12
   18002b286:	48 8b f1             	mov    %rcx,%rsi
   18002b289:	48 8b df             	mov    %rdi,%rbx
   18002b28c:	48 8b e9             	mov    %rcx,%rbp
   18002b28f:	0f b7 45 00          	movzwl 0x0(%rbp),%eax
   18002b293:	eb 0c                	jmp    0x18002b2a1
   18002b295:	66 3b c7             	cmp    %di,%ax
   18002b298:	74 0d                	je     0x18002b2a7
   18002b29a:	48 ff c3             	inc    %rbx
   18002b29d:	66 8b 04 5e          	mov    (%rsi,%rbx,2),%ax
   18002b2a1:	66 83 f8 26          	cmp    $0x26,%ax
   18002b2a5:	75 ee                	jne    0x18002b295
   18002b2a7:	66 39 3c 5e          	cmp    %di,(%rsi,%rbx,2)
   18002b2ab:	74 59                	je     0x18002b306
   18002b2ad:	48 8b 15 0c be 01 00 	mov    0x1be0c(%rip),%rdx        # 0x1800470c0
   18002b2b4:	48 ff c3             	inc    %rbx
   18002b2b7:	41 b8 0a 00 00 00    	mov    $0xa,%r8d
   18002b2bd:	48 8d 2c 5e          	lea    (%rsi,%rbx,2),%rbp
   18002b2c1:	48 8b cd             	mov    %rbp,%rcx
   18002b2c4:	e8 bb c2 fd ff       	call   0x180007584
   18002b2c9:	48 3b c7             	cmp    %rdi,%rax
   18002b2cc:	75 c1                	jne    0x18002b28f
   18002b2ce:	48 8d 4c 5e 0a       	lea    0xa(%rsi,%rbx,2),%rcx
   18002b2d3:	4c 8d 44 24 20       	lea    0x20(%rsp),%r8
   18002b2d8:	48 8d 94 24 e0 00 00 	lea    0xe0(%rsp),%rdx
   18002b2df:	00
   18002b2e0:	48 c7 84 24 e0 00 00 	movq   $0x50,0xe0(%rsp)
   18002b2e7:	00 50 00 00 00
   18002b2ec:	e8 37 f6 ff ff       	call   0x18002a928
   18002b2f1:	48 8d 54 24 20       	lea    0x20(%rsp),%rdx
   18002b2f6:	49 8b cc             	mov    %r12,%rcx
   18002b2f9:	e8 fe 1e 00 00       	call   0x18002d1fc
   18002b2fe:	48 3b c7             	cmp    %rdi,%rax
   18002b301:	0f 94 c0             	sete   %al
   18002b304:	eb 02                	jmp    0x18002b308
   18002b306:	32 c0                	xor    %al,%al
   18002b308:	4c 8d 9c 24 c0 00 00 	lea    0xc0(%rsp),%r11
   18002b30f:	00
   18002b310:	49 8b 5b 28          	mov    0x28(%r11),%rbx
   18002b314:	49 8b 6b 30          	mov    0x30(%r11),%rbp
   18002b318:	49 8b e3             	mov    %r11,%rsp
   18002b31b:	41 5c                	pop    %r12
   18002b31d:	5f                   	pop    %rdi
   18002b31e:	5e                   	pop    %rsi
   18002b31f:	c3                   	ret
   18002b320:	48 89 5c 24 18       	mov    %rbx,0x18(%rsp)
   18002b325:	48 89 6c 24 20       	mov    %rbp,0x20(%rsp)
   18002b32a:	56                   	push   %rsi
   18002b32b:	57                   	push   %rdi
   18002b32c:	41 54                	push   %r12
   18002b32e:	48 83 ec 20          	sub    $0x20,%rsp
   18002b332:	45 33 e4             	xor    %r12d,%r12d
   18002b335:	48 8b ea             	mov    %rdx,%rbp
   18002b338:	48 8b f9             	mov    %rcx,%rdi
   18002b33b:	49 8b dc             	mov    %r12,%rbx
   18002b33e:	48 8b f1             	mov    %rcx,%rsi
   18002b341:	0f b7 06             	movzwl (%rsi),%eax
   18002b344:	eb 0d                	jmp    0x18002b353
   18002b346:	66 41 3b c4          	cmp    %r12w,%ax
   18002b34a:	74 0d                	je     0x18002b359
   18002b34c:	48 ff c3             	inc    %rbx
   18002b34f:	66 8b 04 5f          	mov    (%rdi,%rbx,2),%ax
   18002b353:	66 83 f8 26          	cmp    $0x26,%ax
   18002b357:	75 ed                	jne    0x18002b346
   18002b359:	66 44 39 24 5f       	cmp    %r12w,(%rdi,%rbx,2)
   18002b35e:	74 69                	je     0x18002b3c9
   18002b360:	48 8b 15 69 bd 01 00 	mov    0x1bd69(%rip),%rdx        # 0x1800470d0
   18002b367:	48 ff c3             	inc    %rbx
   18002b36a:	41 b8 0a 00 00 00    	mov    $0xa,%r8d
   18002b370:	48 8d 34 5f          	lea    (%rdi,%rbx,2),%rsi
   18002b374:	48 8b ce             	mov    %rsi,%rcx
   18002b377:	e8 08 c2 fd ff       	call   0x180007584
   18002b37c:	49 3b c4             	cmp    %r12,%rax
   18002b37f:	75 c0                	jne    0x18002b341
   18002b381:	48 8d 0c 5f          	lea    (%rdi,%rbx,2),%rcx
   18002b385:	4c 8d 44 24 48       	lea    0x48(%rsp),%r8
   18002b38a:	48 8d 54 24 40       	lea    0x40(%rsp),%rdx
   18002b38f:	e8 b4 fa ff ff       	call   0x18002ae48
   18002b394:	48 b9 00 00 00 00 00 	movabs $0x8000000000000000,%rcx
   18002b39b:	00 00 80
   18002b39e:	48 85 c1             	test   %rax,%rcx
   18002b3a1:	75 26                	jne    0x18002b3c9
   18002b3a3:	48 8b 54 24 40       	mov    0x40(%rsp),%rdx
   18002b3a8:	48 8b cd             	mov    %rbp,%rcx
   18002b3ab:	e8 e8 c8 fd ff       	call   0x180007c98
   18002b3b0:	48 8b 15 09 56 02 00 	mov    0x25609(%rip),%rdx        # 0x1800509c0
   18002b3b7:	48 8b 4c 24 40       	mov    0x40(%rsp),%rcx
   18002b3bc:	49 3b c4             	cmp    %r12,%rax
   18002b3bf:	0f 94 c3             	sete   %bl
   18002b3c2:	ff 52 48             	call   *0x48(%rdx)
   18002b3c5:	8a c3                	mov    %bl,%al
   18002b3c7:	eb 02                	jmp    0x18002b3cb
   18002b3c9:	32 c0                	xor    %al,%al
   18002b3cb:	48 8b 5c 24 50       	mov    0x50(%rsp),%rbx
   18002b3d0:	48 8b 6c 24 58       	mov    0x58(%rsp),%rbp
   18002b3d5:	48 83 c4 20          	add    $0x20,%rsp
   18002b3d9:	41 5c                	pop    %r12
   18002b3db:	5f                   	pop    %rdi
   18002b3dc:	5e                   	pop    %rsi
   18002b3dd:	c3                   	ret
   18002b3de:	cc                   	int3
   18002b3df:	cc                   	int3
   18002b3e0:	48 8b c4             	mov    %rsp,%rax
   18002b3e3:	48 89 58 08          	mov    %rbx,0x8(%rax)
   18002b3e7:	48 89 68 10          	mov    %rbp,0x10(%rax)
   18002b3eb:	48 89 70 18          	mov    %rsi,0x18(%rax)
   18002b3ef:	4c 89 48 20          	mov    %r9,0x20(%rax)
   18002b3f3:	57                   	push   %rdi
   18002b3f4:	41 54                	push   %r12
   18002b3f6:	41 55                	push   %r13
   18002b3f8:	41 56                	push   %r14
   18002b3fa:	41 57                	push   %r15
   18002b3fc:	48 83 ec 50          	sub    $0x50,%rsp
   18002b400:	48 8b ac 24 a8 00 00 	mov    0xa8(%rsp),%rbp
   18002b407:	00
   18002b408:	45 33 e4             	xor    %r12d,%r12d
   18002b40b:	4d 8b f8             	mov    %r8,%r15
   18002b40e:	48 8b da             	mov    %rdx,%rbx
   18002b411:	49 8b fc             	mov    %r12,%rdi
   18002b414:	4c 89 60 b0          	mov    %r12,-0x50(%rax)
   18002b418:	49 3b ec             	cmp    %r12,%rbp
   18002b41b:	0f 84 1c 02 00 00    	je     0x18002b63d
   18002b421:	49 3b d4             	cmp    %r12,%rdx
   18002b424:	0f 84 0f 02 00 00    	je     0x18002b639
   18002b42a:	4d 3b c4             	cmp    %r12,%r8
   18002b42d:	0f 84 06 02 00 00    	je     0x18002b639
   18002b433:	4c 8b ac 24 a0 00 00 	mov    0xa0(%rsp),%r13
   18002b43a:	00
   18002b43b:	4d 3b ec             	cmp    %r12,%r13
   18002b43e:	0f 84 f5 01 00 00    	je     0x18002b639
   18002b444:	48 8b ca             	mov    %rdx,%rcx
   18002b447:	e8 78 1d 00 00       	call   0x18002d1c4
   18002b44c:	48 8d 4c 24 30       	lea    0x30(%rsp),%rcx
   18002b451:	44 8b f0             	mov    %eax,%r14d
   18002b454:	41 d1 ee             	shr    %r14d
   18002b457:	e8 0c f7 ff ff       	call   0x18002ab68
   18002b45c:	48 b9 00 00 00 00 00 	movabs $0x8000000000000000,%rcx
   18002b463:	00 00 80
   18002b466:	48 85 c1             	test   %rax,%rcx
   18002b469:	0f 85 d8 01 00 00    	jne    0x18002b647
   18002b46f:	48 8b 15 7a bc 01 00 	mov    0x1bc7a(%rip),%rdx        # 0x1800470f0
   18002b476:	45 8d 44 24 0e       	lea    0xe(%r12),%r8d
   18002b47b:	48 8b cb             	mov    %rbx,%rcx
   18002b47e:	e8 01 c1 fd ff       	call   0x180007584
   18002b483:	49 3b c4             	cmp    %r12,%rax
   18002b486:	74 4c                	je     0x18002b4d4
   18002b488:	48 8b f3             	mov    %rbx,%rsi
   18002b48b:	0f b7 06             	movzwl (%rsi),%eax
   18002b48e:	eb 0d                	jmp    0x18002b49d
   18002b490:	66 41 3b c4          	cmp    %r12w,%ax
   18002b494:	74 0d                	je     0x18002b4a3
   18002b496:	48 ff c7             	inc    %rdi
   18002b499:	66 8b 04 7b          	mov    (%rbx,%rdi,2),%ax
   18002b49d:	66 83 f8 26          	cmp    $0x26,%ax
   18002b4a1:	75 ed                	jne    0x18002b490
   18002b4a3:	66 44 39 24 7b       	cmp    %r12w,(%rbx,%rdi,2)
   18002b4a8:	0f 84 52 01 00 00    	je     0x18002b600
   18002b4ae:	48 8b 15 3b bc 01 00 	mov    0x1bc3b(%rip),%rdx        # 0x1800470f0
   18002b4b5:	48 ff c7             	inc    %rdi
   18002b4b8:	41 b8 0e 00 00 00    	mov    $0xe,%r8d
   18002b4be:	48 8d 34 7b          	lea    (%rbx,%rdi,2),%rsi
   18002b4c2:	48 89 7c 24 28       	mov    %rdi,0x28(%rsp)
   18002b4c7:	48 8b ce             	mov    %rsi,%rcx
   18002b4ca:	e8 b5 c0 fd ff       	call   0x180007584
   18002b4cf:	49 3b c4             	cmp    %r12,%rax
   18002b4d2:	75 b7                	jne    0x18002b48b
   18002b4d4:	4c 8d 44 24 30       	lea    0x30(%rsp),%r8
   18002b4d9:	48 8b d7             	mov    %rdi,%rdx
   18002b4dc:	48 8b cb             	mov    %rbx,%rcx
   18002b4df:	e8 74 fb ff ff       	call   0x18002b058
   18002b4e4:	49 bc 00 00 00 00 00 	movabs $0x8000000000000000,%r12
   18002b4eb:	00 00 80
   18002b4ee:	48 8b f0             	mov    %rax,%rsi
   18002b4f1:	49 85 c4             	test   %rax,%r12
   18002b4f4:	0f 85 2b 01 00 00    	jne    0x18002b625
   18002b4fa:	4c 8d 4c 24 20       	lea    0x20(%rsp),%r9
   18002b4ff:	4c 8d 05 e2 bb 01 00 	lea    0x1bbe2(%rip),%r8        # 0x1800470e8
   18002b506:	48 8d 54 24 28       	lea    0x28(%rsp),%rdx
   18002b50b:	48 8b cb             	mov    %rbx,%rcx
   18002b50e:	e8 59 f8 ff ff       	call   0x18002ad6c
   18002b513:	48 8b f0             	mov    %rax,%rsi
   18002b516:	49 85 c4             	test   %rax,%r12
   18002b519:	0f 85 fd 00 00 00    	jne    0x18002b61c
   18002b51f:	4c 8b 64 24 28       	mov    0x28(%rsp),%r12
   18002b524:	48 8d 0c 7b          	lea    (%rbx,%rdi,2),%rcx
   18002b528:	4c 8d 44 24 30       	lea    0x30(%rsp),%r8
   18002b52d:	49 8b d4             	mov    %r12,%rdx
   18002b530:	48 2b d7             	sub    %rdi,%rdx
   18002b533:	e8 20 fb ff ff       	call   0x18002b058
   18002b538:	48 8b f0             	mov    %rax,%rsi
   18002b53b:	48 b8 00 00 00 00 00 	movabs $0x8000000000000000,%rax
   18002b542:	00 00 80
   18002b545:	48 85 f0             	test   %rsi,%rax
   18002b548:	0f 85 d7 00 00 00    	jne    0x18002b625
   18002b54e:	4c 8d 8c 24 a8 00 00 	lea    0xa8(%rsp),%r9
   18002b555:	00
   18002b556:	4c 8d 05 9b bb 01 00 	lea    0x1bb9b(%rip),%r8        # 0x1800470f8
   18002b55d:	48 8d 54 24 28       	lea    0x28(%rsp),%rdx
   18002b562:	48 8b cb             	mov    %rbx,%rcx
   18002b565:	e8 02 f8 ff ff       	call   0x18002ad6c
   18002b56a:	48 8b f0             	mov    %rax,%rsi
   18002b56d:	48 b8 00 00 00 00 00 	movabs $0x8000000000000000,%rax
   18002b574:	00 00 80
   18002b577:	48 85 f0             	test   %rsi,%rax
   18002b57a:	0f 85 9c 00 00 00    	jne    0x18002b61c
   18002b580:	48 8b 7c 24 28       	mov    0x28(%rsp),%rdi
   18002b585:	4a 8d 0c 63          	lea    (%rbx,%r12,2),%rcx
   18002b589:	4c 8d 44 24 30       	lea    0x30(%rsp),%r8
   18002b58e:	48 8b d7             	mov    %rdi,%rdx
   18002b591:	49 2b d4             	sub    %r12,%rdx
   18002b594:	e8 bf fa ff ff       	call   0x18002b058
   18002b599:	49 bc 00 00 00 00 00 	movabs $0x8000000000000000,%r12
   18002b5a0:	00 00 80
   18002b5a3:	48 8b f0             	mov    %rax,%rsi
   18002b5a6:	49 85 c4             	test   %rax,%r12
   18002b5a9:	75 7a                	jne    0x18002b625
   18002b5ab:	8b 94 24 a8 00 00 00 	mov    0xa8(%rsp),%edx
   18002b5b2:	44 8b 44 24 20       	mov    0x20(%rsp),%r8d
   18002b5b7:	42 8d 0c 02          	lea    (%rdx,%r8,1),%ecx
   18002b5bb:	48 39 8c 24 98 00 00 	cmp    %rcx,0x98(%rsp)
   18002b5c2:	00
   18002b5c3:	72 4b                	jb     0x18002b610
   18002b5c5:	4b 8d 0c 07          	lea    (%r15,%r8,1),%rcx
   18002b5c9:	4c 8d 44 24 30       	lea    0x30(%rsp),%r8
   18002b5ce:	e8 15 fb ff ff       	call   0x18002b0e8
   18002b5d3:	48 8b f0             	mov    %rax,%rsi
   18002b5d6:	49 85 c4             	test   %rax,%r12
   18002b5d9:	75 4a                	jne    0x18002b625
   18002b5db:	41 8b c6             	mov    %r14d,%eax
   18002b5de:	48 3b f8             	cmp    %rax,%rdi
   18002b5e1:	0f 82 13 ff ff ff    	jb     0x18002b4fa
   18002b5e7:	41 8d 46 ff          	lea    -0x1(%r14),%eax
   18002b5eb:	48 8d 04 43          	lea    (%rbx,%rax,2),%rax
   18002b5ef:	48 89 45 00          	mov    %rax,0x0(%rbp)
   18002b5f3:	48 8b 44 24 30       	mov    0x30(%rsp),%rax
   18002b5f8:	49 89 45 00          	mov    %rax,0x0(%r13)
   18002b5fc:	33 c0                	xor    %eax,%eax
   18002b5fe:	eb 47                	jmp    0x18002b647
   18002b600:	48 89 5d 00          	mov    %rbx,0x0(%rbp)
   18002b604:	48 be 0e 00 00 00 00 	movabs $0x800000000000000e,%rsi
   18002b60b:	00 00 80
   18002b60e:	eb 15                	jmp    0x18002b625
   18002b610:	48 be 07 00 00 00 00 	movabs $0x8000000000000007,%rsi
   18002b617:	00 00 80
   18002b61a:	eb 09                	jmp    0x18002b625
   18002b61c:	48 8d 44 7b fe       	lea    -0x2(%rbx,%rdi,2),%rax
   18002b621:	48 89 45 00          	mov    %rax,0x0(%rbp)
   18002b625:	48 8b 05 94 53 02 00 	mov    0x25394(%rip),%rax        # 0x1800509c0
   18002b62c:	48 8b 4c 24 30       	mov    0x30(%rsp),%rcx
   18002b631:	ff 50 48             	call   *0x48(%rax)
   18002b634:	48 8b c6             	mov    %rsi,%rax
   18002b637:	eb 0e                	jmp    0x18002b647
   18002b639:	48 89 55 00          	mov    %rdx,0x0(%rbp)
   18002b63d:	48 b8 02 00 00 00 00 	movabs $0x8000000000000002,%rax
   18002b644:	00 00 80
   18002b647:	4c 8d 5c 24 50       	lea    0x50(%rsp),%r11
   18002b64c:	49 8b 5b 30          	mov    0x30(%r11),%rbx
   18002b650:	49 8b 6b 38          	mov    0x38(%r11),%rbp
   18002b654:	49 8b 73 40          	mov    0x40(%r11),%rsi
   18002b658:	49 8b e3             	mov    %r11,%rsp
   18002b65b:	41 5f                	pop    %r15
   18002b65d:	41 5e                	pop    %r14
   18002b65f:	41 5d                	pop    %r13
   18002b661:	41 5c                	pop    %r12
   18002b663:	5f                   	pop    %rdi
   18002b664:	c3                   	ret
   18002b665:	cc                   	int3
   18002b666:	cc                   	int3
   18002b667:	cc                   	int3
   18002b668:	48 8b c4             	mov    %rsp,%rax
   18002b66b:	48 89 58 08          	mov    %rbx,0x8(%rax)
   18002b66f:	48 89 68 10          	mov    %rbp,0x10(%rax)
   18002b673:	48 89 70 18          	mov    %rsi,0x18(%rax)
   18002b677:	57                   	push   %rdi
   18002b678:	41 54                	push   %r12
   18002b67a:	41 55                	push   %r13
   18002b67c:	41 56                	push   %r14
   18002b67e:	41 57                	push   %r15
   18002b680:	48 83 ec 30          	sub    $0x30,%rsp
   18002b684:	48 8b b4 24 80 00 00 	mov    0x80(%rsp),%rsi
   18002b68b:	00
   18002b68c:	45 33 ed             	xor    %r13d,%r13d
   18002b68f:	49 8b e9             	mov    %r9,%rbp
   18002b692:	4d 8b f8             	mov    %r8,%r15
   18002b695:	48 8b da             	mov    %rdx,%rbx
   18002b698:	49 8b fd             	mov    %r13,%rdi
   18002b69b:	4c 89 68 d0          	mov    %r13,-0x30(%rax)
   18002b69f:	49 3b f5             	cmp    %r13,%rsi
   18002b6a2:	0f 84 7d 01 00 00    	je     0x18002b825
   18002b6a8:	49 3b d5             	cmp    %r13,%rdx
   18002b6ab:	0f 84 71 01 00 00    	je     0x18002b822
   18002b6b1:	4d 3b cd             	cmp    %r13,%r9
   18002b6b4:	0f 84 68 01 00 00    	je     0x18002b822
   18002b6ba:	4d 3b c5             	cmp    %r13,%r8
   18002b6bd:	75 09                	jne    0x18002b6c8
   18002b6bf:	4d 39 29             	cmp    %r13,(%r9)
   18002b6c2:	0f 85 5a 01 00 00    	jne    0x18002b822
   18002b6c8:	48 8b ca             	mov    %rdx,%rcx
   18002b6cb:	e8 f4 1a 00 00       	call   0x18002d1c4
   18002b6d0:	48 8b 15 19 ba 01 00 	mov    0x1ba19(%rip),%rdx        # 0x1800470f0
   18002b6d7:	41 b8 0e 00 00 00    	mov    $0xe,%r8d
   18002b6dd:	44 8b f0             	mov    %eax,%r14d
   18002b6e0:	48 8b cb             	mov    %rbx,%rcx
   18002b6e3:	41 d1 ee             	shr    %r14d
   18002b6e6:	e8 99 be fd ff       	call   0x180007584
   18002b6eb:	49 3b c5             	cmp    %r13,%rax
   18002b6ee:	74 4e                	je     0x18002b73e
   18002b6f0:	4c 8b e3             	mov    %rbx,%r12
   18002b6f3:	41 0f b7 04 24       	movzwl (%r12),%eax
   18002b6f8:	eb 0d                	jmp    0x18002b707
   18002b6fa:	66 41 3b c5          	cmp    %r13w,%ax
   18002b6fe:	74 0d                	je     0x18002b70d
   18002b700:	48 ff c7             	inc    %rdi
   18002b703:	66 8b 04 7b          	mov    (%rbx,%rdi,2),%ax
   18002b707:	66 83 f8 26          	cmp    $0x26,%ax
   18002b70b:	75 ed                	jne    0x18002b6fa
   18002b70d:	66 44 39 2c 7b       	cmp    %r13w,(%rbx,%rdi,2)
   18002b712:	0f 84 de 00 00 00    	je     0x18002b7f6
   18002b718:	48 8b 15 d1 b9 01 00 	mov    0x1b9d1(%rip),%rdx        # 0x1800470f0
   18002b71f:	48 ff c7             	inc    %rdi
   18002b722:	41 b8 0e 00 00 00    	mov    $0xe,%r8d
   18002b728:	4c 8d 24 7b          	lea    (%rbx,%rdi,2),%r12
   18002b72c:	48 89 7c 24 28       	mov    %rdi,0x28(%rsp)
   18002b731:	49 8b cc             	mov    %r12,%rcx
   18002b734:	e8 4b be fd ff       	call   0x180007584
   18002b739:	49 3b c5             	cmp    %r13,%rax
   18002b73c:	75 b5                	jne    0x18002b6f3
   18002b73e:	4c 8d 4c 24 20       	lea    0x20(%rsp),%r9
   18002b743:	4c 8d 05 9e b9 01 00 	lea    0x1b99e(%rip),%r8        # 0x1800470e8
   18002b74a:	48 8d 54 24 28       	lea    0x28(%rsp),%rdx
   18002b74f:	48 8b cb             	mov    %rbx,%rcx
   18002b752:	49 bc 00 00 00 00 00 	movabs $0x8000000000000000,%r12
   18002b759:	00 00 80
   18002b75c:	e8 0b f6 ff ff       	call   0x18002ad6c
   18002b761:	4c 8b d8             	mov    %rax,%r11
   18002b764:	49 85 c4             	test   %rax,%r12
   18002b767:	0f 85 a8 00 00 00    	jne    0x18002b815
   18002b76d:	4c 8d 8c 24 80 00 00 	lea    0x80(%rsp),%r9
   18002b774:	00
   18002b775:	4c 8d 05 7c b9 01 00 	lea    0x1b97c(%rip),%r8        # 0x1800470f8
   18002b77c:	48 8d 54 24 28       	lea    0x28(%rsp),%rdx
   18002b781:	48 8b cb             	mov    %rbx,%rcx
   18002b784:	e8 e3 f5 ff ff       	call   0x18002ad6c
   18002b789:	4c 8b d8             	mov    %rax,%r11
   18002b78c:	49 85 c4             	test   %rax,%r12
   18002b78f:	0f 85 80 00 00 00    	jne    0x18002b815
   18002b795:	44 8b a4 24 80 00 00 	mov    0x80(%rsp),%r12d
   18002b79c:	00
   18002b79d:	44 8b 6c 24 20       	mov    0x20(%rsp),%r13d
   18002b7a2:	43 8d 0c 2c          	lea    (%r12,%r13,1),%ecx
   18002b7a6:	48 39 4d 00          	cmp    %rcx,0x0(%rbp)
   18002b7aa:	72 55                	jb     0x18002b801
   18002b7ac:	4f 8d 04 2f          	lea    (%r15,%r13,1),%r8
   18002b7b0:	48 8d 54 24 28       	lea    0x28(%rsp),%rdx
   18002b7b5:	45 8b cc             	mov    %r12d,%r9d
   18002b7b8:	48 8b cb             	mov    %rbx,%rcx
   18002b7bb:	e8 3c f4 ff ff       	call   0x18002abfc
   18002b7c0:	4c 8b d8             	mov    %rax,%r11
   18002b7c3:	48 b8 00 00 00 00 00 	movabs $0x8000000000000000,%rax
   18002b7ca:	00 00 80
   18002b7cd:	4c 85 d8             	test   %r11,%rax
   18002b7d0:	75 43                	jne    0x18002b815
   18002b7d2:	48 8b 7c 24 28       	mov    0x28(%rsp),%rdi
   18002b7d7:	41 8b c6             	mov    %r14d,%eax
   18002b7da:	48 3b f8             	cmp    %rax,%rdi
   18002b7dd:	0f 82 5b ff ff ff    	jb     0x18002b73e
   18002b7e3:	41 8d 46 ff          	lea    -0x1(%r14),%eax
   18002b7e7:	43 8d 4c 2c ff       	lea    -0x1(%r12,%r13,1),%ecx
   18002b7ec:	48 8d 04 43          	lea    (%rbx,%rax,2),%rax
   18002b7f0:	48 89 4d 00          	mov    %rcx,0x0(%rbp)
   18002b7f4:	eb 04                	jmp    0x18002b7fa
   18002b7f6:	48 8d 04 7b          	lea    (%rbx,%rdi,2),%rax
   18002b7fa:	48 89 06             	mov    %rax,(%rsi)
   18002b7fd:	33 c0                	xor    %eax,%eax
   18002b7ff:	eb 2e                	jmp    0x18002b82f
   18002b801:	43 8d 0c 2c          	lea    (%r12,%r13,1),%ecx
   18002b805:	48 b8 07 00 00 00 00 	movabs $0x8000000000000007,%rax
   18002b80c:	00 00 80
   18002b80f:	48 89 4d 00          	mov    %rcx,0x0(%rbp)
   18002b813:	eb 1a                	jmp    0x18002b82f
   18002b815:	48 8d 44 7b fe       	lea    -0x2(%rbx,%rdi,2),%rax
   18002b81a:	48 89 06             	mov    %rax,(%rsi)
   18002b81d:	49 8b c3             	mov    %r11,%rax
   18002b820:	eb 0d                	jmp    0x18002b82f
   18002b822:	48 89 16             	mov    %rdx,(%rsi)
   18002b825:	48 b8 02 00 00 00 00 	movabs $0x8000000000000002,%rax
   18002b82c:	00 00 80
   18002b82f:	48 8b 5c 24 60       	mov    0x60(%rsp),%rbx
   18002b834:	48 8b 6c 24 68       	mov    0x68(%rsp),%rbp
   18002b839:	48 8b 74 24 70       	mov    0x70(%rsp),%rsi
   18002b83e:	48 83 c4 30          	add    $0x30,%rsp
   18002b842:	41 5f                	pop    %r15
   18002b844:	41 5e                	pop    %r14
   18002b846:	41 5d                	pop    %r13
   18002b848:	41 5c                	pop    %r12
   18002b84a:	5f                   	pop    %rdi
   18002b84b:	c3                   	ret
   18002b84c:	48 89 5c 24 10       	mov    %rbx,0x10(%rsp)
   18002b851:	48 89 6c 24 20       	mov    %rbp,0x20(%rsp)
   18002b856:	56                   	push   %rsi
   18002b857:	57                   	push   %rdi
   18002b858:	41 54                	push   %r12
   18002b85a:	48 83 ec 20          	sub    $0x20,%rsp
   18002b85e:	45 33 e4             	xor    %r12d,%r12d
   18002b861:	48 8b ea             	mov    %rdx,%rbp
   18002b864:	48 8b f9             	mov    %rcx,%rdi
   18002b867:	49 8b dc             	mov    %r12,%rbx
   18002b86a:	48 8b f1             	mov    %rcx,%rsi
   18002b86d:	0f b7 06             	movzwl (%rsi),%eax
   18002b870:	eb 0d                	jmp    0x18002b87f
   18002b872:	66 41 3b c4          	cmp    %r12w,%ax
   18002b876:	74 0d                	je     0x18002b885
   18002b878:	48 ff c3             	inc    %rbx
   18002b87b:	66 8b 04 5f          	mov    (%rdi,%rbx,2),%ax
   18002b87f:	66 83 f8 26          	cmp    $0x26,%ax
   18002b883:	75 ed                	jne    0x18002b872
   18002b885:	66 44 39 24 5f       	cmp    %r12w,(%rdi,%rbx,2)
   18002b88a:	74 6c                	je     0x18002b8f8
   18002b88c:	48 8b 15 3d b8 01 00 	mov    0x1b83d(%rip),%rdx        # 0x1800470d0
   18002b893:	48 ff c3             	inc    %rbx
   18002b896:	41 b8 0a 00 00 00    	mov    $0xa,%r8d
   18002b89c:	48 8d 34 5f          	lea    (%rdi,%rbx,2),%rsi
   18002b8a0:	48 8b ce             	mov    %rsi,%rcx
   18002b8a3:	e8 dc bc fd ff       	call   0x180007584
   18002b8a8:	49 3b c4             	cmp    %r12,%rax
   18002b8ab:	75 c0                	jne    0x18002b86d
   18002b8ad:	48 8d 0c 5f          	lea    (%rdi,%rbx,2),%rcx
   18002b8b1:	4c 8d 44 24 50       	lea    0x50(%rsp),%r8
   18002b8b6:	48 8d 54 24 40       	lea    0x40(%rsp),%rdx
   18002b8bb:	e8 88 f5 ff ff       	call   0x18002ae48
   18002b8c0:	48 b9 00 00 00 00 00 	movabs $0x8000000000000000,%rcx
   18002b8c7:	00 00 80
   18002b8ca:	48 85 c1             	test   %rax,%rcx
   18002b8cd:	75 33                	jne    0x18002b902
   18002b8cf:	48 8b 54 24 50       	mov    0x50(%rsp),%rdx
   18002b8d4:	48 8b 4c 24 40       	mov    0x40(%rsp),%rcx
   18002b8d9:	4c 8b c5             	mov    %rbp,%r8
   18002b8dc:	e8 0b f6 ff ff       	call   0x18002aeec
   18002b8e1:	48 8b 15 d8 50 02 00 	mov    0x250d8(%rip),%rdx        # 0x1800509c0
   18002b8e8:	48 8b 4c 24 40       	mov    0x40(%rsp),%rcx
   18002b8ed:	48 8b d8             	mov    %rax,%rbx
   18002b8f0:	ff 52 48             	call   *0x48(%rdx)
   18002b8f3:	48 8b c3             	mov    %rbx,%rax
   18002b8f6:	eb 0a                	jmp    0x18002b902
   18002b8f8:	48 b8 0e 00 00 00 00 	movabs $0x800000000000000e,%rax
   18002b8ff:	00 00 80
   18002b902:	48 8b 5c 24 48       	mov    0x48(%rsp),%rbx
   18002b907:	48 8b 6c 24 58       	mov    0x58(%rsp),%rbp
   18002b90c:	48 83 c4 20          	add    $0x20,%rsp
   18002b910:	41 5c                	pop    %r12
   18002b912:	5f                   	pop    %rdi
   18002b913:	5e                   	pop    %rsi
   18002b914:	c3                   	ret
   18002b915:	cc                   	int3
   18002b916:	cc                   	int3
   18002b917:	cc                   	int3
   18002b918:	48 89 5c 24 10       	mov    %rbx,0x10(%rsp)
   18002b91d:	48 89 6c 24 18       	mov    %rbp,0x18(%rsp)
   18002b922:	48 89 74 24 20       	mov    %rsi,0x20(%rsp)
   18002b927:	57                   	push   %rdi
   18002b928:	41 54                	push   %r12
   18002b92a:	41 55                	push   %r13
   18002b92c:	41 56                	push   %r14
   18002b92e:	41 57                	push   %r15
   18002b930:	48 83 ec 30          	sub    $0x30,%rsp
   18002b934:	45 33 ff             	xor    %r15d,%r15d
   18002b937:	4d 8b e1             	mov    %r9,%r12
   18002b93a:	4d 8b e8             	mov    %r8,%r13
   18002b93d:	4c 8b f2             	mov    %rdx,%r14
   18002b940:	48 8b f9             	mov    %rcx,%rdi
   18002b943:	48 8b f1             	mov    %rcx,%rsi
   18002b946:	49 8b df             	mov    %r15,%rbx
   18002b949:	0f b7 06             	movzwl (%rsi),%eax
   18002b94c:	eb 0d                	jmp    0x18002b95b
   18002b94e:	66 41 3b c7          	cmp    %r15w,%ax
   18002b952:	74 0d                	je     0x18002b961
   18002b954:	48 ff c3             	inc    %rbx
   18002b957:	66 8b 04 5f          	mov    (%rdi,%rbx,2),%ax
   18002b95b:	66 83 f8 26          	cmp    $0x26,%ax
   18002b95f:	75 ed                	jne    0x18002b94e
   18002b961:	66 44 39 3c 5f       	cmp    %r15w,(%rdi,%rbx,2)
   18002b966:	74 21                	je     0x18002b989
   18002b968:	48 8b 15 71 b7 01 00 	mov    0x1b771(%rip),%rdx        # 0x1800470e0
   18002b96f:	48 ff c3             	inc    %rbx
   18002b972:	41 b8 0e 00 00 00    	mov    $0xe,%r8d
   18002b978:	48 8d 34 5f          	lea    (%rdi,%rbx,2),%rsi
   18002b97c:	48 8b ce             	mov    %rsi,%rcx
   18002b97f:	e8 00 bc fd ff       	call   0x180007584
   18002b984:	49 3b c7             	cmp    %r15,%rax
   18002b987:	75 c0                	jne    0x18002b949
   18002b989:	48 8b b4 24 80 00 00 	mov    0x80(%rsp),%rsi
   18002b990:	00
   18002b991:	48 8d 2c 5f          	lea    (%rdi,%rbx,2),%rbp
   18002b995:	0f b7 45 00          	movzwl 0x0(%rbp),%eax
   18002b999:	66 41 3b c7          	cmp    %r15w,%ax
   18002b99d:	75 1a                	jne    0x18002b9b9
   18002b99f:	49 3b f7             	cmp    %r15,%rsi
   18002b9a2:	74 0f                	je     0x18002b9b3
   18002b9a4:	48 b8 0e 00 00 00 00 	movabs $0x800000000000000e,%rax
   18002b9ab:	00 00 80
   18002b9ae:	e9 b9 00 00 00       	jmp    0x18002ba6c
   18002b9b3:	66 41 3b c7          	cmp    %r15w,%ax
   18002b9b7:	74 66                	je     0x18002ba1f
   18002b9b9:	49 3b f7             	cmp    %r15,%rsi
   18002b9bc:	74 e6                	je     0x18002b9a4
   18002b9be:	66 41 3b c7          	cmp    %r15w,%ax
   18002b9c2:	74 5b                	je     0x18002ba1f
   18002b9c4:	49 3b f7             	cmp    %r15,%rsi
   18002b9c7:	74 56                	je     0x18002ba1f
   18002b9c9:	4c 8d 4c 24 60       	lea    0x60(%rsp),%r9
   18002b9ce:	4c 8d 05 03 b7 01 00 	lea    0x1b703(%rip),%r8        # 0x1800470d8
   18002b9d5:	48 8d 54 24 20       	lea    0x20(%rsp),%rdx
   18002b9da:	48 8b cf             	mov    %rdi,%rcx
   18002b9dd:	48 89 5c 24 20       	mov    %rbx,0x20(%rsp)
   18002b9e2:	e8 85 f3 ff ff       	call   0x18002ad6c
   18002b9e7:	48 b9 00 00 00 00 00 	movabs $0x8000000000000000,%rcx
   18002b9ee:	00 00 80
   18002b9f1:	48 85 c1             	test   %rax,%rcx
   18002b9f4:	75 ae                	jne    0x18002b9a4
   18002b9f6:	0f b7 44 24 60       	movzwl 0x60(%rsp),%eax
   18002b9fb:	66 39 06             	cmp    %ax,(%rsi)
   18002b9fe:	75 a4                	jne    0x18002b9a4
   18002ba00:	48 8b 44 24 20       	mov    0x20(%rsp),%rax
   18002ba05:	48 8d 1c 47          	lea    (%rdi,%rax,2),%rbx
   18002ba09:	48 8b cb             	mov    %rbx,%rcx
   18002ba0c:	e8 b3 17 00 00       	call   0x18002d1c4
   18002ba11:	48 8b d3             	mov    %rbx,%rdx
   18002ba14:	48 8b cd             	mov    %rbp,%rcx
   18002ba17:	44 8b c0             	mov    %eax,%r8d
   18002ba1a:	e8 f1 e0 fd ff       	call   0x180009b10
   18002ba1f:	4d 3b f7             	cmp    %r15,%r14
   18002ba22:	74 14                	je     0x18002ba38
   18002ba24:	49 8b d6             	mov    %r14,%rdx
   18002ba27:	48 8b cf             	mov    %rdi,%rcx
   18002ba2a:	e8 cd f7 ff ff       	call   0x18002b1fc
   18002ba2f:	41 3a c7             	cmp    %r15b,%al
   18002ba32:	0f 84 6c ff ff ff    	je     0x18002b9a4
   18002ba38:	4d 3b ef             	cmp    %r15,%r13
   18002ba3b:	74 14                	je     0x18002ba51
   18002ba3d:	49 8b d5             	mov    %r13,%rdx
   18002ba40:	48 8b cf             	mov    %rdi,%rcx
   18002ba43:	e8 24 f8 ff ff       	call   0x18002b26c
   18002ba48:	41 3a c7             	cmp    %r15b,%al
   18002ba4b:	0f 84 53 ff ff ff    	je     0x18002b9a4
   18002ba51:	4d 3b e7             	cmp    %r15,%r12
   18002ba54:	74 14                	je     0x18002ba6a
   18002ba56:	49 8b d4             	mov    %r12,%rdx
   18002ba59:	48 8b cf             	mov    %rdi,%rcx
   18002ba5c:	e8 bf f8 ff ff       	call   0x18002b320
   18002ba61:	41 3a c7             	cmp    %r15b,%al
   18002ba64:	0f 84 3a ff ff ff    	je     0x18002b9a4
   18002ba6a:	33 c0                	xor    %eax,%eax
   18002ba6c:	48 8b 5c 24 68       	mov    0x68(%rsp),%rbx
   18002ba71:	48 8b 6c 24 70       	mov    0x70(%rsp),%rbp
   18002ba76:	48 8b 74 24 78       	mov    0x78(%rsp),%rsi
   18002ba7b:	48 83 c4 30          	add    $0x30,%rsp
   18002ba7f:	41 5f                	pop    %r15
   18002ba81:	41 5e                	pop    %r14
   18002ba83:	41 5d                	pop    %r13
   18002ba85:	41 5c                	pop    %r12
   18002ba87:	5f                   	pop    %rdi
   18002ba88:	c3                   	ret
   18002ba89:	cc                   	int3
   18002ba8a:	cc                   	int3
   18002ba8b:	cc                   	int3
   18002ba8c:	48 89 5c 24 08       	mov    %rbx,0x8(%rsp)
   18002ba91:	48 89 6c 24 20       	mov    %rbp,0x20(%rsp)
   18002ba96:	56                   	push   %rsi
   18002ba97:	57                   	push   %rdi
   18002ba98:	41 54                	push   %r12
   18002ba9a:	41 55                	push   %r13
   18002ba9c:	41 56                	push   %r14
   18002ba9e:	48 83 ec 60          	sub    $0x60,%rsp
   18002baa2:	45 33 e4             	xor    %r12d,%r12d
   18002baa5:	49 8b e9             	mov    %r9,%rbp
   18002baa8:	49 8b f0             	mov    %r8,%rsi
   18002baab:	48 8b fa             	mov    %rdx,%rdi
   18002baae:	4d 85 c0             	test   %r8,%r8
   18002bab1:	74 0d                	je     0x18002bac0
   18002bab3:	4d 85 c9             	test   %r9,%r9
   18002bab6:	74 08                	je     0x18002bac0
   18002bab8:	48 85 d2             	test   %rdx,%rdx
   18002babb:	75 26                	jne    0x18002bae3
   18002babd:	4d 21 20             	and    %r12,(%r8)
   18002bac0:	48 b8 02 00 00 00 00 	movabs $0x8000000000000002,%rax
   18002bac7:	00 00 80
   18002baca:	4c 8d 5c 24 60       	lea    0x60(%rsp),%r11
   18002bacf:	49 8b 5b 30          	mov    0x30(%r11),%rbx
   18002bad3:	49 8b 6b 48          	mov    0x48(%r11),%rbp
   18002bad7:	49 8b e3             	mov    %r11,%rsp
   18002bada:	41 5e                	pop    %r14
   18002badc:	41 5d                	pop    %r13
   18002bade:	41 5c                	pop    %r12
   18002bae0:	5f                   	pop    %rdi
   18002bae1:	5e                   	pop    %rsi
   18002bae2:	c3                   	ret
   18002bae3:	48 8b 15 c6 b5 01 00 	mov    0x1b5c6(%rip),%rdx        # 0x1800470b0
   18002baea:	41 b8 0a 00 00 00    	mov    $0xa,%r8d
   18002baf0:	48 8b cf             	mov    %rdi,%rcx
   18002baf3:	e8 8c ba fd ff       	call   0x180007584
   18002baf8:	48 85 c0             	test   %rax,%rax
   18002bafb:	74 05                	je     0x18002bb02
   18002bafd:	48 89 3e             	mov    %rdi,(%rsi)
   18002bb00:	eb be                	jmp    0x18002bac0
   18002bb02:	48 8d 4c 24 40       	lea    0x40(%rsp),%rcx
   18002bb07:	e8 5c f0 ff ff       	call   0x18002ab68
   18002bb0c:	49 be 00 00 00 00 00 	movabs $0x8000000000000000,%r14
   18002bb13:	00 00 80
   18002bb16:	49 85 c6             	test   %rax,%r14
   18002bb19:	75 af                	jne    0x18002baca
   18002bb1b:	4c 8d 84 24 98 00 00 	lea    0x98(%rsp),%r8
   18002bb22:	00
   18002bb23:	48 8d 54 24 38       	lea    0x38(%rsp),%rdx
   18002bb28:	48 8b cf             	mov    %rdi,%rcx
   18002bb2b:	e8 58 f4 ff ff       	call   0x18002af88
   18002bb30:	49 85 c6             	test   %rax,%r14
   18002bb33:	75 95                	jne    0x18002baca
   18002bb35:	48 8b 8c 24 98 00 00 	mov    0x98(%rsp),%rcx
   18002bb3c:	00
   18002bb3d:	48 8d 54 24 20       	lea    0x20(%rsp),%rdx
   18002bb42:	48 85 c9             	test   %rcx,%rcx
   18002bb45:	0f 84 0f 01 00 00    	je     0x18002bc5a
   18002bb4b:	e8 fc fc ff ff       	call   0x18002b84c
   18002bb50:	48 8b d8             	mov    %rax,%rbx
   18002bb53:	49 85 c6             	test   %rax,%r14
   18002bb56:	48 8b 05 63 4e 02 00 	mov    0x24e63(%rip),%rax        # 0x1800509c0
   18002bb5d:	0f 85 d4 00 00 00    	jne    0x18002bc37
   18002bb63:	48 8b 4c 24 20       	mov    0x20(%rsp),%rcx
   18002bb68:	4c 8d 44 24 28       	lea    0x28(%rsp),%r8
   18002bb6d:	48 8d 15 84 24 02 00 	lea    0x22484(%rip),%rdx        # 0x18004dff8
   18002bb74:	ff 90 98 00 00 00    	call   *0x98(%rax)
   18002bb7a:	48 8b d8             	mov    %rax,%rbx
   18002bb7d:	49 85 c6             	test   %rax,%r14
   18002bb80:	0f 85 aa 00 00 00    	jne    0x18002bc30
   18002bb86:	48 8b 44 24 28       	mov    0x28(%rsp),%rax
   18002bb8b:	48 8b 94 24 98 00 00 	mov    0x98(%rsp),%rdx
   18002bb92:	00
   18002bb93:	4c 8d 8c 24 a0 00 00 	lea    0xa0(%rsp),%r9
   18002bb9a:	00
   18002bb9b:	4c 8d 44 24 30       	lea    0x30(%rsp),%r8
   18002bba0:	48 8b c8             	mov    %rax,%rcx
   18002bba3:	ff 10                	call   *(%rax)
   18002bba5:	48 8b 8c 24 98 00 00 	mov    0x98(%rsp),%rcx
   18002bbac:	00
   18002bbad:	4c 8b e8             	mov    %rax,%r13
   18002bbb0:	49 85 c6             	test   %rax,%r14
   18002bbb3:	75 4a                	jne    0x18002bbff
   18002bbb5:	48 8b 44 24 38       	mov    0x38(%rsp),%rax
   18002bbba:	4c 03 e0             	add    %rax,%r12
   18002bbbd:	48 8d 3c 47          	lea    (%rdi,%rax,2),%rdi
   18002bbc1:	48 8b 05 f8 4d 02 00 	mov    0x24df8(%rip),%rax        # 0x1800509c0
   18002bbc8:	ff 50 48             	call   *0x48(%rax)
   18002bbcb:	48 8b 8c 24 a0 00 00 	mov    0xa0(%rsp),%rcx
   18002bbd2:	00
   18002bbd3:	4c 8d 44 24 40       	lea    0x40(%rsp),%r8
   18002bbd8:	33 d2                	xor    %edx,%edx
   18002bbda:	e8 79 f4 ff ff       	call   0x18002b058
   18002bbdf:	49 85 c6             	test   %rax,%r14
   18002bbe2:	0f 85 e2 fe ff ff    	jne    0x18002baca
   18002bbe8:	48 8b 05 d1 4d 02 00 	mov    0x24dd1(%rip),%rax        # 0x1800509c0
   18002bbef:	48 8b 8c 24 a0 00 00 	mov    0xa0(%rsp),%rcx
   18002bbf6:	00
   18002bbf7:	ff 50 48             	call   *0x48(%rax)
   18002bbfa:	e9 1c ff ff ff       	jmp    0x18002bb1b
   18002bbff:	48 8b 5c 24 30       	mov    0x30(%rsp),%rbx
   18002bc04:	48 8b 05 b5 4d 02 00 	mov    0x24db5(%rip),%rax        # 0x1800509c0
   18002bc0b:	48 2b d9             	sub    %rcx,%rbx
   18002bc0e:	48 d1 fb             	sar    %rbx
   18002bc11:	ff 50 48             	call   *0x48(%rax)
   18002bc14:	4e 8d 1c 23          	lea    (%rbx,%r12,1),%r11
   18002bc18:	4a 8d 04 5f          	lea    (%rdi,%r11,2),%rax
   18002bc1c:	48 89 06             	mov    %rax,(%rsi)
   18002bc1f:	48 8b 44 24 40       	mov    0x40(%rsp),%rax
   18002bc24:	48 89 45 00          	mov    %rax,0x0(%rbp)
   18002bc28:	49 8b c5             	mov    %r13,%rax
   18002bc2b:	e9 9a fe ff ff       	jmp    0x18002baca
   18002bc30:	48 8b 05 89 4d 02 00 	mov    0x24d89(%rip),%rax        # 0x1800509c0
   18002bc37:	48 8b 8c 24 98 00 00 	mov    0x98(%rsp),%rcx
   18002bc3e:	00
   18002bc3f:	ff 50 48             	call   *0x48(%rax)
   18002bc42:	48 8b 44 24 40       	mov    0x40(%rsp),%rax
   18002bc47:	4e 8d 1c 67          	lea    (%rdi,%r12,2),%r11
   18002bc4b:	4c 89 1e             	mov    %r11,(%rsi)
   18002bc4e:	48 89 45 00          	mov    %rax,0x0(%rbp)
   18002bc52:	48 8b c3             	mov    %rbx,%rax
   18002bc55:	e9 70 fe ff ff       	jmp    0x18002baca
   18002bc5a:	48 8b cf             	mov    %rdi,%rcx
   18002bc5d:	e8 ea fb ff ff       	call   0x18002b84c
   18002bc62:	4c 8b d8             	mov    %rax,%r11
   18002bc65:	49 85 c6             	test   %rax,%r14
   18002bc68:	0f 85 ab 00 00 00    	jne    0x18002bd19
   18002bc6e:	48 8b 05 4b 4d 02 00 	mov    0x24d4b(%rip),%rax        # 0x1800509c0
   18002bc75:	48 8b 4c 24 20       	mov    0x20(%rsp),%rcx
   18002bc7a:	4c 8d 44 24 28       	lea    0x28(%rsp),%r8
   18002bc7f:	48 8d 15 72 23 02 00 	lea    0x22372(%rip),%rdx        # 0x18004dff8
   18002bc86:	ff 90 98 00 00 00    	call   *0x98(%rax)
   18002bc8c:	4c 8b d8             	mov    %rax,%r11
   18002bc8f:	49 85 c6             	test   %rax,%r14
   18002bc92:	0f 85 81 00 00 00    	jne    0x18002bd19
   18002bc98:	48 8b 44 24 28       	mov    0x28(%rsp),%rax
   18002bc9d:	4c 8d 8c 24 a0 00 00 	lea    0xa0(%rsp),%r9
   18002bca4:	00
   18002bca5:	4c 8d 44 24 30       	lea    0x30(%rsp),%r8
   18002bcaa:	48 8b c8             	mov    %rax,%rcx
   18002bcad:	48 8b d7             	mov    %rdi,%rdx
   18002bcb0:	ff 10                	call   *(%rax)
   18002bcb2:	4c 8b d8             	mov    %rax,%r11
   18002bcb5:	49 85 c6             	test   %rax,%r14
   18002bcb8:	75 55                	jne    0x18002bd0f
   18002bcba:	48 8b 8c 24 a0 00 00 	mov    0xa0(%rsp),%rcx
   18002bcc1:	00
   18002bcc2:	4c 8d 44 24 40       	lea    0x40(%rsp),%r8
   18002bcc7:	33 d2                	xor    %edx,%edx
   18002bcc9:	e8 8a f3 ff ff       	call   0x18002b058
   18002bcce:	49 85 c6             	test   %rax,%r14
   18002bcd1:	0f 85 f3 fd ff ff    	jne    0x18002baca
   18002bcd7:	48 8b 05 e2 4c 02 00 	mov    0x24ce2(%rip),%rax        # 0x1800509c0
   18002bcde:	48 8b 8c 24 a0 00 00 	mov    0xa0(%rsp),%rcx
   18002bce5:	00
   18002bce6:	ff 50 48             	call   *0x48(%rax)
   18002bce9:	4c 8b 5c 24 40       	mov    0x40(%rsp),%r11
   18002bcee:	48 8b cf             	mov    %rdi,%rcx
   18002bcf1:	4c 89 5d 00          	mov    %r11,0x0(%rbp)
   18002bcf5:	e8 ca 14 00 00       	call   0x18002d1c4
   18002bcfa:	44 8b d8             	mov    %eax,%r11d
   18002bcfd:	49 d1 eb             	shr    %r11
   18002bd00:	4a 8d 44 5f fe       	lea    -0x2(%rdi,%r11,2),%rax
   18002bd05:	48 89 06             	mov    %rax,(%rsi)
   18002bd08:	33 c0                	xor    %eax,%eax
   18002bd0a:	e9 bb fd ff ff       	jmp    0x18002baca
   18002bd0f:	48 8b 44 24 30       	mov    0x30(%rsp),%rax
   18002bd14:	48 89 06             	mov    %rax,(%rsi)
   18002bd17:	eb 03                	jmp    0x18002bd1c
   18002bd19:	48 89 3e             	mov    %rdi,(%rsi)
   18002bd1c:	48 8b 44 24 40       	mov    0x40(%rsp),%rax
   18002bd21:	48 89 45 00          	mov    %rax,0x0(%rbp)
   18002bd25:	49 8b c3             	mov    %r11,%rax
   18002bd28:	e9 9d fd ff ff       	jmp    0x18002baca
   18002bd2d:	cc                   	int3
   18002bd2e:	cc                   	int3
   18002bd2f:	cc                   	int3
   18002bd30:	48 89 5c 24 08       	mov    %rbx,0x8(%rsp)
   18002bd35:	55                   	push   %rbp
   18002bd36:	56                   	push   %rsi
   18002bd37:	57                   	push   %rdi
   18002bd38:	41 54                	push   %r12
   18002bd3a:	41 55                	push   %r13
   18002bd3c:	48 83 ec 30          	sub    $0x30,%rsp
   18002bd40:	33 ed                	xor    %ebp,%ebp
   18002bd42:	49 8b f0             	mov    %r8,%rsi
   18002bd45:	48 8b fa             	mov    %rdx,%rdi
   18002bd48:	4d 85 c0             	test   %r8,%r8
   18002bd4b:	75 0f                	jne    0x18002bd5c
   18002bd4d:	48 b8 02 00 00 00 00 	movabs $0x8000000000000002,%rax
   18002bd54:	00 00 80
   18002bd57:	e9 8d 01 00 00       	jmp    0x18002bee9
   18002bd5c:	48 85 d2             	test   %rdx,%rdx
   18002bd5f:	75 05                	jne    0x18002bd66
   18002bd61:	49 21 28             	and    %rbp,(%r8)
   18002bd64:	eb e7                	jmp    0x18002bd4d
   18002bd66:	48 8b 15 43 b3 01 00 	mov    0x1b343(%rip),%rdx        # 0x1800470b0
   18002bd6d:	41 b8 0a 00 00 00    	mov    $0xa,%r8d
   18002bd73:	48 8b cf             	mov    %rdi,%rcx
   18002bd76:	e8 09 b8 fd ff       	call   0x180007584
   18002bd7b:	48 85 c0             	test   %rax,%rax
   18002bd7e:	74 05                	je     0x18002bd85
   18002bd80:	48 89 3e             	mov    %rdi,(%rsi)
   18002bd83:	eb c8                	jmp    0x18002bd4d
   18002bd85:	49 bd 00 00 00 00 00 	movabs $0x8000000000000000,%r13
   18002bd8c:	00 00 80
   18002bd8f:	4c 8d 44 24 68       	lea    0x68(%rsp),%r8
   18002bd94:	48 8d 54 24 28       	lea    0x28(%rsp),%rdx
   18002bd99:	48 8b cf             	mov    %rdi,%rcx
   18002bd9c:	e8 e7 f1 ff ff       	call   0x18002af88
   18002bda1:	49 85 c5             	test   %rax,%r13
   18002bda4:	0f 85 3f 01 00 00    	jne    0x18002bee9
   18002bdaa:	48 8b 4c 24 68       	mov    0x68(%rsp),%rcx
   18002bdaf:	48 8d 54 24 70       	lea    0x70(%rsp),%rdx
   18002bdb4:	48 85 c9             	test   %rcx,%rcx
   18002bdb7:	0f 84 b7 00 00 00    	je     0x18002be74
   18002bdbd:	e8 8a fa ff ff       	call   0x18002b84c
   18002bdc2:	48 8b d8             	mov    %rax,%rbx
   18002bdc5:	49 85 c5             	test   %rax,%r13
   18002bdc8:	48 8b 05 f1 4b 02 00 	mov    0x24bf1(%rip),%rax        # 0x1800509c0
   18002bdcf:	0f 85 8b 00 00 00    	jne    0x18002be60
   18002bdd5:	48 8b 4c 24 70       	mov    0x70(%rsp),%rcx
   18002bdda:	4c 8d 44 24 78       	lea    0x78(%rsp),%r8
   18002bddf:	48 8d 15 12 22 02 00 	lea    0x22212(%rip),%rdx        # 0x18004dff8
   18002bde6:	ff 90 98 00 00 00    	call   *0x98(%rax)
   18002bdec:	48 8b d8             	mov    %rax,%rbx
   18002bdef:	49 85 c5             	test   %rax,%r13
   18002bdf2:	75 65                	jne    0x18002be59
   18002bdf4:	48 8b 44 24 78       	mov    0x78(%rsp),%rax
   18002bdf9:	48 8b 54 24 68       	mov    0x68(%rsp),%rdx
   18002bdfe:	4c 8d 44 24 20       	lea    0x20(%rsp),%r8
   18002be03:	48 8b c8             	mov    %rax,%rcx
   18002be06:	ff 50 08             	call   *0x8(%rax)
   18002be09:	48 8b 4c 24 68       	mov    0x68(%rsp),%rcx
   18002be0e:	4c 8b e0             	mov    %rax,%r12
   18002be11:	49 85 c5             	test   %rax,%r13
   18002be14:	75 1b                	jne    0x18002be31
   18002be16:	48 8b 44 24 28       	mov    0x28(%rsp),%rax
   18002be1b:	48 03 e8             	add    %rax,%rbp
   18002be1e:	48 8d 3c 47          	lea    (%rdi,%rax,2),%rdi
   18002be22:	48 8b 05 97 4b 02 00 	mov    0x24b97(%rip),%rax        # 0x1800509c0
   18002be29:	ff 50 48             	call   *0x48(%rax)
   18002be2c:	e9 5e ff ff ff       	jmp    0x18002bd8f
   18002be31:	48 8b 5c 24 20       	mov    0x20(%rsp),%rbx
   18002be36:	48 8b 05 83 4b 02 00 	mov    0x24b83(%rip),%rax        # 0x1800509c0
   18002be3d:	48 2b d9             	sub    %rcx,%rbx
   18002be40:	48 d1 fb             	sar    %rbx
   18002be43:	ff 50 48             	call   *0x48(%rax)
   18002be46:	4c 8d 1c 2b          	lea    (%rbx,%rbp,1),%r11
   18002be4a:	4a 8d 04 5f          	lea    (%rdi,%r11,2),%rax
   18002be4e:	48 89 06             	mov    %rax,(%rsi)
   18002be51:	49 8b c4             	mov    %r12,%rax
   18002be54:	e9 90 00 00 00       	jmp    0x18002bee9
   18002be59:	48 8b 05 60 4b 02 00 	mov    0x24b60(%rip),%rax        # 0x1800509c0
   18002be60:	48 8b 4c 24 68       	mov    0x68(%rsp),%rcx
   18002be65:	ff 50 48             	call   *0x48(%rax)
   18002be68:	4c 8d 1c 6f          	lea    (%rdi,%rbp,2),%r11
   18002be6c:	48 8b c3             	mov    %rbx,%rax
   18002be6f:	4c 89 1e             	mov    %r11,(%rsi)
   18002be72:	eb 75                	jmp    0x18002bee9
   18002be74:	48 8b cf             	mov    %rdi,%rcx
   18002be77:	e8 d0 f9 ff ff       	call   0x18002b84c
   18002be7c:	49 85 c5             	test   %rax,%r13
   18002be7f:	75 65                	jne    0x18002bee6
   18002be81:	48 8b 05 38 4b 02 00 	mov    0x24b38(%rip),%rax        # 0x1800509c0
   18002be88:	48 8b 4c 24 70       	mov    0x70(%rsp),%rcx
   18002be8d:	4c 8d 44 24 78       	lea    0x78(%rsp),%r8
   18002be92:	48 8d 15 5f 21 02 00 	lea    0x2215f(%rip),%rdx        # 0x18004dff8
   18002be99:	ff 90 98 00 00 00    	call   *0x98(%rax)
   18002be9f:	49 85 c5             	test   %rax,%r13
   18002bea2:	75 42                	jne    0x18002bee6
   18002bea4:	48 8b 44 24 78       	mov    0x78(%rsp),%rax
   18002bea9:	4c 8d 44 24 20       	lea    0x20(%rsp),%r8
   18002beae:	48 8b d7             	mov    %rdi,%rdx
   18002beb1:	48 8b c8             	mov    %rax,%rcx
   18002beb4:	ff 50 08             	call   *0x8(%rax)
   18002beb7:	4c 8b d8             	mov    %rax,%r11
   18002beba:	49 85 c5             	test   %rax,%r13
   18002bebd:	75 1a                	jne    0x18002bed9
   18002bebf:	48 8b cf             	mov    %rdi,%rcx
   18002bec2:	e8 fd 12 00 00       	call   0x18002d1c4
   18002bec7:	44 8b d8             	mov    %eax,%r11d
   18002beca:	49 d1 eb             	shr    %r11
   18002becd:	4a 8d 44 5f fe       	lea    -0x2(%rdi,%r11,2),%rax
   18002bed2:	48 89 06             	mov    %rax,(%rsi)
   18002bed5:	33 c0                	xor    %eax,%eax
   18002bed7:	eb 10                	jmp    0x18002bee9
   18002bed9:	48 8b 44 24 20       	mov    0x20(%rsp),%rax
   18002bede:	48 89 06             	mov    %rax,(%rsi)
   18002bee1:	49 8b c3             	mov    %r11,%rax
   18002bee4:	eb 03                	jmp    0x18002bee9
   18002bee6:	48 89 3e             	mov    %rdi,(%rsi)
   18002bee9:	48 8b 5c 24 60       	mov    0x60(%rsp),%rbx
   18002beee:	48 83 c4 30          	add    $0x30,%rsp
   18002bef2:	41 5d                	pop    %r13
   18002bef4:	41 5c                	pop    %r12
   18002bef6:	5f                   	pop    %rdi
   18002bef7:	5e                   	pop    %rsi
   18002bef8:	5d                   	pop    %rbp
   18002bef9:	c3                   	ret
   18002befa:	cc                   	int3
   18002befb:	cc                   	int3
   18002befc:	48 89 5c 24 08       	mov    %rbx,0x8(%rsp)
   18002bf01:	48 89 6c 24 18       	mov    %rbp,0x18(%rsp)
   18002bf06:	56                   	push   %rsi
   18002bf07:	57                   	push   %rdi
   18002bf08:	41 54                	push   %r12
   18002bf0a:	41 55                	push   %r13
   18002bf0c:	41 56                	push   %r14
   18002bf0e:	48 83 ec 30          	sub    $0x30,%rsp
   18002bf12:	4d 8b e1             	mov    %r9,%r12
   18002bf15:	4d 8b e8             	mov    %r8,%r13
   18002bf18:	48 8b fa             	mov    %rdx,%rdi
   18002bf1b:	48 85 d2             	test   %rdx,%rdx
   18002bf1e:	0f 84 01 01 00 00    	je     0x18002c025
   18002bf24:	48 8b 9c 24 90 00 00 	mov    0x90(%rsp),%rbx
   18002bf2b:	00
   18002bf2c:	48 85 db             	test   %rbx,%rbx
   18002bf2f:	0f 84 f0 00 00 00    	je     0x18002c025
   18002bf35:	48 8b 15 74 b1 01 00 	mov    0x1b174(%rip),%rdx        # 0x1800470b0
   18002bf3c:	41 b8 0a 00 00 00    	mov    $0xa,%r8d
   18002bf42:	48 8b cf             	mov    %rdi,%rcx
   18002bf45:	e8 3a b6 fd ff       	call   0x180007584
   18002bf4a:	48 85 c0             	test   %rax,%rax
   18002bf4d:	0f 85 d2 00 00 00    	jne    0x18002c025
   18002bf53:	48 8b b4 24 88 00 00 	mov    0x88(%rsp),%rsi
   18002bf5a:	00
   18002bf5b:	49 be 00 00 00 00 00 	movabs $0x8000000000000000,%r14
   18002bf62:	00 00 80
   18002bf65:	48 8d 54 24 68       	lea    0x68(%rsp),%rdx
   18002bf6a:	4c 8b c3             	mov    %rbx,%r8
   18002bf6d:	48 8b cf             	mov    %rdi,%rcx
   18002bf70:	e8 13 f0 ff ff       	call   0x18002af88
   18002bf75:	49 85 c6             	test   %rax,%r14
   18002bf78:	0f 85 b1 00 00 00    	jne    0x18002c02f
   18002bf7e:	48 8b 0b             	mov    (%rbx),%rcx
   18002bf81:	48 85 c9             	test   %rcx,%rcx
   18002bf84:	74 39                	je     0x18002bfbf
   18002bf86:	4c 8b 8c 24 80 00 00 	mov    0x80(%rsp),%r9
   18002bf8d:	00
   18002bf8e:	4d 8b c4             	mov    %r12,%r8
   18002bf91:	49 8b d5             	mov    %r13,%rdx
   18002bf94:	48 89 74 24 20       	mov    %rsi,0x20(%rsp)
   18002bf99:	e8 7a f9 ff ff       	call   0x18002b918
   18002bf9e:	49 85 c6             	test   %rax,%r14
   18002bfa1:	0f 84 88 00 00 00    	je     0x18002c02f
   18002bfa7:	48 8b 44 24 68       	mov    0x68(%rsp),%rax
   18002bfac:	48 8b 0b             	mov    (%rbx),%rcx
   18002bfaf:	48 8d 3c 47          	lea    (%rdi,%rax,2),%rdi
   18002bfb3:	48 8b 05 06 4a 02 00 	mov    0x24a06(%rip),%rax        # 0x1800509c0
   18002bfba:	ff 50 48             	call   *0x48(%rax)
   18002bfbd:	eb a6                	jmp    0x18002bf65
   18002bfbf:	48 8b cf             	mov    %rdi,%rcx
   18002bfc2:	e8 fd 11 00 00       	call   0x18002d1c4
   18002bfc7:	4c 8b c3             	mov    %rbx,%r8
   18002bfca:	b9 04 00 00 00       	mov    $0x4,%ecx
   18002bfcf:	8b e8                	mov    %eax,%ebp
   18002bfd1:	8b d0                	mov    %eax,%edx
   18002bfd3:	48 8b 05 e6 49 02 00 	mov    0x249e6(%rip),%rax        # 0x1800509c0
   18002bfda:	ff 50 40             	call   *0x40(%rax)
   18002bfdd:	49 85 c6             	test   %rax,%r14
   18002bfe0:	75 4d                	jne    0x18002c02f
   18002bfe2:	48 8b 0b             	mov    (%rbx),%rcx
   18002bfe5:	4c 8b c5             	mov    %rbp,%r8
   18002bfe8:	48 8b d7             	mov    %rdi,%rdx
   18002bfeb:	e8 20 db fd ff       	call   0x180009b10
   18002bff0:	4c 8b 8c 24 80 00 00 	mov    0x80(%rsp),%r9
   18002bff7:	00
   18002bff8:	48 8b 0b             	mov    (%rbx),%rcx
   18002bffb:	4d 8b c4             	mov    %r12,%r8
   18002bffe:	49 8b d5             	mov    %r13,%rdx
   18002c001:	48 89 74 24 20       	mov    %rsi,0x20(%rsp)
   18002c006:	e8 0d f9 ff ff       	call   0x18002b918
   18002c00b:	48 8b f8             	mov    %rax,%rdi
   18002c00e:	49 85 c6             	test   %rax,%r14
   18002c011:	74 0d                	je     0x18002c020
   18002c013:	48 8b 15 a6 49 02 00 	mov    0x249a6(%rip),%rdx        # 0x1800509c0
   18002c01a:	48 8b 0b             	mov    (%rbx),%rcx
   18002c01d:	ff 52 48             	call   *0x48(%rdx)
   18002c020:	48 8b c7             	mov    %rdi,%rax
   18002c023:	eb 0a                	jmp    0x18002c02f
   18002c025:	48 b8 02 00 00 00 00 	movabs $0x8000000000000002,%rax
   18002c02c:	00 00 80
   18002c02f:	48 8b 5c 24 60       	mov    0x60(%rsp),%rbx
   18002c034:	48 8b 6c 24 70       	mov    0x70(%rsp),%rbp
   18002c039:	48 83 c4 30          	add    $0x30,%rsp
   18002c03d:	41 5e                	pop    %r14
   18002c03f:	41 5d                	pop    %r13
   18002c041:	41 5c                	pop    %r12
   18002c043:	5f                   	pop    %rdi
   18002c044:	5e                   	pop    %rsi
   18002c045:	c3                   	ret
   18002c046:	cc                   	int3
   18002c047:	cc                   	int3
   18002c048:	48 89 54 24 10       	mov    %rdx,0x10(%rsp)
   18002c04d:	48 89 4c 24 08       	mov    %rcx,0x8(%rsp)
   18002c052:	48 83 ec 18          	sub    $0x18,%rsp
   18002c056:	48 83 7c 24 20 00    	cmpq   $0x0,0x20(%rsp)
   18002c05c:	74 12                	je     0x18002c070
   18002c05e:	48 83 7c 24 28 00    	cmpq   $0x0,0x28(%rsp)
   18002c064:	74 0a                	je     0x18002c070
   18002c066:	48 c7 04 24 00 00 00 	movq   $0x0,(%rsp)
   18002c06d:	00
   18002c06e:	eb 0e                	jmp    0x18002c07e
   18002c070:	48 b8 02 00 00 00 00 	movabs $0x8000000000000002,%rax
   18002c077:	00 00 80
   18002c07a:	48 89 04 24          	mov    %rax,(%rsp)
   18002c07e:	48 8b 04 24          	mov    (%rsp),%rax
   18002c082:	48 83 c4 18          	add    $0x18,%rsp
   18002c086:	c3                   	ret
   18002c087:	cc                   	int3
   18002c088:	48 89 5c 24 08       	mov    %rbx,0x8(%rsp)
   18002c08d:	57                   	push   %rdi
   18002c08e:	48 83 ec 30          	sub    $0x30,%rsp
   18002c092:	33 db                	xor    %ebx,%ebx
   18002c094:	0f b7 c2             	movzwl %dx,%eax
   18002c097:	48 8d 0d a2 79 02 00 	lea    0x279a2(%rip),%rcx        # 0x180053a40
   18002c09e:	48 03 c0             	add    %rax,%rax
   18002c0a1:	4d 8b c8             	mov    %r8,%r9
   18002c0a4:	40 8a fb             	mov    %bl,%dil
   18002c0a7:	f3 0f 6f 04 c1       	movdqu (%rcx,%rax,8),%xmm0
   18002c0ac:	f3 0f 7f 44 24 20    	movdqu %xmm0,0x20(%rsp)
   18002c0b2:	4c 3b c3             	cmp    %rbx,%r8
   18002c0b5:	75 0c                	jne    0x18002c0c3
   18002c0b7:	48 b8 02 00 00 00 00 	movabs $0x8000000000000002,%rax
   18002c0be:	00 00 80
   18002c0c1:	eb 7d                	jmp    0x18002c140
   18002c0c3:	48 8b 54 24 20       	mov    0x20(%rsp),%rdx
   18002c0c8:	48 3b d3             	cmp    %rbx,%rdx
   18002c0cb:	75 53                	jne    0x18002c120
   18002c0cd:	48 8b 54 24 28       	mov    0x28(%rsp),%rdx
   18002c0d2:	48 3b d3             	cmp    %rbx,%rdx
   18002c0d5:	75 31                	jne    0x18002c108
   18002c0d7:	f3 0f 6f 05 31 79 12 	movdqu 0x127931(%rip),%xmm0        # 0x180153a10
   18002c0de:	00
   18002c0df:	40 b7 01             	mov    $0x1,%dil
   18002c0e2:	f3 0f 7f 44 24 20    	movdqu %xmm0,0x20(%rsp)
   18002c0e8:	48 8b 54 24 20       	mov    0x20(%rsp),%rdx
   18002c0ed:	48 3b d3             	cmp    %rbx,%rdx
   18002c0f0:	75 2e                	jne    0x18002c120
   18002c0f2:	48 8b 54 24 28       	mov    0x28(%rsp),%rdx
   18002c0f7:	48 3b d3             	cmp    %rbx,%rdx
   18002c0fa:	75 0c                	jne    0x18002c108
   18002c0fc:	48 b8 0e 00 00 00 00 	movabs $0x800000000000000e,%rax
   18002c103:	00 00 80
   18002c106:	eb 38                	jmp    0x18002c140
   18002c108:	48 8b 05 b1 48 02 00 	mov    0x248b1(%rip),%rax        # 0x1800509c0
   18002c10f:	41 b8 2c 00 00 00    	mov    $0x2c,%r8d
   18002c115:	49 8b c9             	mov    %r9,%rcx
   18002c118:	ff 90 60 01 00 00    	call   *0x160(%rax)
   18002c11e:	eb 17                	jmp    0x18002c137
   18002c120:	49 8b c9             	mov    %r9,%rcx
   18002c123:	4c 8b 0d 96 48 02 00 	mov    0x24896(%rip),%r9        # 0x1800509c0
   18002c12a:	41 b8 16 00 00 00    	mov    $0x16,%r8d
   18002c130:	41 ff 91 60 01 00 00 	call   *0x160(%r9)
   18002c137:	40 3a fb             	cmp    %bl,%dil
   18002c13a:	0f 95 c3             	setne  %bl
   18002c13d:	48 8b c3             	mov    %rbx,%rax
   18002c140:	48 8b 5c 24 40       	mov    0x40(%rsp),%rbx
   18002c145:	48 83 c4 30          	add    $0x30,%rsp
   18002c149:	5f                   	pop    %rdi
   18002c14a:	c3                   	ret
   18002c14b:	cc                   	int3
   18002c14c:	48 89 5c 24 08       	mov    %rbx,0x8(%rsp)
   18002c151:	48 89 6c 24 10       	mov    %rbp,0x10(%rsp)
   18002c156:	56                   	push   %rsi
   18002c157:	57                   	push   %rdi
   18002c158:	41 54                	push   %r12
   18002c15a:	41 55                	push   %r13
   18002c15c:	41 56                	push   %r14
   18002c15e:	48 83 ec 50          	sub    $0x50,%rsp
   18002c162:	45 33 f6             	xor    %r14d,%r14d
   18002c165:	49 8b e9             	mov    %r9,%rbp
   18002c168:	4d 8b e0             	mov    %r8,%r12
   18002c16b:	4c 8b ea             	mov    %rdx,%r13
   18002c16e:	4d 3b c6             	cmp    %r14,%r8
   18002c171:	75 0e                	jne    0x18002c181
   18002c173:	4c 8b 9c 24 90 00 00 	mov    0x90(%rsp),%r11
   18002c17a:	00
   18002c17b:	41 8d 76 37          	lea    0x37(%r14),%esi
   18002c17f:	eb 1c                	jmp    0x18002c19d
   18002c181:	49 8b d0             	mov    %r8,%rdx
   18002c184:	48 8d 4c 24 30       	lea    0x30(%rsp),%rcx
   18002c189:	41 b8 14 00 00 00    	mov    $0x14,%r8d
   18002c18f:	e8 7c d9 fd ff       	call   0x180009b10
   18002c194:	8b 74 24 38          	mov    0x38(%rsp),%esi
   18002c198:	4d 8d 5c 24 12       	lea    0x12(%r12),%r11
   18002c19d:	b9 01 00 01 00       	mov    $0x10001,%ecx
   18002c1a2:	8b c6                	mov    %esi,%eax
   18002c1a4:	23 c1                	and    %ecx,%eax
   18002c1a6:	3b c1                	cmp    %ecx,%eax
   18002c1a8:	0f 84 a5 01 00 00    	je     0x18002c353
   18002c1ae:	b9 02 00 02 00       	mov    $0x20002,%ecx
   18002c1b3:	8b c6                	mov    %esi,%eax
   18002c1b5:	23 c1                	and    %ecx,%eax
   18002c1b7:	3b c1                	cmp    %ecx,%eax
   18002c1b9:	0f 84 94 01 00 00    	je     0x18002c353
   18002c1bf:	b9 04 00 04 00       	mov    $0x40004,%ecx
   18002c1c4:	8b c6                	mov    %esi,%eax
   18002c1c6:	23 c1                	and    %ecx,%eax
   18002c1c8:	3b c1                	cmp    %ecx,%eax
   18002c1ca:	0f 84 83 01 00 00    	je     0x18002c353
   18002c1d0:	b9 00 10 02 00       	mov    $0x21000,%ecx
   18002c1d5:	8b c6                	mov    %esi,%eax
   18002c1d7:	23 c1                	and    %ecx,%eax
   18002c1d9:	3b c1                	cmp    %ecx,%eax
   18002c1db:	0f 84 72 01 00 00    	je     0x18002c353
   18002c1e1:	b9 00 20 04 00       	mov    $0x42000,%ecx
   18002c1e6:	8b c6                	mov    %esi,%eax
   18002c1e8:	23 c1                	and    %ecx,%eax
   18002c1ea:	3b c1                	cmp    %ecx,%eax
   18002c1ec:	0f 84 61 01 00 00    	je     0x18002c353
   18002c1f2:	8b 3d 44 af 01 00    	mov    0x1af44(%rip),%edi        # 0x18004713c
   18002c1f8:	40 f6 c6 10          	test   $0x10,%sil
   18002c1fc:	75 04                	jne    0x18002c202
   18002c1fe:	41 8b 3c 24          	mov    (%r12),%edi
   18002c202:	8b 1d 30 af 01 00    	mov    0x1af30(%rip),%ebx        # 0x180047138
   18002c208:	40 f6 c6 20          	test   $0x20,%sil
   18002c20c:	75 05                	jne    0x18002c213
   18002c20e:	41 8b 5c 24 04       	mov    0x4(%r12),%ebx
   18002c213:	45 8b d6             	mov    %r14d,%r10d
   18002c216:	40 f6 c6 04          	test   $0x4,%sil
   18002c21a:	75 05                	jne    0x18002c221
   18002c21c:	45 8b 54 24 0c       	mov    0xc(%r12),%r10d
   18002c221:	40 f6 c6 02          	test   $0x2,%sil
   18002c225:	74 08                	je     0x18002c22f
   18002c227:	41 b8 13 00 00 00    	mov    $0x13,%r8d
   18002c22d:	eb 06                	jmp    0x18002c235
   18002c22f:	66 45 8b 44 24 10    	mov    0x10(%r12),%r8w
   18002c235:	40 f6 c6 01          	test   $0x1,%sil
   18002c239:	74 5d                	je     0x18002c298
   18002c23b:	b9 00 f0 ad de       	mov    $0xdeadf000,%ecx
   18002c240:	49 39 4d 00          	cmp    %rcx,0x0(%r13)
   18002c244:	75 13                	jne    0x18002c259
   18002c246:	4d 89 75 00          	mov    %r14,0x0(%r13)
   18002c24a:	48 b8 0e 00 00 00 00 	movabs $0x800000000000000e,%rax
   18002c251:	00 00 80
   18002c254:	e9 04 01 00 00       	jmp    0x18002c35d
   18002c259:	49 89 4d 00          	mov    %rcx,0x0(%r13)
   18002c25d:	49 3b ee             	cmp    %r14,%rbp
   18002c260:	74 2f                	je     0x18002c291
   18002c262:	48 8b d5             	mov    %rbp,%rdx
   18002c265:	e8 6a 46 00 00       	call   0x1800308d4
   18002c26a:	49 bc 00 00 00 00 00 	movabs $0x8000000000000000,%r12
   18002c271:	00 00 80
   18002c274:	49 85 c4             	test   %rax,%r12
   18002c277:	0f 85 e0 00 00 00    	jne    0x18002c35d
   18002c27d:	48 8b 45 00          	mov    0x0(%rbp),%rax
   18002c281:	89 38                	mov    %edi,(%rax)
   18002c283:	48 8b 45 00          	mov    0x0(%rbp),%rax
   18002c287:	89 58 04             	mov    %ebx,0x4(%rax)
   18002c28a:	48 8b 45 00          	mov    0x0(%rbp),%rax
   18002c28e:	89 70 08             	mov    %esi,0x8(%rax)
   18002c291:	33 c0                	xor    %eax,%eax
   18002c293:	e9 c5 00 00 00       	jmp    0x18002c35d
   18002c298:	8b c6                	mov    %esi,%eax
   18002c29a:	8b ce                	mov    %esi,%ecx
   18002c29c:	45 0f b7 c8          	movzwl %r8w,%r9d
   18002c2a0:	25 00 20 00 00       	and    $0x2000,%eax
   18002c2a5:	45 8b c2             	mov    %r10d,%r8d
   18002c2a8:	f7 d8                	neg    %eax
   18002c2aa:	1b c0                	sbb    %eax,%eax
   18002c2ac:	f7 d8                	neg    %eax
   18002c2ae:	ff c0                	inc    %eax
   18002c2b0:	0f ba e6 12          	bt     $0x12,%esi
   18002c2b4:	41 0f 42 c6          	cmovb  %r14d,%eax
   18002c2b8:	81 e1 00 10 00 00    	and    $0x1000,%ecx
   18002c2be:	83 e0 03             	and    $0x3,%eax
   18002c2c1:	c1 e0 02             	shl    $0x2,%eax
   18002c2c4:	f7 d9                	neg    %ecx
   18002c2c6:	8b ce                	mov    %esi,%ecx
   18002c2c8:	1b d2                	sbb    %edx,%edx
   18002c2ca:	f7 da                	neg    %edx
   18002c2cc:	ff c2                	inc    %edx
   18002c2ce:	0f ba e6 11          	bt     $0x11,%esi
   18002c2d2:	41 0f 42 d6          	cmovb  %r14d,%edx
   18002c2d6:	c1 e9 10             	shr    $0x10,%ecx
   18002c2d9:	f7 d1                	not    %ecx
   18002c2db:	83 e2 03             	and    $0x3,%edx
   18002c2de:	83 e1 01             	and    $0x1,%ecx
   18002c2e1:	0b c2                	or     %edx,%eax
   18002c2e3:	49 8b d3             	mov    %r11,%rdx
   18002c2e6:	03 c0                	add    %eax,%eax
   18002c2e8:	0b c1                	or     %ecx,%eax
   18002c2ea:	8b 8c 24 90 00 00 00 	mov    0x90(%rsp),%ecx
   18002c2f1:	83 e1 e0             	and    $0xffffffe0,%ecx
   18002c2f4:	0b c1                	or     %ecx,%eax
   18002c2f6:	48 8b 8c 24 a0 00 00 	mov    0xa0(%rsp),%rcx
   18002c2fd:	00
   18002c2fe:	48 89 4c 24 28       	mov    %rcx,0x28(%rsp)
   18002c303:	49 8b cd             	mov    %r13,%rcx
   18002c306:	89 44 24 20          	mov    %eax,0x20(%rsp)
   18002c30a:	e8 c5 44 00 00       	call   0x1800307d4
   18002c30f:	49 bc 00 00 00 00 00 	movabs $0x8000000000000000,%r12
   18002c316:	00 00 80
   18002c319:	4c 8b d8             	mov    %rax,%r11
   18002c31c:	49 85 c4             	test   %rax,%r12
   18002c31f:	75 2d                	jne    0x18002c34e
   18002c321:	49 3b ee             	cmp    %r14,%rbp
   18002c324:	74 28                	je     0x18002c34e
   18002c326:	49 8b 4d 00          	mov    0x0(%r13),%rcx
   18002c32a:	48 8b d5             	mov    %rbp,%rdx
   18002c32d:	e8 a2 45 00 00       	call   0x1800308d4
   18002c332:	4c 8b d8             	mov    %rax,%r11
   18002c335:	49 85 c4             	test   %rax,%r12
   18002c338:	75 23                	jne    0x18002c35d
   18002c33a:	48 8b 45 00          	mov    0x0(%rbp),%rax
   18002c33e:	89 38                	mov    %edi,(%rax)
   18002c340:	48 8b 45 00          	mov    0x0(%rbp),%rax
   18002c344:	89 58 04             	mov    %ebx,0x4(%rax)
   18002c347:	48 8b 45 00          	mov    0x0(%rbp),%rax
   18002c34b:	89 70 08             	mov    %esi,0x8(%rax)
   18002c34e:	49 8b c3             	mov    %r11,%rax
   18002c351:	eb 0a                	jmp    0x18002c35d
   18002c353:	48 b8 02 00 00 00 00 	movabs $0x8000000000000002,%rax
   18002c35a:	00 00 80
   18002c35d:	4c 8d 5c 24 50       	lea    0x50(%rsp),%r11
   18002c362:	49 8b 5b 30          	mov    0x30(%r11),%rbx
   18002c366:	49 8b 6b 38          	mov    0x38(%r11),%rbp
   18002c36a:	49 8b e3             	mov    %r11,%rsp
   18002c36d:	41 5e                	pop    %r14
   18002c36f:	41 5d                	pop    %r13
   18002c371:	41 5c                	pop    %r12
   18002c373:	5f                   	pop    %rdi
   18002c374:	5e                   	pop    %rsi
   18002c375:	c3                   	ret
   18002c376:	cc                   	int3
   18002c377:	cc                   	int3
   18002c378:	0f b7 c9             	movzwl %cx,%ecx
   18002c37b:	83 f9 0c             	cmp    $0xc,%ecx
   18002c37e:	7c 13                	jl     0x18002c393
   18002c380:	83 f9 0d             	cmp    $0xd,%ecx
   18002c383:	7e 0b                	jle    0x18002c390
   18002c385:	81 c1 d8 df ff ff    	add    $0xffffdfd8,%ecx
   18002c38b:	83 f9 01             	cmp    $0x1,%ecx
   18002c38e:	77 03                	ja     0x18002c393
   18002c390:	b0 01                	mov    $0x1,%al
   18002c392:	c3                   	ret
   18002c393:	32 c0                	xor    %al,%al
   18002c395:	c3                   	ret
   18002c396:	cc                   	int3
   18002c397:	cc                   	int3
   18002c398:	44 0f b7 c1          	movzwl %cx,%r8d
   18002c39c:	41 83 f8 0c          	cmp    $0xc,%r8d
   18002c3a0:	7c 12                	jl     0x18002c3b4
   18002c3a2:	41 83 f8 0d          	cmp    $0xd,%r8d
   18002c3a6:	7e 3b                	jle    0x18002c3e3
   18002c3a8:	41 8d 90 d8 df ff ff 	lea    -0x2028(%r8),%edx
   18002c3af:	83 fa 01             	cmp    $0x1,%edx
   18002c3b2:	76 2f                	jbe    0x18002c3e3
   18002c3b4:	b8 00 20 00 00       	mov    $0x2000,%eax
   18002c3b9:	66 2b c8             	sub    %ax,%cx
   18002c3bc:	66 83 f9 0a          	cmp    $0xa,%cx
   18002c3c0:	76 21                	jbe    0x18002c3e3
   18002c3c2:	41 83 e8 20          	sub    $0x20,%r8d
   18002c3c6:	74 1b                	je     0x18002c3e3
   18002c3c8:	41 81 e8 60 16 00 00 	sub    $0x1660,%r8d
   18002c3cf:	74 12                	je     0x18002c3e3
   18002c3d1:	41 81 e8 93 09 00 00 	sub    $0x993,%r8d
   18002c3d8:	74 09                	je     0x18002c3e3
   18002c3da:	41 83 f8 4c          	cmp    $0x4c,%r8d
   18002c3de:	74 03                	je     0x18002c3e3
   18002c3e0:	32 c0                	xor    %al,%al
   18002c3e2:	c3                   	ret
   18002c3e3:	b0 01                	mov    $0x1,%al
   18002c3e5:	c3                   	ret
   18002c3e6:	cc                   	int3
   18002c3e7:	cc                   	int3
   18002c3e8:	48 8b c4             	mov    %rsp,%rax
   18002c3eb:	48 89 58 08          	mov    %rbx,0x8(%rax)
   18002c3ef:	48 89 68 10          	mov    %rbp,0x10(%rax)
   18002c3f3:	48 89 70 18          	mov    %rsi,0x18(%rax)
   18002c3f7:	48 89 78 20          	mov    %rdi,0x20(%rax)
   18002c3fb:	41 54                	push   %r12
   18002c3fd:	48 83 ec 20          	sub    $0x20,%rsp
   18002c401:	48 8b f1             	mov    %rcx,%rsi
   18002c404:	e8 bb 0d 00 00       	call   0x18002d1c4
   18002c409:	b9 28 00 00 00       	mov    $0x28,%ecx
   18002c40e:	8b e8                	mov    %eax,%ebp
   18002c410:	d1 ed                	shr    %ebp
   18002c412:	e8 d1 27 fe ff       	call   0x18000ebe8
   18002c417:	48 8b d8             	mov    %rax,%rbx
   18002c41a:	48 85 c0             	test   %rax,%rax
   18002c41d:	75 0f                	jne    0x18002c42e
   18002c41f:	48 b8 09 00 00 00 00 	movabs $0x8000000000000009,%rax
   18002c426:	00 00 80
   18002c429:	e9 a2 00 00 00       	jmp    0x18002c4d0
   18002c42e:	48 83 60 10 00       	andq   $0x0,0x10(%rax)
   18002c433:	f6 05 36 49 02 00 40 	testb  $0x40,0x24936(%rip)        # 0x180050d70
   18002c43a:	74 0c                	je     0x18002c448
   18002c43c:	8d 4d fe             	lea    -0x2(%rbp),%ecx
   18002c43f:	48 89 48 18          	mov    %rcx,0x18(%rax)
   18002c443:	48 8b c8             	mov    %rax,%rcx
   18002c446:	eb 72                	jmp    0x18002c4ba
   18002c448:	44 8d 65 ff          	lea    -0x1(%rbp),%r12d
   18002c44c:	33 ff                	xor    %edi,%edi
   18002c44e:	45 85 e4             	test   %r12d,%r12d
   18002c451:	74 5d                	je     0x18002c4b0
   18002c453:	0f b7 06             	movzwl (%rsi),%eax
   18002c456:	83 f8 0c             	cmp    $0xc,%eax
   18002c459:	7c 4a                	jl     0x18002c4a5
   18002c45b:	83 f8 0d             	cmp    $0xd,%eax
   18002c45e:	7e 0a                	jle    0x18002c46a
   18002c460:	05 d8 df ff ff       	add    $0xffffdfd8,%eax
   18002c465:	83 f8 01             	cmp    $0x1,%eax
   18002c468:	77 3b                	ja     0x18002c4a5
   18002c46a:	8b c7                	mov    %edi,%eax
   18002c46c:	48 8b cb             	mov    %rbx,%rcx
   18002c46f:	48 89 43 18          	mov    %rax,0x18(%rbx)
   18002c473:	e8 58 47 00 00       	call   0x180030bd0
   18002c478:	48 8d 0d f9 48 02 00 	lea    0x248f9(%rip),%rcx        # 0x180050d78
   18002c47f:	48 8b d3             	mov    %rbx,%rdx
   18002c482:	e8 c1 c0 fd ff       	call   0x180008548
   18002c487:	b9 28 00 00 00       	mov    $0x28,%ecx
   18002c48c:	e8 57 27 fe ff       	call   0x18000ebe8
   18002c491:	48 8b d8             	mov    %rax,%rbx
   18002c494:	48 85 c0             	test   %rax,%rax
   18002c497:	74 86                	je     0x18002c41f
   18002c499:	ff c7                	inc    %edi
   18002c49b:	48 83 c6 02          	add    $0x2,%rsi
   18002c49f:	8b c7                	mov    %edi,%eax
   18002c4a1:	48 89 43 10          	mov    %rax,0x10(%rbx)
   18002c4a5:	ff c7                	inc    %edi
   18002c4a7:	48 83 c6 02          	add    $0x2,%rsi
   18002c4ab:	41 3b fc             	cmp    %r12d,%edi
   18002c4ae:	72 a3                	jb     0x18002c453
   18002c4b0:	8d 4d fe             	lea    -0x2(%rbp),%ecx
   18002c4b3:	48 89 4b 18          	mov    %rcx,0x18(%rbx)
   18002c4b7:	48 8b cb             	mov    %rbx,%rcx
   18002c4ba:	e8 11 47 00 00       	call   0x180030bd0
   18002c4bf:	48 8d 0d b2 48 02 00 	lea    0x248b2(%rip),%rcx        # 0x180050d78
   18002c4c6:	48 8b d3             	mov    %rbx,%rdx
   18002c4c9:	e8 7a c0 fd ff       	call   0x180008548
   18002c4ce:	33 c0                	xor    %eax,%eax
   18002c4d0:	48 8b 5c 24 30       	mov    0x30(%rsp),%rbx
   18002c4d5:	48 8b 6c 24 38       	mov    0x38(%rsp),%rbp
   18002c4da:	48 8b 74 24 40       	mov    0x40(%rsp),%rsi
   18002c4df:	48 8b 7c 24 48       	mov    0x48(%rsp),%rdi
   18002c4e4:	48 83 c4 20          	add    $0x20,%rsp
   18002c4e8:	41 5c                	pop    %r12
   18002c4ea:	c3                   	ret
   18002c4eb:	cc                   	int3
   18002c4ec:	48 89 5c 24 08       	mov    %rbx,0x8(%rsp)
   18002c4f1:	48 89 74 24 10       	mov    %rsi,0x10(%rsp)
   18002c4f6:	57                   	push   %rdi
   18002c4f7:	48 83 ec 20          	sub    $0x20,%rsp
   18002c4fb:	48 8b 3d 7e 53 02 00 	mov    0x2537e(%rip),%rdi        # 0x180051880
   18002c502:	48 8b 35 8f 53 02 00 	mov    0x2538f(%rip),%rsi        # 0x180051898
   18002c509:	48 8b 1d 70 48 02 00 	mov    0x24870(%rip),%rbx        # 0x180050d80
   18002c510:	48 2b 3d 41 48 02 00 	sub    0x24841(%rip),%rdi        # 0x180050d58
   18002c517:	48 2b 35 4a 48 02 00 	sub    0x2484a(%rip),%rsi        # 0x180050d68
   18002c51e:	48 85 db             	test   %rbx,%rbx
   18002c521:	74 63                	je     0x18002c586
   18002c523:	48 3b 7b 20          	cmp    0x20(%rbx),%rdi
   18002c527:	72 06                	jb     0x18002c52f
   18002c529:	48 2b 7b 20          	sub    0x20(%rbx),%rdi
   18002c52d:	eb 14                	jmp    0x18002c543
   18002c52f:	f6 05 3a 48 02 00 04 	testb  $0x4,0x2483a(%rip)        # 0x180050d70
   18002c536:	75 49                	jne    0x18002c581
   18002c538:	48 85 ff             	test   %rdi,%rdi
   18002c53b:	74 44                	je     0x18002c581
   18002c53d:	48 89 7b 20          	mov    %rdi,0x20(%rbx)
   18002c541:	33 ff                	xor    %edi,%edi
   18002c543:	48 39 73 28          	cmp    %rsi,0x28(%rbx)
   18002c547:	76 33                	jbe    0x18002c57c
   18002c549:	8b 05 21 48 02 00    	mov    0x24821(%rip),%eax        # 0x180050d70
   18002c54f:	48 8b d6             	mov    %rsi,%rdx
   18002c552:	48 8b cb             	mov    %rbx,%rcx
   18002c555:	a8 02                	test   $0x2,%al
   18002c557:	74 16                	je     0x18002c56f
   18002c559:	e8 42 48 00 00       	call   0x180030da0
   18002c55e:	48 b9 00 00 00 00 00 	movabs $0x8000000000000000,%rcx
   18002c565:	00 00 80
   18002c568:	48 85 c1             	test   %rax,%rcx
   18002c56b:	75 1b                	jne    0x18002c588
   18002c56d:	eb 0d                	jmp    0x18002c57c
   18002c56f:	c1 e8 03             	shr    $0x3,%eax
   18002c572:	24 01                	and    $0x1,%al
   18002c574:	44 8a c0             	mov    %al,%r8b
   18002c577:	e8 40 47 00 00       	call   0x180030cbc
   18002c57c:	48 8b 1b             	mov    (%rbx),%rbx
   18002c57f:	eb 9d                	jmp    0x18002c51e
   18002c581:	48 83 63 20 00       	andq   $0x0,0x20(%rbx)
   18002c586:	33 c0                	xor    %eax,%eax
   18002c588:	48 8b 5c 24 30       	mov    0x30(%rsp),%rbx
   18002c58d:	48 8b 74 24 38       	mov    0x38(%rsp),%rsi
   18002c592:	48 83 c4 20          	add    $0x20,%rsp
   18002c596:	5f                   	pop    %rdi
   18002c597:	c3                   	ret
   18002c598:	4c 8b dc             	mov    %rsp,%r11
   18002c59b:	49 89 5b 18          	mov    %rbx,0x18(%r11)
   18002c59f:	49 89 6b 20          	mov    %rbp,0x20(%r11)
   18002c5a3:	56                   	push   %rsi
   18002c5a4:	57                   	push   %rdi
   18002c5a5:	41 54                	push   %r12
   18002c5a7:	41 55                	push   %r13
   18002c5a9:	41 56                	push   %r14
   18002c5ab:	48 81 ec b0 00 00 00 	sub    $0xb0,%rsp
   18002c5b2:	48 8b 1d c7 47 02 00 	mov    0x247c7(%rip),%rbx        # 0x180050d80
   18002c5b9:	48 8b 0d 98 47 02 00 	mov    0x24798(%rip),%rcx        # 0x180050d58
   18002c5c0:	45 33 ed             	xor    %r13d,%r13d
   18002c5c3:	f6 05 a6 47 02 00 10 	testb  $0x10,0x247a6(%rip)        # 0x180050d70
   18002c5ca:	49 8d 43 a8          	lea    -0x58(%r11),%rax
   18002c5ce:	45 8d 75 01          	lea    0x1(%r13),%r14d
   18002c5d2:	49 89 43 c8          	mov    %rax,-0x38(%r11)
   18002c5d6:	49 8d 43 98          	lea    -0x68(%r11),%rax
   18002c5da:	41 0f b6 ed          	movzbl %r13b,%ebp
   18002c5de:	49 89 43 d0          	mov    %rax,-0x30(%r11)
   18002c5e2:	49 8d 43 88          	lea    -0x78(%r11),%rax
   18002c5e6:	41 0f 45 ee          	cmovne %r14d,%ebp
   18002c5ea:	49 89 43 b8          	mov    %rax,-0x48(%r11)
   18002c5ee:	48 8d 44 24 50       	lea    0x50(%rsp),%rax
   18002c5f3:	49 89 4b 90          	mov    %rcx,-0x70(%r11)
   18002c5f7:	49 89 43 c0          	mov    %rax,-0x40(%r11)
   18002c5fb:	49 3b dd             	cmp    %r13,%rbx
   18002c5fe:	0f 84 d0 01 00 00    	je     0x18002c7d4
   18002c604:	48 8b 35 5d 47 02 00 	mov    0x2475d(%rip),%rsi        # 0x180050d68
   18002c60b:	4c 39 6b 20          	cmp    %r13,0x20(%rbx)
   18002c60f:	0f 84 bf 01 00 00    	je     0x18002c7d4
   18002c615:	48 89 74 24 60       	mov    %rsi,0x60(%rsp)
   18002c61a:	48 8b 43 28          	mov    0x28(%rbx),%rax
   18002c61e:	48 89 44 24 50       	mov    %rax,0x50(%rsp)
   18002c623:	48 8b 53 20          	mov    0x20(%rbx),%rdx
   18002c627:	48 89 54 24 58       	mov    %rdx,0x58(%rsp)
   18002c62c:	48 8b 43 30          	mov    0x30(%rbx),%rax
   18002c630:	48 8b 7b 10          	mov    0x10(%rbx),%rdi
   18002c634:	4c 8d 24 01          	lea    (%rcx,%rax,1),%r12
   18002c638:	48 3b 7b 18          	cmp    0x18(%rbx),%rdi
   18002c63c:	0f 87 7e 01 00 00    	ja     0x18002c7c0
   18002c642:	f6 05 27 47 02 00 40 	testb  $0x40,0x24727(%rip)        # 0x180050d70
   18002c649:	48 8b 05 40 52 02 00 	mov    0x25240(%rip),%rax        # 0x180051890
   18002c650:	0f b7 14 78          	movzwl (%rax,%rdi,2),%edx
   18002c654:	74 1f                	je     0x18002c675
   18002c656:	0f b7 c2             	movzwl %dx,%eax
   18002c659:	83 f8 0c             	cmp    $0xc,%eax
   18002c65c:	7c 17                	jl     0x18002c675
   18002c65e:	83 f8 0d             	cmp    $0xd,%eax
   18002c661:	0f 8e 3b 01 00 00    	jle    0x18002c7a2
   18002c667:	05 d8 df ff ff       	add    $0xffffdfd8,%eax
   18002c66c:	41 3b c6             	cmp    %r14d,%eax
   18002c66f:	0f 86 2d 01 00 00    	jbe    0x18002c7a2
   18002c675:	48 8b 0d 24 52 02 00 	mov    0x25224(%rip),%rcx        # 0x1800518a0
   18002c67c:	48 8d 84 24 e0 00 00 	lea    0xe0(%rsp),%rax
   18002c683:	00
   18002c684:	4c 8d 8c 24 e8 00 00 	lea    0xe8(%rsp),%r9
   18002c68b:	00
   18002c68c:	4c 8d 44 24 40       	lea    0x40(%rsp),%r8
   18002c691:	48 89 44 24 20       	mov    %rax,0x20(%rsp)
   18002c696:	e8 15 43 00 00       	call   0x1800309b0
   18002c69b:	48 b9 00 00 00 00 00 	movabs $0x8000000000000000,%rcx
   18002c6a2:	00 00 80
   18002c6a5:	48 85 c1             	test   %rax,%rcx
   18002c6a8:	0f 85 26 01 00 00    	jne    0x18002c7d4
   18002c6ae:	49 3b c6             	cmp    %r14,%rax
   18002c6b1:	75 0d                	jne    0x18002c6c0
   18002c6b3:	f6 05 b6 46 02 00 20 	testb  $0x20,0x246b6(%rip)        # 0x180050d70
   18002c6ba:	0f 85 c6 00 00 00    	jne    0x18002c786
   18002c6c0:	0f bf 4c 24 46       	movswl 0x46(%rsp),%ecx
   18002c6c5:	48 0f bf 44 24 44    	movswq 0x44(%rsp),%rax
   18002c6cb:	48 8d 94 24 90 00 00 	lea    0x90(%rsp),%rdx
   18002c6d2:	00
   18002c6d3:	48 03 c6             	add    %rsi,%rax
   18002c6d6:	48 89 84 24 80 00 00 	mov    %rax,0x80(%rsp)
   18002c6dd:	00
   18002c6de:	0f b7 44 24 42       	movzwl 0x42(%rsp),%eax
   18002c6e3:	03 c1                	add    %ecx,%eax
   18002c6e5:	49 8b cc             	mov    %r12,%rcx
   18002c6e8:	48 98                	cltq
   18002c6ea:	48 2b c8             	sub    %rax,%rcx
   18002c6ed:	0f b7 44 24 40       	movzwl 0x40(%rsp),%eax
   18002c6f2:	48 89 44 24 70       	mov    %rax,0x70(%rsp)
   18002c6f7:	0f b7 44 24 42       	movzwl 0x42(%rsp),%eax
   18002c6fc:	48 89 8c 24 88 00 00 	mov    %rcx,0x88(%rsp)
   18002c703:	00
   18002c704:	48 8d 8c 24 a0 00 00 	lea    0xa0(%rsp),%rcx
   18002c70b:	00
   18002c70c:	48 89 44 24 78       	mov    %rax,0x78(%rsp)
   18002c711:	e8 c2 48 00 00       	call   0x180030fd8
   18002c716:	41 3a c5             	cmp    %r13b,%al
   18002c719:	74 47                	je     0x18002c762
   18002c71b:	0f b7 44 24 40       	movzwl 0x40(%rsp),%eax
   18002c720:	4c 8b 4c 24 78       	mov    0x78(%rsp),%r9
   18002c725:	4c 8b 44 24 70       	mov    0x70(%rsp),%r8
   18002c72a:	48 8b 94 24 88 00 00 	mov    0x88(%rsp),%rdx
   18002c731:	00
   18002c732:	48 8b 8c 24 80 00 00 	mov    0x80(%rsp),%rcx
   18002c739:	00
   18002c73a:	66 89 44 24 38       	mov    %ax,0x38(%rsp)
   18002c73f:	48 8b 05 1a 46 02 00 	mov    0x2461a(%rip),%rax        # 0x180050d60
   18002c746:	48 89 44 24 30       	mov    %rax,0x30(%rsp)
   18002c74b:	48 8b 84 24 e8 00 00 	mov    0xe8(%rsp),%rax
   18002c752:	00
   18002c753:	40 88 6c 24 28       	mov    %bpl,0x28(%rsp)
   18002c758:	48 89 44 24 20       	mov    %rax,0x20(%rsp)
   18002c75d:	e8 a6 47 00 00       	call   0x180030f08
   18002c762:	48 0f bf 4c 24 48    	movswq 0x48(%rsp),%rcx
   18002c768:	48 8b 44 24 50       	mov    0x50(%rsp),%rax
   18002c76d:	48 01 4c 24 60       	add    %rcx,0x60(%rsp)
   18002c772:	48 2b c1             	sub    %rcx,%rax
   18002c775:	48 39 4c 24 50       	cmp    %rcx,0x50(%rsp)
   18002c77a:	49 0f 4e c5          	cmovle %r13,%rax
   18002c77e:	48 03 f1             	add    %rcx,%rsi
   18002c781:	48 89 44 24 50       	mov    %rax,0x50(%rsp)
   18002c786:	44 38 ac 24 e0 00 00 	cmp    %r13b,0xe0(%rsp)
   18002c78d:	00
   18002c78e:	74 12                	je     0x18002c7a2
   18002c790:	48 8b 05 29 42 02 00 	mov    0x24229(%rip),%rax        # 0x1800509c0
   18002c797:	48 8b 8c 24 e8 00 00 	mov    0xe8(%rsp),%rcx
   18002c79e:	00
   18002c79f:	ff 50 48             	call   *0x48(%rax)
   18002c7a2:	49 03 fe             	add    %r14,%rdi
   18002c7a5:	48 3b 7b 18          	cmp    0x18(%rbx),%rdi
   18002c7a9:	0f 86 93 fe ff ff    	jbe    0x18002c642
   18002c7af:	48 8b 4c 24 68       	mov    0x68(%rsp),%rcx
   18002c7b4:	48 8b 54 24 58       	mov    0x58(%rsp),%rdx
   18002c7b9:	48 8b 35 a8 45 02 00 	mov    0x245a8(%rip),%rsi        # 0x180050d68
   18002c7c0:	48 03 ca             	add    %rdx,%rcx
   18002c7c3:	48 89 4c 24 68       	mov    %rcx,0x68(%rsp)
   18002c7c8:	48 8b 1b             	mov    (%rbx),%rbx
   18002c7cb:	49 3b dd             	cmp    %r13,%rbx
   18002c7ce:	0f 85 37 fe ff ff    	jne    0x18002c60b
   18002c7d4:	4c 8d 9c 24 b0 00 00 	lea    0xb0(%rsp),%r11
   18002c7db:	00
   18002c7dc:	49 8b 5b 40          	mov    0x40(%r11),%rbx
   18002c7e0:	49 8b 6b 48          	mov    0x48(%r11),%rbp
   18002c7e4:	49 8b e3             	mov    %r11,%rsp
   18002c7e7:	41 5e                	pop    %r14
   18002c7e9:	41 5d                	pop    %r13
   18002c7eb:	41 5c                	pop    %r12
   18002c7ed:	5f                   	pop    %rdi
   18002c7ee:	5e                   	pop    %rsi
   18002c7ef:	c3                   	ret
   18002c7f0:	4c 8b dc             	mov    %rsp,%r11
   18002c7f3:	49 89 5b 08          	mov    %rbx,0x8(%r11)
   18002c7f7:	49 89 6b 10          	mov    %rbp,0x10(%r11)
   18002c7fb:	49 89 73 18          	mov    %rsi,0x18(%r11)
   18002c7ff:	57                   	push   %rdi
   18002c800:	41 54                	push   %r12
   18002c802:	41 55                	push   %r13
   18002c804:	41 56                	push   %r14
   18002c806:	41 57                	push   %r15
   18002c808:	48 81 ec 80 00 00 00 	sub    $0x80,%rsp
   18002c80f:	4c 8b e1             	mov    %rcx,%r12
   18002c812:	48 8b 8c 24 d0 00 00 	mov    0xd0(%rsp),%rcx
   18002c819:	00
   18002c81a:	33 db                	xor    %ebx,%ebx
   18002c81c:	48 8b 01             	mov    (%rcx),%rax
   18002c81f:	8b fa                	mov    %edx,%edi
   18002c821:	48 8b d1             	mov    %rcx,%rdx
   18002c824:	49 8b c8             	mov    %r8,%rcx
   18002c827:	49 8b f1             	mov    %r9,%rsi
   18002c82a:	49 8b e8             	mov    %r8,%rbp
   18002c82d:	49 89 43 a8          	mov    %rax,-0x58(%r11)
   18002c831:	49 89 5b b8          	mov    %rbx,-0x48(%r11)
   18002c835:	4c 8b fb             	mov    %rbx,%r15
   18002c838:	49 89 5b c0          	mov    %rbx,-0x40(%r11)
   18002c83c:	e8 07 f8 ff ff       	call   0x18002c048
   18002c841:	48 b9 00 00 00 00 00 	movabs $0x8000000000000000,%rcx
   18002c848:	00 00 80
   18002c84b:	48 85 c1             	test   %rax,%rcx
   18002c84e:	0f 85 b3 04 00 00    	jne    0x18002cd07
   18002c854:	48 39 5c 24 50       	cmp    %rbx,0x50(%rsp)
   18002c859:	75 1b                	jne    0x18002c876
   18002c85b:	40 f6 c7 10          	test   $0x10,%dil
   18002c85f:	74 0f                	je     0x18002c870
   18002c861:	48 b8 02 00 00 00 00 	movabs $0x8000000000000002,%rax
   18002c868:	00 00 80
   18002c86b:	e9 97 04 00 00       	jmp    0x18002cd07
   18002c870:	40 f6 c7 01          	test   $0x1,%dil
   18002c874:	75 eb                	jne    0x18002c861
   18002c876:	8b c7                	mov    %edi,%eax
   18002c878:	24 09                	and    $0x9,%al
   18002c87a:	3c 08                	cmp    $0x8,%al
   18002c87c:	74 e3                	je     0x18002c861
   18002c87e:	8b c7                	mov    %edi,%eax
   18002c880:	24 05                	and    $0x5,%al
   18002c882:	3c 04                	cmp    $0x4,%al
   18002c884:	74 db                	je     0x18002c861
   18002c886:	8b c7                	mov    %edi,%eax
   18002c888:	83 e0 0a             	and    $0xa,%eax
   18002c88b:	3c 0a                	cmp    $0xa,%al
   18002c88d:	74 d2                	je     0x18002c861
   18002c88f:	48 8b cd             	mov    %rbp,%rcx
   18002c892:	e8 2d 09 00 00       	call   0x18002d1c4
   18002c897:	83 f8 02             	cmp    $0x2,%eax
   18002c89a:	77 07                	ja     0x18002c8a3
   18002c89c:	33 c0                	xor    %eax,%eax
   18002c89e:	e9 64 04 00 00       	jmp    0x18002cd07
   18002c8a3:	48 8b 05 16 41 02 00 	mov    0x24116(%rip),%rax        # 0x1800509c0
   18002c8aa:	b9 10 00 00 00       	mov    $0x10,%ecx
   18002c8af:	ff 50 18             	call   *0x18(%rax)
   18002c8b2:	89 3d b8 44 02 00    	mov    %edi,0x244b8(%rip)        # 0x180050d70
   18002c8b8:	4c 8b f0             	mov    %rax,%r14
   18002c8bb:	40 f6 c7 40          	test   $0x40,%dil
   18002c8bf:	75 0b                	jne    0x18002c8cc
   18002c8c1:	40 84 ff             	test   %dil,%dil
   18002c8c4:	79 11                	jns    0x18002c8d7
   18002c8c6:	40 f6 c7 02          	test   $0x2,%dil
   18002c8ca:	75 0b                	jne    0x18002c8d7
   18002c8cc:	8b c7                	mov    %edi,%eax
   18002c8ce:	83 c8 01             	or     $0x1,%eax
   18002c8d1:	89 05 99 44 02 00    	mov    %eax,0x24499(%rip)        # 0x180050d70
   18002c8d7:	4c 8b ac 24 e0 00 00 	mov    0xe0(%rsp),%r13
   18002c8de:	00
   18002c8df:	48 89 2d aa 4f 02 00 	mov    %rbp,0x24faa(%rip)        # 0x180051890
   18002c8e6:	48 8b ac 24 d8 00 00 	mov    0xd8(%rsp),%rbp
   18002c8ed:	00
   18002c8ee:	4c 8d 4c 24 68       	lea    0x68(%rsp),%r9
   18002c8f3:	48 8d 15 a6 4f 02 00 	lea    0x24fa6(%rip),%rdx        # 0x1800518a0
   18002c8fa:	4c 8b c6             	mov    %rsi,%r8
   18002c8fd:	49 8b cc             	mov    %r12,%rcx
   18002c900:	48 89 2d 61 44 02 00 	mov    %rbp,0x24461(%rip)        # 0x180050d68
   18002c907:	4c 89 2d 4a 44 02 00 	mov    %r13,0x2444a(%rip)        # 0x180050d58
   18002c90e:	48 89 1d 8b 4f 02 00 	mov    %rbx,0x24f8b(%rip)        # 0x1800518a0
   18002c915:	48 89 5c 24 20       	mov    %rbx,0x20(%rsp)
   18002c91a:	e8 2d f8 ff ff       	call   0x18002c14c
   18002c91f:	49 bc 00 00 00 00 00 	movabs $0x8000000000000000,%r12
   18002c926:	00 00 80
   18002c929:	49 85 c4             	test   %rax,%r12
   18002c92c:	74 16                	je     0x18002c944
   18002c92e:	b8 00 f0 ad de       	mov    $0xdeadf000,%eax
   18002c933:	48 8b cb             	mov    %rbx,%rcx
   18002c936:	48 89 5c 24 68       	mov    %rbx,0x68(%rsp)
   18002c93b:	48 89 05 5e 4f 02 00 	mov    %rax,0x24f5e(%rip)        # 0x1800518a0
   18002c942:	eb 05                	jmp    0x18002c949
   18002c944:	48 8b 4c 24 68       	mov    0x68(%rsp),%rcx
   18002c949:	48 3b cb             	cmp    %rbx,%rcx
   18002c94c:	74 1d                	je     0x18002c96b
   18002c94e:	8b 01                	mov    (%rcx),%eax
   18002c950:	89 05 36 4f 02 00    	mov    %eax,0x24f36(%rip)        # 0x18005188c
   18002c956:	8b 41 04             	mov    0x4(%rcx),%eax
   18002c959:	89 05 29 4f 02 00    	mov    %eax,0x24f29(%rip)        # 0x180051888
   18002c95f:	48 8b 05 5a 40 02 00 	mov    0x2405a(%rip),%rax        # 0x1800509c0
   18002c966:	ff 50 48             	call   *0x48(%rax)
   18002c969:	eb 2a                	jmp    0x18002c995
   18002c96b:	48 3b f3             	cmp    %rbx,%rsi
   18002c96e:	74 0d                	je     0x18002c97d
   18002c970:	8b 06                	mov    (%rsi),%eax
   18002c972:	89 05 14 4f 02 00    	mov    %eax,0x24f14(%rip)        # 0x18005188c
   18002c978:	8b 46 04             	mov    0x4(%rsi),%eax
   18002c97b:	eb 12                	jmp    0x18002c98f
   18002c97d:	8b 05 b9 a7 01 00    	mov    0x1a7b9(%rip),%eax        # 0x18004713c
   18002c983:	89 05 03 4f 02 00    	mov    %eax,0x24f03(%rip)        # 0x18005188c
   18002c989:	8b 05 a9 a7 01 00    	mov    0x1a7a9(%rip),%eax        # 0x180047138
   18002c98f:	89 05 f3 4e 02 00    	mov    %eax,0x24ef3(%rip)        # 0x180051888
   18002c995:	48 8b 0d f4 4e 02 00 	mov    0x24ef4(%rip),%rcx        # 0x180051890
   18002c99c:	e8 47 fa ff ff       	call   0x18002c3e8
   18002c9a1:	49 85 c4             	test   %rax,%r12
   18002c9a4:	74 1c                	je     0x18002c9c2
   18002c9a6:	48 8b 05 13 40 02 00 	mov    0x24013(%rip),%rax        # 0x1800509c0
   18002c9ad:	49 8b ce             	mov    %r14,%rcx
   18002c9b0:	ff 50 20             	call   *0x20(%rax)
   18002c9b3:	48 b8 09 00 00 00 00 	movabs $0x8000000000000009,%rax
   18002c9ba:	00 00 80
   18002c9bd:	e9 45 03 00 00       	jmp    0x18002cd07
   18002c9c2:	48 8b 4c 24 50       	mov    0x50(%rsp),%rcx
   18002c9c7:	48 3b cb             	cmp    %rbx,%rcx
   18002c9ca:	74 65                	je     0x18002ca31
   18002c9cc:	0f b7 01             	movzwl (%rcx),%eax
   18002c9cf:	40 84 ff             	test   %dil,%dil
   18002c9d2:	78 1d                	js     0x18002c9f1
   18002c9d4:	48 89 05 bd 4e 02 00 	mov    %rax,0x24ebd(%rip)        # 0x180051898
   18002c9db:	0f b7 41 02          	movzwl 0x2(%rcx),%eax
   18002c9df:	48 89 05 9a 4e 02 00 	mov    %rax,0x24e9a(%rip)        # 0x180051880
   18002c9e6:	48 8b 41 08          	mov    0x8(%rcx),%rax
   18002c9ea:	48 89 44 24 60       	mov    %rax,0x60(%rsp)
   18002c9ef:	eb 26                	jmp    0x18002ca17
   18002c9f1:	48 2b c5             	sub    %rbp,%rax
   18002c9f4:	48 89 1d 6d 43 02 00 	mov    %rbx,0x2436d(%rip)        # 0x180050d68
   18002c9fb:	48 89 1d 56 43 02 00 	mov    %rbx,0x24356(%rip)        # 0x180050d58
   18002ca02:	48 89 05 8f 4e 02 00 	mov    %rax,0x24e8f(%rip)        # 0x180051898
   18002ca09:	0f b7 41 02          	movzwl 0x2(%rcx),%eax
   18002ca0d:	49 2b c5             	sub    %r13,%rax
   18002ca10:	48 89 05 69 4e 02 00 	mov    %rax,0x24e69(%rip)        # 0x180051880
   18002ca17:	e8 d0 fa ff ff       	call   0x18002c4ec
   18002ca1c:	49 85 c4             	test   %rax,%r12
   18002ca1f:	75 85                	jne    0x18002c9a6
   18002ca21:	48 8b 05 70 4e 02 00 	mov    0x24e70(%rip),%rax        # 0x180051898
   18002ca28:	48 8b 15 51 4e 02 00 	mov    0x24e51(%rip),%rdx        # 0x180051880
   18002ca2f:	eb 35                	jmp    0x18002ca66
   18002ca31:	48 8d 15 48 4e 02 00 	lea    0x24e48(%rip),%rdx        # 0x180051880
   18002ca38:	48 8d 0d 59 4e 02 00 	lea    0x24e59(%rip),%rcx        # 0x180051898
   18002ca3f:	e8 98 44 00 00       	call   0x180030edc
   18002ca44:	48 8b 05 4d 4e 02 00 	mov    0x24e4d(%rip),%rax        # 0x180051898
   18002ca4b:	48 8b 15 2e 4e 02 00 	mov    0x24e2e(%rip),%rdx        # 0x180051880
   18002ca52:	48 03 c5             	add    %rbp,%rax
   18002ca55:	49 03 d5             	add    %r13,%rdx
   18002ca58:	48 89 15 21 4e 02 00 	mov    %rdx,0x24e21(%rip)        # 0x180051880
   18002ca5f:	48 89 05 32 4e 02 00 	mov    %rax,0x24e32(%rip)        # 0x180051898
   18002ca66:	48 8b 4c 24 60       	mov    0x60(%rsp),%rcx
   18002ca6b:	48 3b cb             	cmp    %rbx,%rcx
   18002ca6e:	75 4a                	jne    0x18002caba
   18002ca70:	48 0f af d0          	imul   %rax,%rdx
   18002ca74:	48 8b 05 45 3f 02 00 	mov    0x23f45(%rip),%rax        # 0x1800509c0
   18002ca7b:	4c 8d 44 24 60       	lea    0x60(%rsp),%r8
   18002ca80:	48 c1 e2 02          	shl    $0x2,%rdx
   18002ca84:	b9 04 00 00 00       	mov    $0x4,%ecx
   18002ca89:	ff 50 40             	call   *0x40(%rax)
   18002ca8c:	49 85 c4             	test   %rax,%r12
   18002ca8f:	0f 85 11 ff ff ff    	jne    0x18002c9a6
   18002ca95:	48 8b 15 e4 4d 02 00 	mov    0x24de4(%rip),%rdx        # 0x180051880
   18002ca9c:	48 8b 4c 24 60       	mov    0x60(%rsp),%rcx
   18002caa1:	45 33 c0             	xor    %r8d,%r8d
   18002caa4:	48 0f af 15 ec 4d 02 	imul   0x24dec(%rip),%rdx        # 0x180051898
   18002caab:	00
   18002caac:	48 c1 e2 02          	shl    $0x2,%rdx
   18002cab0:	e8 1b d2 fd ff       	call   0x180009cd0
   18002cab5:	48 8b 4c 24 60       	mov    0x60(%rsp),%rcx
   18002caba:	48 89 0d 9f 42 02 00 	mov    %rcx,0x2429f(%rip)        # 0x180050d60
   18002cac1:	e8 d2 fa ff ff       	call   0x18002c598
   18002cac6:	40 84 ff             	test   %dil,%dil
   18002cac9:	79 6b                	jns    0x18002cb36
   18002cacb:	4c 8b 54 24 50       	mov    0x50(%rsp),%r10
   18002cad0:	48 8b 0d c1 4d 02 00 	mov    0x24dc1(%rip),%rcx        # 0x180051898
   18002cad7:	41 0f b7 02          	movzwl (%r10),%eax
   18002cadb:	48 3b c8             	cmp    %rax,%rcx
   18002cade:	73 07                	jae    0x18002cae7
   18002cae0:	4c 8b f9             	mov    %rcx,%r15
   18002cae3:	49 c1 e7 02          	shl    $0x2,%r15
   18002cae7:	48 8b 05 92 4d 02 00 	mov    0x24d92(%rip),%rax        # 0x180051880
   18002caee:	4d 8b 52 08          	mov    0x8(%r10),%r10
   18002caf2:	48 8b 15 67 42 02 00 	mov    0x24267(%rip),%rdx        # 0x180050d60
   18002caf9:	4c 89 7c 24 48       	mov    %r15,0x48(%rsp)
   18002cafe:	48 89 44 24 40       	mov    %rax,0x40(%rsp)
   18002cb03:	48 89 4c 24 38       	mov    %rcx,0x38(%rsp)
   18002cb08:	45 33 c9             	xor    %r9d,%r9d
   18002cb0b:	4c 89 6c 24 30       	mov    %r13,0x30(%rsp)
   18002cb10:	49 8b ca             	mov    %r10,%rcx
   18002cb13:	45 8d 41 02          	lea    0x2(%r9),%r8d
   18002cb17:	48 89 6c 24 28       	mov    %rbp,0x28(%rsp)
   18002cb1c:	48 89 5c 24 20       	mov    %rbx,0x20(%rsp)
   18002cb21:	41 ff 52 10          	call   *0x10(%r10)
   18002cb25:	48 8b 05 94 3e 02 00 	mov    0x23e94(%rip),%rax        # 0x1800509c0
   18002cb2c:	48 8b 0d 2d 42 02 00 	mov    0x2422d(%rip),%rcx        # 0x180050d60
   18002cb33:	ff 50 48             	call   *0x48(%rax)
   18002cb36:	48 8b b4 24 e8 00 00 	mov    0xe8(%rsp),%rsi
   18002cb3d:	00
   18002cb3e:	48 8b 3d 3b 42 02 00 	mov    0x2423b(%rip),%rdi        # 0x180050d80
   18002cb45:	48 3b f3             	cmp    %rbx,%rsi
   18002cb48:	0f 84 aa 00 00 00    	je     0x18002cbf8
   18002cb4e:	48 39 5f 20          	cmp    %rbx,0x20(%rdi)
   18002cb52:	0f 84 9d 00 00 00    	je     0x18002cbf5
   18002cb58:	48 8b 05 19 42 02 00 	mov    0x24219(%rip),%rax        # 0x180050d78
   18002cb5f:	4c 8d 44 24 58       	lea    0x58(%rsp),%r8
   18002cb64:	b9 04 00 00 00       	mov    $0x4,%ecx
   18002cb69:	48 8d 14 80          	lea    (%rax,%rax,4),%rdx
   18002cb6d:	48 8b 05 4c 3e 02 00 	mov    0x23e4c(%rip),%rax        # 0x1800509c0
   18002cb74:	48 c1 e2 03          	shl    $0x3,%rdx
   18002cb78:	ff 50 40             	call   *0x40(%rax)
   18002cb7b:	49 85 c4             	test   %rax,%r12
   18002cb7e:	0f 85 22 fe ff ff    	jne    0x18002c9a6
   18002cb84:	48 8b d3             	mov    %rbx,%rdx
   18002cb87:	48 8b 44 24 58       	mov    0x58(%rsp),%rax
   18002cb8c:	48 89 5c 02 20       	mov    %rbx,0x20(%rdx,%rax,1)
   18002cb91:	48 8b 4f 18          	mov    0x18(%rdi),%rcx
   18002cb95:	48 8b 44 24 58       	mov    0x58(%rsp),%rax
   18002cb9a:	48 89 4c 02 08       	mov    %rcx,0x8(%rdx,%rax,1)
   18002cb9f:	48 8b 4f 20          	mov    0x20(%rdi),%rcx
   18002cba3:	48 8b 44 24 58       	mov    0x58(%rsp),%rax
   18002cba8:	48 89 4c 02 10       	mov    %rcx,0x10(%rdx,%rax,1)
   18002cbad:	48 8b 4f 28          	mov    0x28(%rdi),%rcx
   18002cbb1:	48 8b 44 24 58       	mov    0x58(%rsp),%rax
   18002cbb6:	48 89 4c 02 18       	mov    %rcx,0x18(%rdx,%rax,1)
   18002cbbb:	48 8b 4f 10          	mov    0x10(%rdi),%rcx
   18002cbbf:	48 8b 44 24 58       	mov    0x58(%rsp),%rax
   18002cbc4:	48 89 0c 02          	mov    %rcx,(%rdx,%rax,1)
   18002cbc8:	48 8b 3f             	mov    (%rdi),%rdi
   18002cbcb:	48 83 c2 28          	add    $0x28,%rdx
   18002cbcf:	48 3b fb             	cmp    %rbx,%rdi
   18002cbd2:	75 b3                	jne    0x18002cb87
   18002cbd4:	48 8b 8c 24 f0 00 00 	mov    0xf0(%rsp),%rcx
   18002cbdb:	00
   18002cbdc:	48 8b 44 24 58       	mov    0x58(%rsp),%rax
   18002cbe1:	48 89 06             	mov    %rax,(%rsi)
   18002cbe4:	48 3b cb             	cmp    %rbx,%rcx
   18002cbe7:	74 1f                	je     0x18002cc08
   18002cbe9:	48 8b 05 88 41 02 00 	mov    0x24188(%rip),%rax        # 0x180050d78
   18002cbf0:	48 89 01             	mov    %rax,(%rcx)
   18002cbf3:	eb 13                	jmp    0x18002cc08
   18002cbf5:	48 89 1e             	mov    %rbx,(%rsi)
   18002cbf8:	48 8b 84 24 f0 00 00 	mov    0xf0(%rsp),%rax
   18002cbff:	00
   18002cc00:	48 3b c3             	cmp    %rbx,%rax
   18002cc03:	74 03                	je     0x18002cc08
   18002cc05:	48 89 18             	mov    %rbx,(%rax)
   18002cc08:	48 39 5c 24 50       	cmp    %rbx,0x50(%rsp)
   18002cc0d:	75 68                	jne    0x18002cc77
   18002cc0f:	48 8b 05 aa 3d 02 00 	mov    0x23daa(%rip),%rax        # 0x1800509c0
   18002cc16:	ba 10 00 00 00       	mov    $0x10,%edx
   18002cc1b:	4c 8d 44 24 50       	lea    0x50(%rsp),%r8
   18002cc20:	8d 4a f4             	lea    -0xc(%rdx),%ecx
   18002cc23:	ff 50 40             	call   *0x40(%rax)
   18002cc26:	49 85 c4             	test   %rax,%r12
   18002cc29:	74 0f                	je     0x18002cc3a
   18002cc2b:	48 bb 09 00 00 00 00 	movabs $0x8000000000000009,%rbx
   18002cc32:	00 00 80
   18002cc35:	e9 bd 00 00 00       	jmp    0x18002ccf7
   18002cc3a:	0f b7 05 3f 4c 02 00 	movzwl 0x24c3f(%rip),%eax        # 0x180051880
   18002cc41:	48 8b 4c 24 50       	mov    0x50(%rsp),%rcx
   18002cc46:	66 89 41 02          	mov    %ax,0x2(%rcx)
   18002cc4a:	0f b7 05 47 4c 02 00 	movzwl 0x24c47(%rip),%eax        # 0x180051898
   18002cc51:	48 8b 4c 24 50       	mov    0x50(%rsp),%rcx
   18002cc56:	66 89 01             	mov    %ax,(%rcx)
   18002cc59:	48 8b 44 24 50       	mov    0x50(%rsp),%rax
   18002cc5e:	48 8b 4c 24 60       	mov    0x60(%rsp),%rcx
   18002cc63:	48 89 48 08          	mov    %rcx,0x8(%rax)
   18002cc67:	48 8b 8c 24 d0 00 00 	mov    0xd0(%rsp),%rcx
   18002cc6e:	00
   18002cc6f:	48 8b 44 24 50       	mov    0x50(%rsp),%rax
   18002cc74:	48 89 01             	mov    %rax,(%rcx)
   18002cc77:	48 8b ac 24 f8 00 00 	mov    0xf8(%rsp),%rbp
   18002cc7e:	00
   18002cc7f:	48 3b eb             	cmp    %rbx,%rbp
   18002cc82:	74 67                	je     0x18002cceb
   18002cc84:	48 8b 3d f5 40 02 00 	mov    0x240f5(%rip),%rdi        # 0x180050d80
   18002cc8b:	4c 8b eb             	mov    %rbx,%r13
   18002cc8e:	eb 56                	jmp    0x18002cce6
   18002cc90:	4c 8b 25 d1 40 02 00 	mov    0x240d1(%rip),%r12        # 0x180050d68
   18002cc97:	48 8b 77 10          	mov    0x10(%rdi),%rsi
   18002cc9b:	eb 40                	jmp    0x18002ccdd
   18002cc9d:	4e 89 64 ed 00       	mov    %r12,0x0(%rbp,%r13,8)
   18002cca2:	48 8b 0d f7 4b 02 00 	mov    0x24bf7(%rip),%rcx        # 0x1800518a0
   18002cca9:	48 8d 84 24 d0 00 00 	lea    0xd0(%rsp),%rax
   18002ccb0:	00
   18002ccb1:	48 89 44 24 20       	mov    %rax,0x20(%rsp)
   18002ccb6:	48 8b 05 d3 4b 02 00 	mov    0x24bd3(%rip),%rax        # 0x180051890
   18002ccbd:	4c 8d 44 24 70       	lea    0x70(%rsp),%r8
   18002ccc2:	0f b7 14 70          	movzwl (%rax,%rsi,2),%edx
   18002ccc6:	45 33 c9             	xor    %r9d,%r9d
   18002ccc9:	e8 e2 3c 00 00       	call   0x1800309b0
   18002ccce:	48 0f bf 44 24 78    	movswq 0x78(%rsp),%rax
   18002ccd4:	49 ff c5             	inc    %r13
   18002ccd7:	4c 03 e0             	add    %rax,%r12
   18002ccda:	48 ff c6             	inc    %rsi
   18002ccdd:	48 3b 77 18          	cmp    0x18(%rdi),%rsi
   18002cce1:	76 ba                	jbe    0x18002cc9d
   18002cce3:	48 8b 3f             	mov    (%rdi),%rdi
   18002cce6:	48 3b fb             	cmp    %rbx,%rdi
   18002cce9:	75 a5                	jne    0x18002cc90
   18002cceb:	48 8d 0d 86 40 02 00 	lea    0x24086(%rip),%rcx        # 0x180050d78
   18002ccf2:	e8 31 1f fe ff       	call   0x18000ec28
   18002ccf7:	48 8b 15 c2 3c 02 00 	mov    0x23cc2(%rip),%rdx        # 0x1800509c0
   18002ccfe:	49 8b ce             	mov    %r14,%rcx
   18002cd01:	ff 52 20             	call   *0x20(%rdx)
   18002cd04:	48 8b c3             	mov    %rbx,%rax
   18002cd07:	4c 8d 9c 24 80 00 00 	lea    0x80(%rsp),%r11
   18002cd0e:	00
   18002cd0f:	49 8b 5b 30          	mov    0x30(%r11),%rbx
   18002cd13:	49 8b 6b 38          	mov    0x38(%r11),%rbp
   18002cd17:	49 8b 73 40          	mov    0x40(%r11),%rsi
   18002cd1b:	49 8b e3             	mov    %r11,%rsp
   18002cd1e:	41 5f                	pop    %r15
   18002cd20:	41 5e                	pop    %r14
   18002cd22:	41 5d                	pop    %r13
   18002cd24:	41 5c                	pop    %r12
   18002cd26:	5f                   	pop    %rdi
   18002cd27:	c3                   	ret
   18002cd28:	48 8b c4             	mov    %rsp,%rax
   18002cd2b:	48 89 58 08          	mov    %rbx,0x8(%rax)
   18002cd2f:	48 89 68 10          	mov    %rbp,0x10(%rax)
   18002cd33:	48 89 70 18          	mov    %rsi,0x18(%rax)
   18002cd37:	48 89 78 20          	mov    %rdi,0x20(%rax)
   18002cd3b:	41 54                	push   %r12
   18002cd3d:	48 81 ec 60 02 00 00 	sub    $0x260,%rsp
   18002cd44:	48 83 64 24 30 00    	andq   $0x0,0x30(%rsp)
   18002cd4a:	48 8d 44 24 50       	lea    0x50(%rsp),%rax
   18002cd4f:	8b f2                	mov    %edx,%esi
   18002cd51:	48 8b 94 24 90 02 00 	mov    0x290(%rsp),%rdx
   18002cd58:	00
   18002cd59:	48 89 44 24 28       	mov    %rax,0x28(%rsp)
   18002cd5e:	48 8d 44 24 60       	lea    0x60(%rsp),%rax
   18002cd63:	48 8b e9             	mov    %rcx,%rbp
   18002cd66:	33 c9                	xor    %ecx,%ecx
   18002cd68:	48 89 44 24 20       	mov    %rax,0x20(%rsp)
   18002cd6d:	41 0f b7 d9          	movzwl %r9w,%ebx
   18002cd71:	49 8b f8             	mov    %r8,%rdi
   18002cd74:	48 c7 44 24 50 00 01 	movq   $0x100,0x50(%rsp)
   18002cd7b:	00 00
   18002cd7d:	e8 96 06 00 00       	call   0x18002d418
   18002cd82:	49 bc 00 00 00 00 00 	movabs $0x8000000000000000,%r12
   18002cd89:	00 00 80
   18002cd8c:	49 85 c4             	test   %rax,%r12
   18002cd8f:	74 73                	je     0x18002ce04
   18002cd91:	48 b9 05 00 00 00 00 	movabs $0x8000000000000005,%rcx
   18002cd98:	00 00 80
   18002cd9b:	48 3b c1             	cmp    %rcx,%rax
   18002cd9e:	0f 85 e5 00 00 00    	jne    0x18002ce89
   18002cda4:	48 8b 54 24 50       	mov    0x50(%rsp),%rdx
   18002cda9:	48 8b 05 10 3c 02 00 	mov    0x23c10(%rip),%rax        # 0x1800509c0
   18002cdb0:	4c 8d 44 24 60       	lea    0x60(%rsp),%r8
   18002cdb5:	48 03 d2             	add    %rdx,%rdx
   18002cdb8:	b9 04 00 00 00       	mov    $0x4,%ecx
   18002cdbd:	ff 50 40             	call   *0x40(%rax)
   18002cdc0:	49 85 c4             	test   %rax,%r12
   18002cdc3:	74 0f                	je     0x18002cdd4
   18002cdc5:	48 b8 09 00 00 00 00 	movabs $0x8000000000000009,%rax
   18002cdcc:	00 00 80
   18002cdcf:	e9 b5 00 00 00       	jmp    0x18002ce89
   18002cdd4:	48 83 64 24 30 00    	andq   $0x0,0x30(%rsp)
   18002cdda:	48 8b 94 24 90 02 00 	mov    0x290(%rsp),%rdx
   18002cde1:	00
   18002cde2:	48 8d 44 24 50       	lea    0x50(%rsp),%rax
   18002cde7:	48 89 44 24 28       	mov    %rax,0x28(%rsp)
   18002cdec:	48 8d 44 24 60       	lea    0x60(%rsp),%rax
   18002cdf1:	44 0f b7 cb          	movzwl %bx,%r9d
   18002cdf5:	4c 8b c7             	mov    %rdi,%r8
   18002cdf8:	33 c9                	xor    %ecx,%ecx
   18002cdfa:	48 89 44 24 20       	mov    %rax,0x20(%rsp)
   18002cdff:	e8 14 06 00 00       	call   0x18002d418
   18002ce04:	48 8b 84 24 c8 02 00 	mov    0x2c8(%rsp),%rax
   18002ce0b:	00
   18002ce0c:	4c 8b 8c 24 98 02 00 	mov    0x298(%rsp),%r9
   18002ce13:	00
   18002ce14:	4c 8d 44 24 60       	lea    0x60(%rsp),%r8
   18002ce19:	48 89 44 24 48       	mov    %rax,0x48(%rsp)
   18002ce1e:	48 8b 84 24 c0 02 00 	mov    0x2c0(%rsp),%rax
   18002ce25:	00
   18002ce26:	8b d6                	mov    %esi,%edx
   18002ce28:	48 89 44 24 40       	mov    %rax,0x40(%rsp)
   18002ce2d:	48 8b 84 24 b8 02 00 	mov    0x2b8(%rsp),%rax
   18002ce34:	00
   18002ce35:	48 8b cd             	mov    %rbp,%rcx
   18002ce38:	48 89 44 24 38       	mov    %rax,0x38(%rsp)
   18002ce3d:	48 8b 84 24 b0 02 00 	mov    0x2b0(%rsp),%rax
   18002ce44:	00
   18002ce45:	48 89 44 24 30       	mov    %rax,0x30(%rsp)
   18002ce4a:	48 8b 84 24 a8 02 00 	mov    0x2a8(%rsp),%rax
   18002ce51:	00
   18002ce52:	48 89 44 24 28       	mov    %rax,0x28(%rsp)
   18002ce57:	48 8b 84 24 a0 02 00 	mov    0x2a0(%rsp),%rax
   18002ce5e:	00
   18002ce5f:	48 89 44 24 20       	mov    %rax,0x20(%rsp)
   18002ce64:	e8 87 f9 ff ff       	call   0x18002c7f0
   18002ce69:	48 81 7c 24 50 00 01 	cmpq   $0x100,0x50(%rsp)
   18002ce70:	00 00
   18002ce72:	48 8b d8             	mov    %rax,%rbx
   18002ce75:	76 0f                	jbe    0x18002ce86
   18002ce77:	48 8b 15 42 3b 02 00 	mov    0x23b42(%rip),%rdx        # 0x1800509c0
   18002ce7e:	48 8d 4c 24 60       	lea    0x60(%rsp),%rcx
   18002ce83:	ff 52 48             	call   *0x48(%rdx)
   18002ce86:	48 8b c3             	mov    %rbx,%rax
   18002ce89:	4c 8d 9c 24 60 02 00 	lea    0x260(%rsp),%r11
   18002ce90:	00
   18002ce91:	49 8b 5b 10          	mov    0x10(%r11),%rbx
   18002ce95:	49 8b 6b 18          	mov    0x18(%r11),%rbp
   18002ce99:	49 8b 73 20          	mov    0x20(%r11),%rsi
   18002ce9d:	49 8b 7b 28          	mov    0x28(%r11),%rdi
   18002cea1:	49 8b e3             	mov    %r11,%rsp
   18002cea4:	41 5c                	pop    %r12
   18002cea6:	c3                   	ret
   18002cea7:	cc                   	int3
   18002cea8:	48 8b c4             	mov    %rsp,%rax
   18002ceab:	48 89 58 08          	mov    %rbx,0x8(%rax)
   18002ceaf:	48 89 68 10          	mov    %rbp,0x10(%rax)
   18002ceb3:	48 89 70 18          	mov    %rsi,0x18(%rax)
   18002ceb7:	57                   	push   %rdi
   18002ceb8:	41 54                	push   %r12
   18002ceba:	41 55                	push   %r13
   18002cebc:	48 81 ec 80 00 00 00 	sub    $0x80,%rsp
   18002cec3:	33 db                	xor    %ebx,%ebx
   18002cec5:	49 8b f1             	mov    %r9,%rsi
   18002cec8:	49 8b f8             	mov    %r8,%rdi
   18002cecb:	0f b7 ea             	movzwl %dx,%ebp
   18002cece:	48 89 58 b8          	mov    %rbx,-0x48(%rax)
   18002ced2:	4c 3b cb             	cmp    %rbx,%r9
   18002ced5:	0f 84 10 02 00 00    	je     0x18002d0eb
   18002cedb:	49 39 19             	cmp    %rbx,(%r9)
   18002cede:	0f 85 07 02 00 00    	jne    0x18002d0eb
   18002cee4:	4c 8d 48 b8          	lea    -0x48(%rax),%r9
   18002cee8:	48 8d 50 b0          	lea    -0x50(%rax),%rdx
   18002ceec:	48 89 58 b0          	mov    %rbx,-0x50(%rax)
   18002cef0:	48 89 58 88          	mov    %rbx,-0x78(%rax)
   18002cef4:	e8 53 f2 ff ff       	call   0x18002c14c
   18002cef9:	49 bc 00 00 00 00 00 	movabs $0x8000000000000000,%r12
   18002cf00:	00 00 80
   18002cf03:	41 bd 00 f0 ad de    	mov    $0xdeadf000,%r13d
   18002cf09:	49 85 c4             	test   %rax,%r12
   18002cf0c:	74 0f                	je     0x18002cf1d
   18002cf0e:	4c 89 6c 24 48       	mov    %r13,0x48(%rsp)
   18002cf13:	48 8b cb             	mov    %rbx,%rcx
   18002cf16:	48 89 5c 24 50       	mov    %rbx,0x50(%rsp)
   18002cf1b:	eb 05                	jmp    0x18002cf22
   18002cf1d:	48 8b 4c 24 50       	mov    0x50(%rsp),%rcx
   18002cf22:	48 3b cb             	cmp    %rbx,%rcx
   18002cf25:	74 1d                	je     0x18002cf44
   18002cf27:	8b 01                	mov    (%rcx),%eax
   18002cf29:	89 05 5d 49 02 00    	mov    %eax,0x2495d(%rip)        # 0x18005188c
   18002cf2f:	8b 41 04             	mov    0x4(%rcx),%eax
   18002cf32:	89 05 50 49 02 00    	mov    %eax,0x24950(%rip)        # 0x180051888
   18002cf38:	48 8b 05 81 3a 02 00 	mov    0x23a81(%rip),%rax        # 0x1800509c0
   18002cf3f:	ff 50 48             	call   *0x48(%rax)
   18002cf42:	eb 2a                	jmp    0x18002cf6e
   18002cf44:	48 3b fb             	cmp    %rbx,%rdi
   18002cf47:	74 0d                	je     0x18002cf56
   18002cf49:	8b 07                	mov    (%rdi),%eax
   18002cf4b:	89 05 3b 49 02 00    	mov    %eax,0x2493b(%rip)        # 0x18005188c
   18002cf51:	8b 47 04             	mov    0x4(%rdi),%eax
   18002cf54:	eb 12                	jmp    0x18002cf68
   18002cf56:	8b 05 e0 a1 01 00    	mov    0x1a1e0(%rip),%eax        # 0x18004713c
   18002cf5c:	89 05 2a 49 02 00    	mov    %eax,0x2492a(%rip)        # 0x18005188c
   18002cf62:	8b 05 d0 a1 01 00    	mov    0x1a1d0(%rip),%eax        # 0x180047138
   18002cf68:	89 05 1a 49 02 00    	mov    %eax,0x2491a(%rip)        # 0x180051888
   18002cf6e:	48 8b 4c 24 48       	mov    0x48(%rsp),%rcx
   18002cf73:	48 8d 84 24 b8 00 00 	lea    0xb8(%rsp),%rax
   18002cf7a:	00
   18002cf7b:	4c 8d 4c 24 60       	lea    0x60(%rsp),%r9
   18002cf80:	4c 8d 44 24 68       	lea    0x68(%rsp),%r8
   18002cf85:	0f b7 d5             	movzwl %bp,%edx
   18002cf88:	48 89 44 24 20       	mov    %rax,0x20(%rsp)
   18002cf8d:	e8 1e 3a 00 00       	call   0x1800309b0
   18002cf92:	49 85 c4             	test   %rax,%r12
   18002cf95:	0f 85 5a 01 00 00    	jne    0x18002d0f5
   18002cf9b:	0f b7 54 24 6a       	movzwl 0x6a(%rsp),%edx
   18002cfa0:	b9 01 00 00 00       	mov    $0x1,%ecx
   18002cfa5:	0f b6 fb             	movzbl %bl,%edi
   18002cfa8:	48 3b c1             	cmp    %rcx,%rax
   18002cfab:	0f b7 44 24 68       	movzwl 0x68(%rsp),%eax
   18002cfb0:	4c 8d 44 24 58       	lea    0x58(%rsp),%r8
   18002cfb5:	0f 44 f9             	cmove  %ecx,%edi
   18002cfb8:	b9 04 00 00 00       	mov    $0x4,%ecx
   18002cfbd:	48 0f af d0          	imul   %rax,%rdx
   18002cfc1:	48 8b 05 f8 39 02 00 	mov    0x239f8(%rip),%rax        # 0x1800509c0
   18002cfc8:	48 c1 e2 02          	shl    $0x2,%rdx
   18002cfcc:	ff 50 40             	call   *0x40(%rax)
   18002cfcf:	49 85 c4             	test   %rax,%r12
   18002cfd2:	74 0f                	je     0x18002cfe3
   18002cfd4:	48 b8 09 00 00 00 00 	movabs $0x8000000000000009,%rax
   18002cfdb:	00 00 80
   18002cfde:	e9 12 01 00 00       	jmp    0x18002d0f5
   18002cfe3:	48 8b 05 d6 39 02 00 	mov    0x239d6(%rip),%rax        # 0x1800509c0
   18002cfea:	ba 10 00 00 00       	mov    $0x10,%edx
   18002cfef:	4c 8d 44 24 40       	lea    0x40(%rsp),%r8
   18002cff4:	8d 4a f4             	lea    -0xc(%rdx),%ecx
   18002cff7:	ff 50 40             	call   *0x40(%rax)
   18002cffa:	49 85 c4             	test   %rax,%r12
   18002cffd:	74 11                	je     0x18002d010
   18002cfff:	48 8b 05 ba 39 02 00 	mov    0x239ba(%rip),%rax        # 0x1800509c0
   18002d006:	48 8b 4c 24 58       	mov    0x58(%rsp),%rcx
   18002d00b:	ff 50 48             	call   *0x48(%rax)
   18002d00e:	eb c4                	jmp    0x18002cfd4
   18002d010:	0f b7 4c 24 68       	movzwl 0x68(%rsp),%ecx
   18002d015:	48 8b 44 24 40       	mov    0x40(%rsp),%rax
   18002d01a:	33 d2                	xor    %edx,%edx
   18002d01c:	66 89 08             	mov    %cx,(%rax)
   18002d01f:	48 8b 44 24 40       	mov    0x40(%rsp),%rax
   18002d024:	0f b7 4c 24 6a       	movzwl 0x6a(%rsp),%ecx
   18002d029:	66 89 48 02          	mov    %cx,0x2(%rax)
   18002d02d:	48 8b 44 24 40       	mov    0x40(%rsp),%rax
   18002d032:	48 8b 4c 24 58       	mov    0x58(%rsp),%rcx
   18002d037:	48 89 48 08          	mov    %rcx,0x8(%rax)
   18002d03b:	48 8b 44 24 40       	mov    0x40(%rsp),%rax
   18002d040:	33 c9                	xor    %ecx,%ecx
   18002d042:	44 0f b7 00          	movzwl (%rax),%r8d
   18002d046:	4c 89 05 4b 48 02 00 	mov    %r8,0x2484b(%rip)        # 0x180051898
   18002d04d:	44 0f b7 48 02       	movzwl 0x2(%rax),%r9d
   18002d052:	0f b7 44 24 68       	movzwl 0x68(%rsp),%eax
   18002d057:	66 89 44 24 38       	mov    %ax,0x38(%rsp)
   18002d05c:	48 8b 44 24 58       	mov    0x58(%rsp),%rax
   18002d061:	4c 89 0d 18 48 02 00 	mov    %r9,0x24818(%rip)        # 0x180051880
   18002d068:	48 89 44 24 30       	mov    %rax,0x30(%rsp)
   18002d06d:	48 8b 44 24 60       	mov    0x60(%rsp),%rax
   18002d072:	88 5c 24 28          	mov    %bl,0x28(%rsp)
   18002d076:	48 89 44 24 20       	mov    %rax,0x20(%rsp)
   18002d07b:	e8 88 3e 00 00       	call   0x180030f08
   18002d080:	38 9c 24 b8 00 00 00 	cmp    %bl,0xb8(%rsp)
   18002d087:	74 0f                	je     0x18002d098
   18002d089:	48 8b 05 30 39 02 00 	mov    0x23930(%rip),%rax        # 0x1800509c0
   18002d090:	48 8b 4c 24 60       	mov    0x60(%rsp),%rcx
   18002d095:	ff 50 48             	call   *0x48(%rax)
   18002d098:	4c 8b 84 24 c0 00 00 	mov    0xc0(%rsp),%r8
   18002d09f:	00
   18002d0a0:	48 8b 44 24 40       	mov    0x40(%rsp),%rax
   18002d0a5:	48 89 06             	mov    %rax,(%rsi)
   18002d0a8:	4c 3b c3             	cmp    %rbx,%r8
   18002d0ab:	74 33                	je     0x18002d0e0
   18002d0ad:	4c 39 6c 24 48       	cmp    %r13,0x48(%rsp)
   18002d0b2:	75 15                	jne    0x18002d0c9
   18002d0b4:	66 83 7c 24 68 08    	cmpw   $0x8,0x68(%rsp)
   18002d0ba:	48 8b c3             	mov    %rbx,%rax
   18002d0bd:	0f 95 c0             	setne  %al
   18002d0c0:	48 83 c0 04          	add    $0x4,%rax
   18002d0c4:	49 89 00             	mov    %rax,(%r8)
   18002d0c7:	eb 17                	jmp    0x18002d0e0
   18002d0c9:	0f bf 54 24 6e       	movswl 0x6e(%rsp),%edx
   18002d0ce:	8b cb                	mov    %ebx,%ecx
   18002d0d0:	f7 da                	neg    %edx
   18002d0d2:	66 39 5c 24 6e       	cmp    %bx,0x6e(%rsp)
   18002d0d7:	0f 4c ca             	cmovl  %edx,%ecx
   18002d0da:	48 63 c9             	movslq %ecx,%rcx
   18002d0dd:	49 89 08             	mov    %rcx,(%r8)
   18002d0e0:	40 3a fb             	cmp    %bl,%dil
   18002d0e3:	0f 95 c3             	setne  %bl
   18002d0e6:	48 8b c3             	mov    %rbx,%rax
   18002d0e9:	eb 0a                	jmp    0x18002d0f5
   18002d0eb:	48 b8 02 00 00 00 00 	movabs $0x8000000000000002,%rax
   18002d0f2:	00 00 80
   18002d0f5:	4c 8d 9c 24 80 00 00 	lea    0x80(%rsp),%r11
   18002d0fc:	00
   18002d0fd:	49 8b 5b 20          	mov    0x20(%r11),%rbx
   18002d101:	49 8b 6b 28          	mov    0x28(%r11),%rbp
   18002d105:	49 8b 73 30          	mov    0x30(%r11),%rsi
   18002d109:	49 8b e3             	mov    %r11,%rsp
   18002d10c:	41 5d                	pop    %r13
   18002d10e:	41 5c                	pop    %r12
   18002d110:	5f                   	pop    %rdi
   18002d111:	c3                   	ret
   18002d112:	cc                   	int3
   18002d113:	cc                   	int3
   18002d114:	45 33 d2             	xor    %r10d,%r10d
   18002d117:	4d 8b ca             	mov    %r10,%r9
   18002d11a:	44 38 11             	cmp    %r10b,(%rcx)
   18002d11d:	74 1e                	je     0x18002d13d
   18002d11f:	49 d1 e8             	shr    %r8
   18002d122:	49 ff c8             	dec    %r8
   18002d125:	4d 3b c8             	cmp    %r8,%r9
   18002d128:	73 13                	jae    0x18002d13d
   18002d12a:	41 0f b6 04 09       	movzbl (%r9,%rcx,1),%eax
   18002d12f:	66 42 89 04 4a       	mov    %ax,(%rdx,%r9,2)
   18002d134:	49 ff c1             	inc    %r9
   18002d137:	45 38 14 09          	cmp    %r10b,(%r9,%rcx,1)
   18002d13b:	75 e8                	jne    0x18002d125
   18002d13d:	66 46 89 14 4a       	mov    %r10w,(%rdx,%r9,2)
   18002d142:	c3                   	ret
   18002d143:	cc                   	int3
   18002d144:	48 8b c4             	mov    %rsp,%rax
   18002d147:	48 89 58 08          	mov    %rbx,0x8(%rax)
   18002d14b:	48 89 68 10          	mov    %rbp,0x10(%rax)
   18002d14f:	48 89 70 18          	mov    %rsi,0x18(%rax)
   18002d153:	48 89 78 20          	mov    %rdi,0x20(%rax)
   18002d157:	41 54                	push   %r12
   18002d159:	48 83 ec 20          	sub    $0x20,%rsp
   18002d15d:	48 8b 59 4c          	mov    0x4c(%rcx),%rbx
   18002d161:	49 8b f1             	mov    %r9,%rsi
   18002d164:	49 8b e8             	mov    %r8,%rbp
   18002d167:	4c 8b e2             	mov    %rdx,%r12
   18002d16a:	40 32 ff             	xor    %dil,%dil
   18002d16d:	eb 16                	jmp    0x18002d185
   18002d16f:	48 8d 53 12          	lea    0x12(%rbx),%rdx
   18002d173:	49 8b cc             	mov    %r12,%rcx
   18002d176:	e8 01 bb fd ff       	call   0x180008c7c
   18002d17b:	84 c0                	test   %al,%al
   18002d17d:	75 30                	jne    0x18002d1af
   18002d17f:	48 8b 1b             	mov    (%rbx),%rbx
   18002d182:	40 fe c7             	inc    %dil
   18002d185:	48 85 db             	test   %rbx,%rbx
   18002d188:	75 e5                	jne    0x18002d16f
   18002d18a:	48 b8 0e 00 00 00 00 	movabs $0x800000000000000e,%rax
   18002d191:	00 00 80
   18002d194:	48 8b 5c 24 30       	mov    0x30(%rsp),%rbx
   18002d199:	48 8b 6c 24 38       	mov    0x38(%rsp),%rbp
   18002d19e:	48 8b 74 24 40       	mov    0x40(%rsp),%rsi
   18002d1a3:	48 8b 7c 24 48       	mov    0x48(%rsp),%rdi
   18002d1a8:	48 83 c4 20          	add    $0x20,%rsp
   18002d1ac:	41 5c                	pop    %r12
   18002d1ae:	c3                   	ret
   18002d1af:	40 0f b6 c7          	movzbl %dil,%eax
   18002d1b3:	66 89 45 00          	mov    %ax,0x0(%rbp)
   18002d1b7:	48 85 f6             	test   %rsi,%rsi
   18002d1ba:	74 03                	je     0x18002d1bf
   18002d1bc:	48 89 1e             	mov    %rbx,(%rsi)
   18002d1bf:	33 c0                	xor    %eax,%eax
   18002d1c1:	eb d1                	jmp    0x18002d194
   18002d1c3:	cc                   	int3
   18002d1c4:	b8 02 00 00 00       	mov    $0x2,%eax
   18002d1c9:	eb 07                	jmp    0x18002d1d2
   18002d1cb:	48 83 c1 02          	add    $0x2,%rcx
   18002d1cf:	83 c0 02             	add    $0x2,%eax
   18002d1d2:	66 83 39 00          	cmpw   $0x0,(%rcx)
   18002d1d6:	75 f3                	jne    0x18002d1cb
   18002d1d8:	f3 c3                	repz ret
   18002d1da:	cc                   	int3
   18002d1db:	cc                   	int3
   18002d1dc:	80 3a 00             	cmpb   $0x0,(%rdx)
   18002d1df:	48 8b c2             	mov    %rdx,%rax
   18002d1e2:	41 b8 01 00 00 00    	mov    $0x1,%r8d
   18002d1e8:	74 0b                	je     0x18002d1f5
   18002d1ea:	48 ff c0             	inc    %rax
   18002d1ed:	41 ff c0             	inc    %r8d
   18002d1f0:	80 38 00             	cmpb   $0x0,(%rax)
   18002d1f3:	75 f5                	jne    0x18002d1ea
   18002d1f5:	e9 16 c9 fd ff       	jmp    0x180009b10
   18002d1fa:	cc                   	int3
   18002d1fb:	cc                   	int3
   18002d1fc:	66 83 3a 00          	cmpw   $0x0,(%rdx)
   18002d200:	48 8b c2             	mov    %rdx,%rax
   18002d203:	41 b8 02 00 00 00    	mov    $0x2,%r8d
   18002d209:	74 0e                	je     0x18002d219
   18002d20b:	48 83 c0 02          	add    $0x2,%rax
   18002d20f:	41 83 c0 02          	add    $0x2,%r8d
   18002d213:	66 83 38 00          	cmpw   $0x0,(%rax)
   18002d217:	75 f2                	jne    0x18002d20b
   18002d219:	e9 66 a3 fd ff       	jmp    0x180007584
   18002d21e:	cc                   	int3
   18002d21f:	cc                   	int3
   18002d220:	48 8b 51 64          	mov    0x64(%rcx),%rdx
   18002d224:	45 33 c0             	xor    %r8d,%r8d
   18002d227:	41 0f b7 c0          	movzwl %r8w,%eax
   18002d22b:	eb 0c                	jmp    0x18002d239
   18002d22d:	66 39 42 10          	cmp    %ax,0x10(%rdx)
   18002d231:	66 0f 47 42 10       	cmova  0x10(%rdx),%ax
   18002d236:	48 8b 12             	mov    (%rdx),%rdx
   18002d239:	49 3b d0             	cmp    %r8,%rdx
   18002d23c:	75 ef                	jne    0x18002d22d
   18002d23e:	ff c0                	inc    %eax
   18002d240:	c3                   	ret
   18002d241:	cc                   	int3
   18002d242:	cc                   	int3
   18002d243:	cc                   	int3
   18002d244:	48 89 5c 24 08       	mov    %rbx,0x8(%rsp)
   18002d249:	48 89 74 24 10       	mov    %rsi,0x10(%rsp)
   18002d24e:	57                   	push   %rdi
   18002d24f:	48 83 ec 20          	sub    $0x20,%rsp
   18002d253:	48 8b 59 64          	mov    0x64(%rcx),%rbx
   18002d257:	49 8b f8             	mov    %r8,%rdi
   18002d25a:	48 8b f2             	mov    %rdx,%rsi
   18002d25d:	eb 18                	jmp    0x18002d277
   18002d25f:	44 8b 43 12          	mov    0x12(%rbx),%r8d
   18002d263:	48 8d 4b 16          	lea    0x16(%rbx),%rcx
   18002d267:	48 8b d6             	mov    %rsi,%rdx
   18002d26a:	e8 15 a3 fd ff       	call   0x180007584
   18002d26f:	48 85 c0             	test   %rax,%rax
   18002d272:	74 22                	je     0x18002d296
   18002d274:	48 8b 1b             	mov    (%rbx),%rbx
   18002d277:	48 85 db             	test   %rbx,%rbx
   18002d27a:	75 e3                	jne    0x18002d25f
   18002d27c:	48 b8 0e 00 00 00 00 	movabs $0x800000000000000e,%rax
   18002d283:	00 00 80
   18002d286:	48 8b 5c 24 30       	mov    0x30(%rsp),%rbx
   18002d28b:	48 8b 74 24 38       	mov    0x38(%rsp),%rsi
   18002d290:	48 83 c4 20          	add    $0x20,%rsp
   18002d294:	5f                   	pop    %rdi
   18002d295:	c3                   	ret
   18002d296:	0f b7 43 10          	movzwl 0x10(%rbx),%eax
   18002d29a:	66 89 07             	mov    %ax,(%rdi)
   18002d29d:	33 c0                	xor    %eax,%eax
   18002d29f:	eb e5                	jmp    0x18002d286
   18002d2a1:	cc                   	int3
   18002d2a2:	cc                   	int3
   18002d2a3:	cc                   	int3
   18002d2a4:	48 89 5c 24 08       	mov    %rbx,0x8(%rsp)
   18002d2a9:	57                   	push   %rdi
   18002d2aa:	48 83 ec 20          	sub    $0x20,%rsp
   18002d2ae:	48 8b 59 64          	mov    0x64(%rcx),%rbx
   18002d2b2:	49 8b f8             	mov    %r8,%rdi
   18002d2b5:	eb 09                	jmp    0x18002d2c0
   18002d2b7:	66 39 53 10          	cmp    %dx,0x10(%rbx)
   18002d2bb:	74 6e                	je     0x18002d32b
   18002d2bd:	48 8b 1b             	mov    (%rbx),%rbx
   18002d2c0:	48 85 db             	test   %rbx,%rbx
   18002d2c3:	75 f2                	jne    0x18002d2b7
   18002d2c5:	48 8d 0d 64 0d 02 00 	lea    0x20d64(%rip),%rcx        # 0x18004e030
   18002d2cc:	e8 6b 3f 00 00       	call   0x18003123c
   18002d2d1:	8d 4b 04             	lea    0x4(%rbx),%ecx
   18002d2d4:	4c 8b c7             	mov    %rdi,%r8
   18002d2d7:	48 8d 54 00 08       	lea    0x8(%rax,%rax,1),%rdx
   18002d2dc:	48 8b 05 dd 36 02 00 	mov    0x236dd(%rip),%rax        # 0x1800509c0
   18002d2e3:	ff 50 40             	call   *0x40(%rax)
   18002d2e6:	48 b9 00 00 00 00 00 	movabs $0x8000000000000000,%rcx
   18002d2ed:	00 00 80
   18002d2f0:	48 8b d8             	mov    %rax,%rbx
   18002d2f3:	48 85 c1             	test   %rax,%rcx
   18002d2f6:	75 25                	jne    0x18002d31d
   18002d2f8:	48 8b 0f             	mov    (%rdi),%rcx
   18002d2fb:	b8 13 00 00 00       	mov    $0x13,%eax
   18002d300:	48 8d 15 29 0d 02 00 	lea    0x20d29(%rip),%rdx        # 0x18004e030
   18002d307:	66 89 41 04          	mov    %ax,0x4(%rcx)
   18002d30b:	48 8b 0f             	mov    (%rdi),%rcx
   18002d30e:	83 21 00             	andl   $0x0,(%rcx)
   18002d311:	48 8b 0f             	mov    (%rdi),%rcx
   18002d314:	48 83 c1 06          	add    $0x6,%rcx
   18002d318:	e8 e3 bc fd ff       	call   0x180009000
   18002d31d:	48 8b c3             	mov    %rbx,%rax
   18002d320:	48 8b 5c 24 30       	mov    0x30(%rsp),%rbx
   18002d325:	48 83 c4 20          	add    $0x20,%rsp
   18002d329:	5f                   	pop    %rdi
   18002d32a:	c3                   	ret
   18002d32b:	48 8b 05 8e 36 02 00 	mov    0x2368e(%rip),%rax        # 0x1800509c0
   18002d332:	8b 53 12             	mov    0x12(%rbx),%edx
   18002d335:	b9 04 00 00 00       	mov    $0x4,%ecx
   18002d33a:	ff 50 40             	call   *0x40(%rax)
   18002d33d:	48 b9 00 00 00 00 00 	movabs $0x8000000000000000,%rcx
   18002d344:	00 00 80
   18002d347:	48 85 c1             	test   %rax,%rcx
   18002d34a:	75 d4                	jne    0x18002d320
   18002d34c:	44 8b 43 12          	mov    0x12(%rbx),%r8d
   18002d350:	48 8b 0f             	mov    (%rdi),%rcx
   18002d353:	48 8d 53 16          	lea    0x16(%rbx),%rdx
   18002d357:	e8 b4 c7 fd ff       	call   0x180009b10
   18002d35c:	33 c0                	xor    %eax,%eax
   18002d35e:	eb c0                	jmp    0x18002d320
   18002d360:	48 89 5c 24 08       	mov    %rbx,0x8(%rsp)
   18002d365:	48 89 6c 24 10       	mov    %rbp,0x10(%rsp)